
samd21_12bit_multiadc.elf:     file format elf32-littlearm

Sections:
Idx Name          Size      VMA       LMA       File off  Algn
  0 .text         000059e0  00000000  00000000  00010000  2**3
                  CONTENTS, ALLOC, LOAD, READONLY, CODE
  1 .relocate     000001d0  20000000  000059e0  00020000  2**2
                  CONTENTS, ALLOC, LOAD, DATA
  2 .bss          00000044  200001d0  00005bb0  000201d0  2**2
                  ALLOC
  3 .stack        00002004  20000214  00005bf4  000201d0  2**0
                  ALLOC
  4 .ARM.attributes 00000028  00000000  00000000  000201d0  2**0
                  CONTENTS, READONLY
  5 .comment      00000059  00000000  00000000  000201f8  2**0
                  CONTENTS, READONLY
  6 .debug_info   00025ba1  00000000  00000000  00020251  2**0
                  CONTENTS, READONLY, DEBUGGING
  7 .debug_abbrev 00003193  00000000  00000000  00045df2  2**0
                  CONTENTS, READONLY, DEBUGGING
  8 .debug_loc    0000c567  00000000  00000000  00048f85  2**0
                  CONTENTS, READONLY, DEBUGGING
  9 .debug_aranges 00000c00  00000000  00000000  000554ec  2**0
                  CONTENTS, READONLY, DEBUGGING
 10 .debug_ranges 00000c90  00000000  00000000  000560ec  2**0
                  CONTENTS, READONLY, DEBUGGING
 11 .debug_macro  0001c394  00000000  00000000  00056d7c  2**0
                  CONTENTS, READONLY, DEBUGGING
 12 .debug_line   0000f783  00000000  00000000  00073110  2**0
                  CONTENTS, READONLY, DEBUGGING
 13 .debug_str    0008f549  00000000  00000000  00082893  2**0
                  CONTENTS, READONLY, DEBUGGING
 14 .debug_frame  00002be0  00000000  00000000  00111ddc  2**2
                  CONTENTS, READONLY, DEBUGGING

Disassembly of section .text:

00000000 <exception_table>:
       0:	18 22 00 20 91 01 00 00 8d 01 00 00 8d 01 00 00     .". ............
	...
      2c:	8d 01 00 00 00 00 00 00 00 00 00 00 8d 01 00 00     ................
      3c:	8d 01 00 00 8d 01 00 00 8d 01 00 00 8d 01 00 00     ................
      4c:	8d 01 00 00 8d 01 00 00 8d 01 00 00 8d 01 00 00     ................
      5c:	8d 01 00 00 8d 01 00 00 8d 01 00 00 8d 01 00 00     ................
      6c:	8d 01 00 00 8d 01 00 00 8d 01 00 00 8d 01 00 00     ................
      7c:	8d 01 00 00 8d 01 00 00 8d 01 00 00 8d 01 00 00     ................
      8c:	8d 01 00 00 8d 01 00 00 8d 01 00 00 8d 01 00 00     ................
      9c:	8d 01 00 00 8d 01 00 00 8d 01 00 00 8d 01 00 00     ................
      ac:	8d 01 00 00 00 00 00 00                             ........

000000b4 <__do_global_dtors_aux>:
      b4:	b510      	push	{r4, lr}
      b6:	4c06      	ldr	r4, [pc, #24]	; (d0 <__do_global_dtors_aux+0x1c>)
      b8:	7823      	ldrb	r3, [r4, #0]
      ba:	2b00      	cmp	r3, #0
      bc:	d107      	bne.n	ce <__do_global_dtors_aux+0x1a>
      be:	4b05      	ldr	r3, [pc, #20]	; (d4 <__do_global_dtors_aux+0x20>)
      c0:	2b00      	cmp	r3, #0
      c2:	d002      	beq.n	ca <__do_global_dtors_aux+0x16>
      c4:	4804      	ldr	r0, [pc, #16]	; (d8 <__do_global_dtors_aux+0x24>)
      c6:	e000      	b.n	ca <__do_global_dtors_aux+0x16>
      c8:	bf00      	nop
      ca:	2301      	movs	r3, #1
      cc:	7023      	strb	r3, [r4, #0]
      ce:	bd10      	pop	{r4, pc}
      d0:	200001d0 	.word	0x200001d0
      d4:	00000000 	.word	0x00000000
      d8:	000059e0 	.word	0x000059e0

000000dc <frame_dummy>:
      dc:	4b08      	ldr	r3, [pc, #32]	; (100 <frame_dummy+0x24>)
      de:	b510      	push	{r4, lr}
      e0:	2b00      	cmp	r3, #0
      e2:	d003      	beq.n	ec <frame_dummy+0x10>
      e4:	4907      	ldr	r1, [pc, #28]	; (104 <frame_dummy+0x28>)
      e6:	4808      	ldr	r0, [pc, #32]	; (108 <frame_dummy+0x2c>)
      e8:	e000      	b.n	ec <frame_dummy+0x10>
      ea:	bf00      	nop
      ec:	4807      	ldr	r0, [pc, #28]	; (10c <frame_dummy+0x30>)
      ee:	6803      	ldr	r3, [r0, #0]
      f0:	2b00      	cmp	r3, #0
      f2:	d100      	bne.n	f6 <frame_dummy+0x1a>
      f4:	bd10      	pop	{r4, pc}
      f6:	4b06      	ldr	r3, [pc, #24]	; (110 <frame_dummy+0x34>)
      f8:	2b00      	cmp	r3, #0
      fa:	d0fb      	beq.n	f4 <frame_dummy+0x18>
      fc:	4798      	blx	r3
      fe:	e7f9      	b.n	f4 <frame_dummy+0x18>
     100:	00000000 	.word	0x00000000
     104:	200001d4 	.word	0x200001d4
     108:	000059e0 	.word	0x000059e0
     10c:	000059e0 	.word	0x000059e0
     110:	00000000 	.word	0x00000000

00000114 <adc_enable>:

#include <atmel_start.h>
#include "adc_read.h"

void adc_enable()
{
     114:	b570      	push	{r4, r5, r6, lr}
	
	adc_sync_enable_channel(&ADC_0,0);
     116:	4d04      	ldr	r5, [pc, #16]	; (128 <adc_enable+0x14>)
     118:	2100      	movs	r1, #0
     11a:	0028      	movs	r0, r5
     11c:	4c03      	ldr	r4, [pc, #12]	; (12c <adc_enable+0x18>)
     11e:	47a0      	blx	r4
	adc_sync_enable_channel(&ADC_0,1);
     120:	2101      	movs	r1, #1
     122:	0028      	movs	r0, r5
     124:	47a0      	blx	r4
}
     126:	bd70      	pop	{r4, r5, r6, pc}
     128:	2000020c 	.word	0x2000020c
     12c:	00000409 	.word	0x00000409

00000130 <ADC_Read>:

int ADC_Read(ADC_ReadTypeDef_t * ADC_ReadTypeDef)
{
     130:	b5f8      	push	{r3, r4, r5, r6, r7, lr}
     132:	0004      	movs	r4, r0
	int ret=adc_sync_read_channel(&ADC_0,0,ADC_ReadTypeDef->buffer,2);
     134:	4e0e      	ldr	r6, [pc, #56]	; (170 <ADC_Read+0x40>)
     136:	2302      	movs	r3, #2
     138:	0002      	movs	r2, r0
     13a:	2100      	movs	r1, #0
     13c:	0030      	movs	r0, r6
     13e:	4d0d      	ldr	r5, [pc, #52]	; (174 <ADC_Read+0x44>)
     140:	47a8      	blx	r5
     142:	0007      	movs	r7, r0
	int ret1=adc_sync_read_channel(&ADC_0,1,ADC_ReadTypeDef->buffer2,2);
     144:	1ca2      	adds	r2, r4, #2
     146:	2302      	movs	r3, #2
     148:	2101      	movs	r1, #1
     14a:	0030      	movs	r0, r6
     14c:	47a8      	blx	r5
	if(ret<=0&&ret1<=0)
     14e:	2f00      	cmp	r7, #0
     150:	dd09      	ble.n	166 <ADC_Read+0x36>
	{
		
		return -1;
	}
	 ADC_ReadTypeDef->PA06_ADC_value = (ADC_ReadTypeDef->buffer[1]  + ADC_ReadTypeDef->buffer[0]);
     152:	7863      	ldrb	r3, [r4, #1]
     154:	7822      	ldrb	r2, [r4, #0]
     156:	189b      	adds	r3, r3, r2
     158:	80a3      	strh	r3, [r4, #4]
	ADC_ReadTypeDef->PA07_ADC_value = (ADC_ReadTypeDef->buffer2[1]  + ADC_ReadTypeDef->buffer2[0]);
     15a:	78e3      	ldrb	r3, [r4, #3]
     15c:	78a2      	ldrb	r2, [r4, #2]
     15e:	189b      	adds	r3, r3, r2
     160:	80e3      	strh	r3, [r4, #6]
	//ADC_ReadTypeDef->sum = ADC_ReadTypeDef->PA06_ADC_value;
	return 0;
     162:	2000      	movs	r0, #0
     164:	bdf8      	pop	{r3, r4, r5, r6, r7, pc}
	if(ret<=0&&ret1<=0)
     166:	2800      	cmp	r0, #0
     168:	dcf3      	bgt.n	152 <ADC_Read+0x22>
		return -1;
     16a:	2001      	movs	r0, #1
     16c:	4240      	negs	r0, r0
     16e:	e7f9      	b.n	164 <ADC_Read+0x34>
     170:	2000020c 	.word	0x2000020c
     174:	00000435 	.word	0x00000435

00000178 <atmel_start_init>:

/**
 * Initializes MCU, drivers and middleware in the project
 **/
void atmel_start_init(void)
{
     178:	b510      	push	{r4, lr}
	system_init();
     17a:	4b02      	ldr	r3, [pc, #8]	; (184 <atmel_start_init+0xc>)
     17c:	4798      	blx	r3
	stdio_redirect_init();
     17e:	4b02      	ldr	r3, [pc, #8]	; (188 <atmel_start_init+0x10>)
     180:	4798      	blx	r3
}
     182:	bd10      	pop	{r4, pc}
     184:	000003ad 	.word	0x000003ad
     188:	00000d0d 	.word	0x00000d0d

0000018c <Dummy_Handler>:

/**
 * \brief Default interrupt handler for unused IRQs.
 */
void Dummy_Handler(void)
{
     18c:	e7fe      	b.n	18c <Dummy_Handler>
	...

00000190 <Reset_Handler>:
{
     190:	b5f8      	push	{r3, r4, r5, r6, r7, lr}
        if (pSrc != pDest) {
     192:	4a23      	ldr	r2, [pc, #140]	; (220 <Reset_Handler+0x90>)
     194:	4b23      	ldr	r3, [pc, #140]	; (224 <Reset_Handler+0x94>)
     196:	429a      	cmp	r2, r3
     198:	d009      	beq.n	1ae <Reset_Handler+0x1e>
     19a:	4b22      	ldr	r3, [pc, #136]	; (224 <Reset_Handler+0x94>)
     19c:	4a20      	ldr	r2, [pc, #128]	; (220 <Reset_Handler+0x90>)
     19e:	e003      	b.n	1a8 <Reset_Handler+0x18>
                        *pDest++ = *pSrc++;
     1a0:	6811      	ldr	r1, [r2, #0]
     1a2:	6019      	str	r1, [r3, #0]
     1a4:	3304      	adds	r3, #4
     1a6:	3204      	adds	r2, #4
                for (; pDest < &_erelocate;) {
     1a8:	491f      	ldr	r1, [pc, #124]	; (228 <Reset_Handler+0x98>)
     1aa:	428b      	cmp	r3, r1
     1ac:	d3f8      	bcc.n	1a0 <Reset_Handler+0x10>
                        *pDest++ = *pSrc++;
     1ae:	4b1f      	ldr	r3, [pc, #124]	; (22c <Reset_Handler+0x9c>)
     1b0:	e002      	b.n	1b8 <Reset_Handler+0x28>
                *pDest++ = 0;
     1b2:	2200      	movs	r2, #0
     1b4:	601a      	str	r2, [r3, #0]
     1b6:	3304      	adds	r3, #4
        for (pDest = &_szero; pDest < &_ezero;) {
     1b8:	4a1d      	ldr	r2, [pc, #116]	; (230 <Reset_Handler+0xa0>)
     1ba:	4293      	cmp	r3, r2
     1bc:	d3f9      	bcc.n	1b2 <Reset_Handler+0x22>
        SCB->VTOR = ((uint32_t) pSrc & SCB_VTOR_TBLOFF_Msk);
     1be:	4a1d      	ldr	r2, [pc, #116]	; (234 <Reset_Handler+0xa4>)
     1c0:	21ff      	movs	r1, #255	; 0xff
     1c2:	4b1d      	ldr	r3, [pc, #116]	; (238 <Reset_Handler+0xa8>)
     1c4:	438b      	bics	r3, r1
     1c6:	6093      	str	r3, [r2, #8]
        SBMATRIX->SFR[SBMATRIX_SLAVE_HMCRAMC0].reg = 2;
     1c8:	39fd      	subs	r1, #253	; 0xfd
     1ca:	2390      	movs	r3, #144	; 0x90
     1cc:	005b      	lsls	r3, r3, #1
     1ce:	4a1b      	ldr	r2, [pc, #108]	; (23c <Reset_Handler+0xac>)
     1d0:	50d1      	str	r1, [r2, r3]
        USB->DEVICE.QOSCTRL.bit.CQOS = 2;
     1d2:	4a1b      	ldr	r2, [pc, #108]	; (240 <Reset_Handler+0xb0>)
     1d4:	78d3      	ldrb	r3, [r2, #3]
     1d6:	2503      	movs	r5, #3
     1d8:	43ab      	bics	r3, r5
     1da:	2402      	movs	r4, #2
     1dc:	4323      	orrs	r3, r4
     1de:	70d3      	strb	r3, [r2, #3]
        USB->DEVICE.QOSCTRL.bit.DQOS = 2;
     1e0:	78d3      	ldrb	r3, [r2, #3]
     1e2:	270c      	movs	r7, #12
     1e4:	43bb      	bics	r3, r7
     1e6:	2608      	movs	r6, #8
     1e8:	4333      	orrs	r3, r6
     1ea:	70d3      	strb	r3, [r2, #3]
        DMAC->QOSCTRL.bit.DQOS = 2;
     1ec:	4b15      	ldr	r3, [pc, #84]	; (244 <Reset_Handler+0xb4>)
     1ee:	7b98      	ldrb	r0, [r3, #14]
     1f0:	2230      	movs	r2, #48	; 0x30
     1f2:	4390      	bics	r0, r2
     1f4:	2220      	movs	r2, #32
     1f6:	4310      	orrs	r0, r2
     1f8:	7398      	strb	r0, [r3, #14]
        DMAC->QOSCTRL.bit.FQOS = 2;
     1fa:	7b99      	ldrb	r1, [r3, #14]
     1fc:	43b9      	bics	r1, r7
     1fe:	4331      	orrs	r1, r6
     200:	7399      	strb	r1, [r3, #14]
        DMAC->QOSCTRL.bit.WRBQOS = 2;
     202:	7b9a      	ldrb	r2, [r3, #14]
     204:	43aa      	bics	r2, r5
     206:	4322      	orrs	r2, r4
     208:	739a      	strb	r2, [r3, #14]
        NVMCTRL->CTRLB.bit.MANW = 1;
     20a:	4a0f      	ldr	r2, [pc, #60]	; (248 <Reset_Handler+0xb8>)
     20c:	6851      	ldr	r1, [r2, #4]
     20e:	2380      	movs	r3, #128	; 0x80
     210:	430b      	orrs	r3, r1
     212:	6053      	str	r3, [r2, #4]
        __libc_init_array();
     214:	4b0d      	ldr	r3, [pc, #52]	; (24c <Reset_Handler+0xbc>)
     216:	4798      	blx	r3
        main();
     218:	4b0d      	ldr	r3, [pc, #52]	; (250 <Reset_Handler+0xc0>)
     21a:	4798      	blx	r3
     21c:	e7fe      	b.n	21c <Reset_Handler+0x8c>
     21e:	46c0      	nop			; (mov r8, r8)
     220:	000059e0 	.word	0x000059e0
     224:	20000000 	.word	0x20000000
     228:	200001d0 	.word	0x200001d0
     22c:	200001d0 	.word	0x200001d0
     230:	20000214 	.word	0x20000214
     234:	e000ed00 	.word	0xe000ed00
     238:	00000000 	.word	0x00000000
     23c:	41007000 	.word	0x41007000
     240:	41005000 	.word	0x41005000
     244:	41004800 	.word	0x41004800
     248:	41004000 	.word	0x41004000
     24c:	00000d2d 	.word	0x00000d2d
     250:	00000be5 	.word	0x00000be5

00000254 <ADC_0_PORT_init>:
struct adc_sync_descriptor ADC_0;

struct usart_sync_descriptor TARGET_IO;

void ADC_0_PORT_init(void)
{
     254:	b5f0      	push	{r4, r5, r6, r7, lr}
	((Port *)hw)->Group[submodule_index].DIRCLR.reg = ~data;
}

static inline void hri_port_clear_DIR_reg(const void *const hw, uint8_t submodule_index, hri_port_dir_reg_t mask)
{
	((Port *)hw)->Group[submodule_index].DIRCLR.reg = mask;
     256:	26c0      	movs	r6, #192	; 0xc0
     258:	05f6      	lsls	r6, r6, #23
     25a:	2340      	movs	r3, #64	; 0x40
     25c:	6073      	str	r3, [r6, #4]

static inline void hri_port_write_WRCONFIG_reg(const void *const hw, uint8_t submodule_index,
                                               hri_port_wrconfig_reg_t data)
{
	PORT_CRITICAL_SECTION_ENTER();
	((Port *)hw)->Group[submodule_index].WRCONFIG.reg = data;
     25e:	4b14      	ldr	r3, [pc, #80]	; (2b0 <ADC_0_PORT_init+0x5c>)
     260:	4a14      	ldr	r2, [pc, #80]	; (2b4 <ADC_0_PORT_init+0x60>)
     262:	629a      	str	r2, [r3, #40]	; 0x28
     264:	22c0      	movs	r2, #192	; 0xc0
     266:	0612      	lsls	r2, r2, #24
     268:	629a      	str	r2, [r3, #40]	; 0x28
	tmp = ((Port *)hw)->Group[submodule_index].PINCFG[index].reg;
     26a:	2046      	movs	r0, #70	; 0x46
     26c:	5c19      	ldrb	r1, [r3, r0]
	tmp &= ~PORT_PINCFG_PMUXEN;
     26e:	2501      	movs	r5, #1
     270:	43a9      	bics	r1, r5
	tmp |= value << PORT_PINCFG_PMUXEN_Pos;
     272:	2401      	movs	r4, #1
     274:	4321      	orrs	r1, r4
     276:	b2c9      	uxtb	r1, r1
	((Port *)hw)->Group[submodule_index].PINCFG[index].reg = tmp;
     278:	5419      	strb	r1, [r3, r0]
	tmp = ((Port *)hw)->Group[submodule_index].PMUX[index].reg;
     27a:	3813      	subs	r0, #19
     27c:	5c19      	ldrb	r1, [r3, r0]
	tmp &= ~PORT_PMUX_PMUXE_Msk;
     27e:	270f      	movs	r7, #15
     280:	43b9      	bics	r1, r7
	tmp |= PORT_PMUX_PMUXE(data);
     282:	4321      	orrs	r1, r4
     284:	b2c9      	uxtb	r1, r1
	((Port *)hw)->Group[submodule_index].PMUX[index].reg = tmp;
     286:	5419      	strb	r1, [r3, r0]
	((Port *)hw)->Group[submodule_index].DIRCLR.reg = mask;
     288:	2180      	movs	r1, #128	; 0x80
     28a:	6071      	str	r1, [r6, #4]
	((Port *)hw)->Group[submodule_index].WRCONFIG.reg = data;
     28c:	490a      	ldr	r1, [pc, #40]	; (2b8 <ADC_0_PORT_init+0x64>)
     28e:	6299      	str	r1, [r3, #40]	; 0x28
     290:	629a      	str	r2, [r3, #40]	; 0x28
	tmp = ((Port *)hw)->Group[submodule_index].PINCFG[index].reg;
     292:	2147      	movs	r1, #71	; 0x47
     294:	5c5a      	ldrb	r2, [r3, r1]
	tmp &= ~PORT_PINCFG_PMUXEN;
     296:	43aa      	bics	r2, r5
	tmp |= value << PORT_PINCFG_PMUXEN_Pos;
     298:	4322      	orrs	r2, r4
     29a:	b2d2      	uxtb	r2, r2
	((Port *)hw)->Group[submodule_index].PINCFG[index].reg = tmp;
     29c:	545a      	strb	r2, [r3, r1]
	tmp = ((Port *)hw)->Group[submodule_index].PMUX[index].reg;
     29e:	5c1a      	ldrb	r2, [r3, r0]
	tmp &= ~PORT_PMUX_PMUXO_Msk;
     2a0:	3938      	subs	r1, #56	; 0x38
     2a2:	400a      	ands	r2, r1
	tmp |= PORT_PMUX_PMUXO(data);
     2a4:	2110      	movs	r1, #16
     2a6:	430a      	orrs	r2, r1
     2a8:	b2d2      	uxtb	r2, r2
	((Port *)hw)->Group[submodule_index].PMUX[index].reg = tmp;
     2aa:	541a      	strb	r2, [r3, r0]

	// Disable digital pin circuitry
	gpio_set_pin_direction(PA07, GPIO_DIRECTION_OFF);

	gpio_set_pin_function(PA07, PINMUX_PA07B_ADC_AIN7);
}
     2ac:	bdf0      	pop	{r4, r5, r6, r7, pc}
     2ae:	46c0      	nop			; (mov r8, r8)
     2b0:	41004400 	.word	0x41004400
     2b4:	40000040 	.word	0x40000040
     2b8:	40000080 	.word	0x40000080

000002bc <ADC_0_CLOCK_init>:
			peripheral = (uint32_t)_pm_get_apbb_index(module);
			PM->APBBMASK.reg |= 1 << peripheral;
		}
		break;
	case PM_BUS_APBC:
		PM->APBCMASK.reg |= 1 << peripheral;
     2bc:	4a04      	ldr	r2, [pc, #16]	; (2d0 <ADC_0_CLOCK_init+0x14>)
     2be:	6a11      	ldr	r1, [r2, #32]
     2c0:	2380      	movs	r3, #128	; 0x80
     2c2:	025b      	lsls	r3, r3, #9
     2c4:	430b      	orrs	r3, r1
     2c6:	6213      	str	r3, [r2, #32]
}

static inline void hri_gclk_write_CLKCTRL_reg(const void *const hw, hri_gclk_clkctrl_reg_t data)
{
	GCLK_CRITICAL_SECTION_ENTER();
	((Gclk *)hw)->CLKCTRL.reg = data;
     2c8:	4a02      	ldr	r2, [pc, #8]	; (2d4 <ADC_0_CLOCK_init+0x18>)
     2ca:	4b03      	ldr	r3, [pc, #12]	; (2d8 <ADC_0_CLOCK_init+0x1c>)
     2cc:	805a      	strh	r2, [r3, #2]

void ADC_0_CLOCK_init(void)
{
	_pm_enable_bus_clock(PM_BUS_APBC, ADC);
	_gclk_enable_channel(ADC_GCLK_ID, CONF_GCLK_ADC_SRC);
}
     2ce:	4770      	bx	lr
     2d0:	40000400 	.word	0x40000400
     2d4:	0000401e 	.word	0x0000401e
     2d8:	40000c00 	.word	0x40000c00

000002dc <ADC_0_init>:

void ADC_0_init(void)
{
     2dc:	b510      	push	{r4, lr}
	ADC_0_CLOCK_init();
     2de:	4b05      	ldr	r3, [pc, #20]	; (2f4 <ADC_0_init+0x18>)
     2e0:	4798      	blx	r3
	ADC_0_PORT_init();
     2e2:	4b05      	ldr	r3, [pc, #20]	; (2f8 <ADC_0_init+0x1c>)
     2e4:	4798      	blx	r3
	adc_sync_init(&ADC_0, ADC, (void *)NULL);
     2e6:	2200      	movs	r2, #0
     2e8:	4904      	ldr	r1, [pc, #16]	; (2fc <ADC_0_init+0x20>)
     2ea:	4805      	ldr	r0, [pc, #20]	; (300 <ADC_0_init+0x24>)
     2ec:	4b05      	ldr	r3, [pc, #20]	; (304 <ADC_0_init+0x28>)
     2ee:	4798      	blx	r3
}
     2f0:	bd10      	pop	{r4, pc}
     2f2:	46c0      	nop			; (mov r8, r8)
     2f4:	000002bd 	.word	0x000002bd
     2f8:	00000255 	.word	0x00000255
     2fc:	42004000 	.word	0x42004000
     300:	2000020c 	.word	0x2000020c
     304:	000003d1 	.word	0x000003d1

00000308 <TARGET_IO_PORT_init>:

void TARGET_IO_PORT_init(void)
{
     308:	b530      	push	{r4, r5, lr}
	tmp = ((Port *)hw)->Group[submodule_index].PINCFG[index].reg;
     30a:	4b0f      	ldr	r3, [pc, #60]	; (348 <TARGET_IO_PORT_init+0x40>)
     30c:	2256      	movs	r2, #86	; 0x56
     30e:	5c99      	ldrb	r1, [r3, r2]
	tmp &= ~PORT_PINCFG_PMUXEN;
     310:	2501      	movs	r5, #1
     312:	43a9      	bics	r1, r5
	tmp |= value << PORT_PINCFG_PMUXEN_Pos;
     314:	2401      	movs	r4, #1
     316:	4321      	orrs	r1, r4
     318:	b2c9      	uxtb	r1, r1
	((Port *)hw)->Group[submodule_index].PINCFG[index].reg = tmp;
     31a:	5499      	strb	r1, [r3, r2]
	tmp = ((Port *)hw)->Group[submodule_index].PMUX[index].reg;
     31c:	203b      	movs	r0, #59	; 0x3b
     31e:	5c19      	ldrb	r1, [r3, r0]
	tmp &= ~PORT_PMUX_PMUXE_Msk;
     320:	3a47      	subs	r2, #71	; 0x47
     322:	4391      	bics	r1, r2
	tmp |= PORT_PMUX_PMUXE(data);
     324:	2202      	movs	r2, #2
     326:	4311      	orrs	r1, r2
     328:	b2c9      	uxtb	r1, r1
	((Port *)hw)->Group[submodule_index].PMUX[index].reg = tmp;
     32a:	5419      	strb	r1, [r3, r0]
	tmp = ((Port *)hw)->Group[submodule_index].PINCFG[index].reg;
     32c:	2157      	movs	r1, #87	; 0x57
     32e:	5c5a      	ldrb	r2, [r3, r1]
	tmp &= ~PORT_PINCFG_PMUXEN;
     330:	43aa      	bics	r2, r5
	tmp |= value << PORT_PINCFG_PMUXEN_Pos;
     332:	4322      	orrs	r2, r4
     334:	b2d2      	uxtb	r2, r2
	((Port *)hw)->Group[submodule_index].PINCFG[index].reg = tmp;
     336:	545a      	strb	r2, [r3, r1]
	tmp = ((Port *)hw)->Group[submodule_index].PMUX[index].reg;
     338:	5c1a      	ldrb	r2, [r3, r0]
	tmp &= ~PORT_PMUX_PMUXO_Msk;
     33a:	3948      	subs	r1, #72	; 0x48
     33c:	400a      	ands	r2, r1
	tmp |= PORT_PMUX_PMUXO(data);
     33e:	2120      	movs	r1, #32
     340:	430a      	orrs	r2, r1
     342:	b2d2      	uxtb	r2, r2
	((Port *)hw)->Group[submodule_index].PMUX[index].reg = tmp;
     344:	541a      	strb	r2, [r3, r0]

	gpio_set_pin_function(PA22, PINMUX_PA22C_SERCOM3_PAD0);

	gpio_set_pin_function(PA23, PINMUX_PA23C_SERCOM3_PAD1);
}
     346:	bd30      	pop	{r4, r5, pc}
     348:	41004400 	.word	0x41004400

0000034c <TARGET_IO_CLOCK_init>:
     34c:	4a04      	ldr	r2, [pc, #16]	; (360 <TARGET_IO_CLOCK_init+0x14>)
     34e:	6a13      	ldr	r3, [r2, #32]
     350:	2120      	movs	r1, #32
     352:	430b      	orrs	r3, r1
     354:	6213      	str	r3, [r2, #32]
     356:	4a03      	ldr	r2, [pc, #12]	; (364 <TARGET_IO_CLOCK_init+0x18>)
     358:	4b03      	ldr	r3, [pc, #12]	; (368 <TARGET_IO_CLOCK_init+0x1c>)
     35a:	805a      	strh	r2, [r3, #2]

void TARGET_IO_CLOCK_init(void)
{
	_pm_enable_bus_clock(PM_BUS_APBC, SERCOM3);
	_gclk_enable_channel(SERCOM3_GCLK_ID_CORE, CONF_GCLK_SERCOM3_CORE_SRC);
}
     35c:	4770      	bx	lr
     35e:	46c0      	nop			; (mov r8, r8)
     360:	40000400 	.word	0x40000400
     364:	00004017 	.word	0x00004017
     368:	40000c00 	.word	0x40000c00

0000036c <TARGET_IO_init>:

void TARGET_IO_init(void)
{
     36c:	b510      	push	{r4, lr}
	TARGET_IO_CLOCK_init();
     36e:	4b05      	ldr	r3, [pc, #20]	; (384 <TARGET_IO_init+0x18>)
     370:	4798      	blx	r3
	usart_sync_init(&TARGET_IO, SERCOM3, (void *)NULL);
     372:	2200      	movs	r2, #0
     374:	4904      	ldr	r1, [pc, #16]	; (388 <TARGET_IO_init+0x1c>)
     376:	4805      	ldr	r0, [pc, #20]	; (38c <TARGET_IO_init+0x20>)
     378:	4b05      	ldr	r3, [pc, #20]	; (390 <TARGET_IO_init+0x24>)
     37a:	4798      	blx	r3
	TARGET_IO_PORT_init();
     37c:	4b05      	ldr	r3, [pc, #20]	; (394 <TARGET_IO_init+0x28>)
     37e:	4798      	blx	r3
}
     380:	bd10      	pop	{r4, pc}
     382:	46c0      	nop			; (mov r8, r8)
     384:	0000034d 	.word	0x0000034d
     388:	42001400 	.word	0x42001400
     38c:	20000200 	.word	0x20000200
     390:	00000669 	.word	0x00000669
     394:	00000309 	.word	0x00000309

00000398 <delay_driver_init>:

void delay_driver_init(void)
{
     398:	b510      	push	{r4, lr}
	delay_init(SysTick);
     39a:	4802      	ldr	r0, [pc, #8]	; (3a4 <delay_driver_init+0xc>)
     39c:	4b02      	ldr	r3, [pc, #8]	; (3a8 <delay_driver_init+0x10>)
     39e:	4798      	blx	r3
}
     3a0:	bd10      	pop	{r4, pc}
     3a2:	46c0      	nop			; (mov r8, r8)
     3a4:	e000e010 	.word	0xe000e010
     3a8:	000004e5 	.word	0x000004e5

000003ac <system_init>:

void system_init(void)
{
     3ac:	b510      	push	{r4, lr}
 * Currently the following initialization functions are supported:
 *  - System clock initialization
 */
static inline void init_mcu(void)
{
	_init_chip();
     3ae:	4b04      	ldr	r3, [pc, #16]	; (3c0 <system_init+0x14>)
     3b0:	4798      	blx	r3
	init_mcu();

	ADC_0_init();
     3b2:	4b04      	ldr	r3, [pc, #16]	; (3c4 <system_init+0x18>)
     3b4:	4798      	blx	r3

	TARGET_IO_init();
     3b6:	4b04      	ldr	r3, [pc, #16]	; (3c8 <system_init+0x1c>)
     3b8:	4798      	blx	r3

	delay_driver_init();
     3ba:	4b04      	ldr	r3, [pc, #16]	; (3cc <system_init+0x20>)
     3bc:	4798      	blx	r3
}
     3be:	bd10      	pop	{r4, pc}
     3c0:	0000090d 	.word	0x0000090d
     3c4:	000002dd 	.word	0x000002dd
     3c8:	0000036d 	.word	0x0000036d
     3cc:	00000399 	.word	0x00000399

000003d0 <adc_sync_init>:

/**
 * \brief Initialize ADC
 */
int32_t adc_sync_init(struct adc_sync_descriptor *const descr, void *const hw, void *const func)
{
     3d0:	b570      	push	{r4, r5, r6, lr}
     3d2:	0004      	movs	r4, r0
     3d4:	000d      	movs	r5, r1
	ASSERT(descr && hw);
     3d6:	2800      	cmp	r0, #0
     3d8:	d00d      	beq.n	3f6 <adc_sync_init+0x26>
     3da:	2900      	cmp	r1, #0
     3dc:	d009      	beq.n	3f2 <adc_sync_init+0x22>
     3de:	2001      	movs	r0, #1
     3e0:	2239      	movs	r2, #57	; 0x39
     3e2:	4906      	ldr	r1, [pc, #24]	; (3fc <adc_sync_init+0x2c>)
     3e4:	4b06      	ldr	r3, [pc, #24]	; (400 <adc_sync_init+0x30>)
     3e6:	4798      	blx	r3

	return _adc_sync_init(&descr->device, hw);
     3e8:	0029      	movs	r1, r5
     3ea:	0020      	movs	r0, r4
     3ec:	4b05      	ldr	r3, [pc, #20]	; (404 <adc_sync_init+0x34>)
     3ee:	4798      	blx	r3
}
     3f0:	bd70      	pop	{r4, r5, r6, pc}
	ASSERT(descr && hw);
     3f2:	2000      	movs	r0, #0
     3f4:	e7f4      	b.n	3e0 <adc_sync_init+0x10>
     3f6:	2000      	movs	r0, #0
     3f8:	e7f2      	b.n	3e0 <adc_sync_init+0x10>
     3fa:	46c0      	nop			; (mov r8, r8)
     3fc:	0000556c 	.word	0x0000556c
     400:	000006e1 	.word	0x000006e1
     404:	00000871 	.word	0x00000871

00000408 <adc_sync_enable_channel>:

/**
 * \brief Enable ADC
 */
int32_t adc_sync_enable_channel(struct adc_sync_descriptor *const descr, const uint8_t channel)
{
     408:	b570      	push	{r4, r5, r6, lr}
     40a:	0004      	movs	r4, r0
     40c:	000d      	movs	r5, r1
	ASSERT(descr);
     40e:	1e43      	subs	r3, r0, #1
     410:	4198      	sbcs	r0, r3
     412:	b2c0      	uxtb	r0, r0
     414:	224e      	movs	r2, #78	; 0x4e
     416:	4904      	ldr	r1, [pc, #16]	; (428 <adc_sync_enable_channel+0x20>)
     418:	4b04      	ldr	r3, [pc, #16]	; (42c <adc_sync_enable_channel+0x24>)
     41a:	4798      	blx	r3
	_adc_sync_enable_channel(&descr->device, channel);
     41c:	0029      	movs	r1, r5
     41e:	0020      	movs	r0, r4
     420:	4b03      	ldr	r3, [pc, #12]	; (430 <adc_sync_enable_channel+0x28>)
     422:	4798      	blx	r3

	return ERR_NONE;
}
     424:	2000      	movs	r0, #0
     426:	bd70      	pop	{r4, r5, r6, pc}
     428:	0000556c 	.word	0x0000556c
     42c:	000006e1 	.word	0x000006e1
     430:	000008a9 	.word	0x000008a9

00000434 <adc_sync_read_channel>:
/*
 * \brief Read data from ADC
 */
int32_t adc_sync_read_channel(struct adc_sync_descriptor *const descr, const uint8_t channel, uint8_t *const buffer,
                              const uint16_t length)
{
     434:	b5f8      	push	{r3, r4, r5, r6, r7, lr}
     436:	46ce      	mov	lr, r9
     438:	4647      	mov	r7, r8
     43a:	b580      	push	{r7, lr}
     43c:	0006      	movs	r6, r0
     43e:	000d      	movs	r5, r1
     440:	4690      	mov	r8, r2
     442:	4699      	mov	r9, r3
	uint8_t  data_size;
	uint16_t offset = 0;

	ASSERT(descr && buffer && length);
     444:	2800      	cmp	r0, #0
     446:	d01a      	beq.n	47e <adc_sync_read_channel+0x4a>
     448:	2a00      	cmp	r2, #0
     44a:	d01a      	beq.n	482 <adc_sync_read_channel+0x4e>
     44c:	464b      	mov	r3, r9
     44e:	2b00      	cmp	r3, #0
     450:	d119      	bne.n	486 <adc_sync_read_channel+0x52>
     452:	2000      	movs	r0, #0
     454:	2267      	movs	r2, #103	; 0x67
     456:	491c      	ldr	r1, [pc, #112]	; (4c8 <adc_sync_read_channel+0x94>)
     458:	4f1c      	ldr	r7, [pc, #112]	; (4cc <adc_sync_read_channel+0x98>)
     45a:	47b8      	blx	r7
	data_size = _adc_sync_get_data_size(&descr->device);
     45c:	0034      	movs	r4, r6
     45e:	0030      	movs	r0, r6
     460:	4b1b      	ldr	r3, [pc, #108]	; (4d0 <adc_sync_read_channel+0x9c>)
     462:	4798      	blx	r3
     464:	0001      	movs	r1, r0
     466:	0006      	movs	r6, r0
	ASSERT(!(length % data_size));
     468:	4648      	mov	r0, r9
     46a:	4b1a      	ldr	r3, [pc, #104]	; (4d4 <adc_sync_read_channel+0xa0>)
     46c:	4798      	blx	r3
     46e:	4248      	negs	r0, r1
     470:	4148      	adcs	r0, r1
     472:	b2c0      	uxtb	r0, r0
     474:	2269      	movs	r2, #105	; 0x69
     476:	4914      	ldr	r1, [pc, #80]	; (4c8 <adc_sync_read_channel+0x94>)
     478:	47b8      	blx	r7
	uint16_t offset = 0;
     47a:	2700      	movs	r7, #0
     47c:	e009      	b.n	492 <adc_sync_read_channel+0x5e>
	ASSERT(descr && buffer && length);
     47e:	2000      	movs	r0, #0
     480:	e7e8      	b.n	454 <adc_sync_read_channel+0x20>
     482:	2000      	movs	r0, #0
     484:	e7e6      	b.n	454 <adc_sync_read_channel+0x20>
     486:	2001      	movs	r0, #1
     488:	e7e4      	b.n	454 <adc_sync_read_channel+0x20>
		result         = _adc_sync_read_channel_data(&descr->device, channel);
		buffer[offset] = result;
		if (1 < data_size) {
			buffer[offset + 1] = result >> 8;
		}
		offset += data_size;
     48a:	19bf      	adds	r7, r7, r6
     48c:	b2bf      	uxth	r7, r7
	} while (offset < length);
     48e:	45b9      	cmp	r9, r7
     490:	d915      	bls.n	4be <adc_sync_read_channel+0x8a>
		_adc_sync_convert(&descr->device);
     492:	0020      	movs	r0, r4
     494:	4b10      	ldr	r3, [pc, #64]	; (4d8 <adc_sync_read_channel+0xa4>)
     496:	4798      	blx	r3
		while (!_adc_sync_is_channel_conversion_done(&descr->device, channel))
     498:	0029      	movs	r1, r5
     49a:	0020      	movs	r0, r4
     49c:	4b0f      	ldr	r3, [pc, #60]	; (4dc <adc_sync_read_channel+0xa8>)
     49e:	4798      	blx	r3
     4a0:	2800      	cmp	r0, #0
     4a2:	d0f9      	beq.n	498 <adc_sync_read_channel+0x64>
		result         = _adc_sync_read_channel_data(&descr->device, channel);
     4a4:	0029      	movs	r1, r5
     4a6:	0020      	movs	r0, r4
     4a8:	4b0d      	ldr	r3, [pc, #52]	; (4e0 <adc_sync_read_channel+0xac>)
     4aa:	4798      	blx	r3
		buffer[offset] = result;
     4ac:	4643      	mov	r3, r8
     4ae:	55d8      	strb	r0, [r3, r7]
		if (1 < data_size) {
     4b0:	2e01      	cmp	r6, #1
     4b2:	d9ea      	bls.n	48a <adc_sync_read_channel+0x56>
			buffer[offset + 1] = result >> 8;
     4b4:	1c7b      	adds	r3, r7, #1
     4b6:	0a00      	lsrs	r0, r0, #8
     4b8:	4642      	mov	r2, r8
     4ba:	54d0      	strb	r0, [r2, r3]
     4bc:	e7e5      	b.n	48a <adc_sync_read_channel+0x56>

	return offset;
}
     4be:	0038      	movs	r0, r7
     4c0:	bc0c      	pop	{r2, r3}
     4c2:	4690      	mov	r8, r2
     4c4:	4699      	mov	r9, r3
     4c6:	bdf8      	pop	{r3, r4, r5, r6, r7, pc}
     4c8:	0000556c 	.word	0x0000556c
     4cc:	000006e1 	.word	0x000006e1
     4d0:	000008b7 	.word	0x000008b7
     4d4:	00003959 	.word	0x00003959
     4d8:	000008dd 	.word	0x000008dd
     4dc:	000008d3 	.word	0x000008d3
     4e0:	000008f1 	.word	0x000008f1

000004e4 <delay_init>:

/**
 * \brief Initialize Delay driver
 */
void delay_init(void *const hw)
{
     4e4:	b510      	push	{r4, lr}
	_delay_init(hardware = hw);
     4e6:	4b02      	ldr	r3, [pc, #8]	; (4f0 <delay_init+0xc>)
     4e8:	6018      	str	r0, [r3, #0]
     4ea:	4b02      	ldr	r3, [pc, #8]	; (4f4 <delay_init+0x10>)
     4ec:	4798      	blx	r3
}
     4ee:	bd10      	pop	{r4, pc}
     4f0:	200001ec 	.word	0x200001ec
     4f4:	00000b99 	.word	0x00000b99

000004f8 <delay_ms>:

/**
 * \brief Perform delay in ms
 */
void delay_ms(const uint16_t ms)
{
     4f8:	b510      	push	{r4, lr}
	_delay_cycles(hardware, _get_cycles_for_ms(ms));
     4fa:	4b04      	ldr	r3, [pc, #16]	; (50c <delay_ms+0x14>)
     4fc:	681c      	ldr	r4, [r3, #0]
     4fe:	4b04      	ldr	r3, [pc, #16]	; (510 <delay_ms+0x18>)
     500:	4798      	blx	r3
     502:	0001      	movs	r1, r0
     504:	0020      	movs	r0, r4
     506:	4b03      	ldr	r3, [pc, #12]	; (514 <delay_ms+0x1c>)
     508:	4798      	blx	r3
}
     50a:	bd10      	pop	{r4, pc}
     50c:	200001ec 	.word	0x200001ec
     510:	000008ff 	.word	0x000008ff
     514:	00000ba5 	.word	0x00000ba5

00000518 <io_write>:

/**
 * \brief I/O write interface
 */
int32_t io_write(struct io_descriptor *const io_descr, const uint8_t *const buf, const uint16_t length)
{
     518:	b570      	push	{r4, r5, r6, lr}
     51a:	0004      	movs	r4, r0
     51c:	000d      	movs	r5, r1
     51e:	0016      	movs	r6, r2
	ASSERT(io_descr && buf);
     520:	2800      	cmp	r0, #0
     522:	d00e      	beq.n	542 <io_write+0x2a>
     524:	2900      	cmp	r1, #0
     526:	d00a      	beq.n	53e <io_write+0x26>
     528:	2001      	movs	r0, #1
     52a:	2234      	movs	r2, #52	; 0x34
     52c:	4906      	ldr	r1, [pc, #24]	; (548 <io_write+0x30>)
     52e:	4b07      	ldr	r3, [pc, #28]	; (54c <io_write+0x34>)
     530:	4798      	blx	r3
	return io_descr->write(io_descr, buf, length);
     532:	6823      	ldr	r3, [r4, #0]
     534:	0032      	movs	r2, r6
     536:	0029      	movs	r1, r5
     538:	0020      	movs	r0, r4
     53a:	4798      	blx	r3
}
     53c:	bd70      	pop	{r4, r5, r6, pc}
	ASSERT(io_descr && buf);
     53e:	2000      	movs	r0, #0
     540:	e7f3      	b.n	52a <io_write+0x12>
     542:	2000      	movs	r0, #0
     544:	e7f1      	b.n	52a <io_write+0x12>
     546:	46c0      	nop			; (mov r8, r8)
     548:	00005588 	.word	0x00005588
     54c:	000006e1 	.word	0x000006e1

00000550 <io_read>:

/**
 * \brief I/O read interface
 */
int32_t io_read(struct io_descriptor *const io_descr, uint8_t *const buf, const uint16_t length)
{
     550:	b570      	push	{r4, r5, r6, lr}
     552:	0004      	movs	r4, r0
     554:	000d      	movs	r5, r1
     556:	0016      	movs	r6, r2
	ASSERT(io_descr && buf);
     558:	2800      	cmp	r0, #0
     55a:	d00e      	beq.n	57a <io_read+0x2a>
     55c:	2900      	cmp	r1, #0
     55e:	d00a      	beq.n	576 <io_read+0x26>
     560:	2001      	movs	r0, #1
     562:	223d      	movs	r2, #61	; 0x3d
     564:	4906      	ldr	r1, [pc, #24]	; (580 <io_read+0x30>)
     566:	4b07      	ldr	r3, [pc, #28]	; (584 <io_read+0x34>)
     568:	4798      	blx	r3
	return io_descr->read(io_descr, buf, length);
     56a:	6863      	ldr	r3, [r4, #4]
     56c:	0032      	movs	r2, r6
     56e:	0029      	movs	r1, r5
     570:	0020      	movs	r0, r4
     572:	4798      	blx	r3
}
     574:	bd70      	pop	{r4, r5, r6, pc}
	ASSERT(io_descr && buf);
     576:	2000      	movs	r0, #0
     578:	e7f3      	b.n	562 <io_read+0x12>
     57a:	2000      	movs	r0, #0
     57c:	e7f1      	b.n	562 <io_read+0x12>
     57e:	46c0      	nop			; (mov r8, r8)
     580:	00005588 	.word	0x00005588
     584:	000006e1 	.word	0x000006e1

00000588 <usart_sync_write>:
 * \param[in] length The number of bytes to write
 *
 * \return The number of bytes written.
 */
static int32_t usart_sync_write(struct io_descriptor *const io_descr, const uint8_t *const buf, const uint16_t length)
{
     588:	b5f8      	push	{r3, r4, r5, r6, r7, lr}
     58a:	0005      	movs	r5, r0
     58c:	000e      	movs	r6, r1
     58e:	0017      	movs	r7, r2
	uint32_t                      offset = 0;
	struct usart_sync_descriptor *descr  = CONTAINER_OF(io_descr, struct usart_sync_descriptor, io);

	ASSERT(io_descr && buf && length);
     590:	2800      	cmp	r0, #0
     592:	d023      	beq.n	5dc <usart_sync_write+0x54>
     594:	2900      	cmp	r1, #0
     596:	d023      	beq.n	5e0 <usart_sync_write+0x58>
     598:	2a00      	cmp	r2, #0
     59a:	d123      	bne.n	5e4 <usart_sync_write+0x5c>
     59c:	2000      	movs	r0, #0
     59e:	22f1      	movs	r2, #241	; 0xf1
     5a0:	4911      	ldr	r1, [pc, #68]	; (5e8 <usart_sync_write+0x60>)
     5a2:	4b12      	ldr	r3, [pc, #72]	; (5ec <usart_sync_write+0x64>)
     5a4:	4798      	blx	r3
	while (!_usart_sync_is_ready_to_send(&descr->device))
     5a6:	002c      	movs	r4, r5
     5a8:	3408      	adds	r4, #8
     5aa:	0020      	movs	r0, r4
     5ac:	4b10      	ldr	r3, [pc, #64]	; (5f0 <usart_sync_write+0x68>)
     5ae:	4798      	blx	r3
     5b0:	2800      	cmp	r0, #0
     5b2:	d0f8      	beq.n	5a6 <usart_sync_write+0x1e>
     5b4:	2500      	movs	r5, #0
		;
	do {
		_usart_sync_write_byte(&descr->device, buf[offset]);
     5b6:	5d71      	ldrb	r1, [r6, r5]
     5b8:	0020      	movs	r0, r4
     5ba:	4b0e      	ldr	r3, [pc, #56]	; (5f4 <usart_sync_write+0x6c>)
     5bc:	4798      	blx	r3
		while (!_usart_sync_is_ready_to_send(&descr->device))
     5be:	0020      	movs	r0, r4
     5c0:	4b0b      	ldr	r3, [pc, #44]	; (5f0 <usart_sync_write+0x68>)
     5c2:	4798      	blx	r3
     5c4:	2800      	cmp	r0, #0
     5c6:	d0fa      	beq.n	5be <usart_sync_write+0x36>
			;
	} while (++offset < length);
     5c8:	3501      	adds	r5, #1
     5ca:	42bd      	cmp	r5, r7
     5cc:	d3f3      	bcc.n	5b6 <usart_sync_write+0x2e>
	while (!_usart_sync_is_transmit_done(&descr->device))
     5ce:	0020      	movs	r0, r4
     5d0:	4b09      	ldr	r3, [pc, #36]	; (5f8 <usart_sync_write+0x70>)
     5d2:	4798      	blx	r3
     5d4:	2800      	cmp	r0, #0
     5d6:	d0fa      	beq.n	5ce <usart_sync_write+0x46>
		;
	return (int32_t)offset;
}
     5d8:	0028      	movs	r0, r5
     5da:	bdf8      	pop	{r3, r4, r5, r6, r7, pc}
	ASSERT(io_descr && buf && length);
     5dc:	2000      	movs	r0, #0
     5de:	e7de      	b.n	59e <usart_sync_write+0x16>
     5e0:	2000      	movs	r0, #0
     5e2:	e7dc      	b.n	59e <usart_sync_write+0x16>
     5e4:	2001      	movs	r0, #1
     5e6:	e7da      	b.n	59e <usart_sync_write+0x16>
     5e8:	0000559c 	.word	0x0000559c
     5ec:	000006e1 	.word	0x000006e1
     5f0:	00000b0f 	.word	0x00000b0f
     5f4:	00000aff 	.word	0x00000aff
     5f8:	00000b19 	.word	0x00000b19

000005fc <usart_sync_read>:
 * \param[in] length The size of a buffer
 *
 * \return The number of bytes read.
 */
static int32_t usart_sync_read(struct io_descriptor *const io_descr, uint8_t *const buf, const uint16_t length)
{
     5fc:	b5f8      	push	{r3, r4, r5, r6, r7, lr}
     5fe:	46ce      	mov	lr, r9
     600:	4647      	mov	r7, r8
     602:	b580      	push	{r7, lr}
     604:	1e05      	subs	r5, r0, #0
     606:	4688      	mov	r8, r1
     608:	4691      	mov	r9, r2
	uint32_t                      offset = 0;
	struct usart_sync_descriptor *descr  = CONTAINER_OF(io_descr, struct usart_sync_descriptor, io);

	ASSERT(io_descr && buf && length);
     60a:	d01f      	beq.n	64c <usart_sync_read+0x50>
     60c:	2900      	cmp	r1, #0
     60e:	d01f      	beq.n	650 <usart_sync_read+0x54>
     610:	2a00      	cmp	r2, #0
     612:	d11f      	bne.n	654 <usart_sync_read+0x58>
     614:	2000      	movs	r0, #0
     616:	2286      	movs	r2, #134	; 0x86
     618:	0052      	lsls	r2, r2, #1
     61a:	490f      	ldr	r1, [pc, #60]	; (658 <usart_sync_read+0x5c>)
     61c:	4b0f      	ldr	r3, [pc, #60]	; (65c <usart_sync_read+0x60>)
     61e:	4798      	blx	r3
	uint32_t                      offset = 0;
     620:	2600      	movs	r6, #0
	do {
		while (!_usart_sync_is_byte_received(&descr->device))
     622:	002c      	movs	r4, r5
     624:	3408      	adds	r4, #8
     626:	0020      	movs	r0, r4
     628:	4b0d      	ldr	r3, [pc, #52]	; (660 <usart_sync_read+0x64>)
     62a:	4798      	blx	r3
     62c:	2800      	cmp	r0, #0
     62e:	d0f8      	beq.n	622 <usart_sync_read+0x26>
			;
		buf[offset] = _usart_sync_read_byte(&descr->device);
     630:	4643      	mov	r3, r8
     632:	199f      	adds	r7, r3, r6
     634:	0020      	movs	r0, r4
     636:	4b0b      	ldr	r3, [pc, #44]	; (664 <usart_sync_read+0x68>)
     638:	4798      	blx	r3
     63a:	7038      	strb	r0, [r7, #0]
	} while (++offset < length);
     63c:	3601      	adds	r6, #1
     63e:	454e      	cmp	r6, r9
     640:	d3ef      	bcc.n	622 <usart_sync_read+0x26>

	return (int32_t)offset;
}
     642:	0030      	movs	r0, r6
     644:	bc0c      	pop	{r2, r3}
     646:	4690      	mov	r8, r2
     648:	4699      	mov	r9, r3
     64a:	bdf8      	pop	{r3, r4, r5, r6, r7, pc}
	ASSERT(io_descr && buf && length);
     64c:	2000      	movs	r0, #0
     64e:	e7e2      	b.n	616 <usart_sync_read+0x1a>
     650:	2000      	movs	r0, #0
     652:	e7e0      	b.n	616 <usart_sync_read+0x1a>
     654:	2001      	movs	r0, #1
     656:	e7de      	b.n	616 <usart_sync_read+0x1a>
     658:	0000559c 	.word	0x0000559c
     65c:	000006e1 	.word	0x000006e1
     660:	00000b25 	.word	0x00000b25
     664:	00000b07 	.word	0x00000b07

00000668 <usart_sync_init>:
{
     668:	b570      	push	{r4, r5, r6, lr}
     66a:	0004      	movs	r4, r0
     66c:	000d      	movs	r5, r1
	ASSERT(descr && hw);
     66e:	2800      	cmp	r0, #0
     670:	d014      	beq.n	69c <usart_sync_init+0x34>
     672:	2900      	cmp	r1, #0
     674:	d010      	beq.n	698 <usart_sync_init+0x30>
     676:	2001      	movs	r0, #1
     678:	2234      	movs	r2, #52	; 0x34
     67a:	4909      	ldr	r1, [pc, #36]	; (6a0 <usart_sync_init+0x38>)
     67c:	4b09      	ldr	r3, [pc, #36]	; (6a4 <usart_sync_init+0x3c>)
     67e:	4798      	blx	r3
	init_status = _usart_sync_init(&descr->device, hw);
     680:	0020      	movs	r0, r4
     682:	3008      	adds	r0, #8
     684:	0029      	movs	r1, r5
     686:	4b08      	ldr	r3, [pc, #32]	; (6a8 <usart_sync_init+0x40>)
     688:	4798      	blx	r3
	if (init_status) {
     68a:	2800      	cmp	r0, #0
     68c:	d103      	bne.n	696 <usart_sync_init+0x2e>
	descr->io.read  = usart_sync_read;
     68e:	4b07      	ldr	r3, [pc, #28]	; (6ac <usart_sync_init+0x44>)
     690:	6063      	str	r3, [r4, #4]
	descr->io.write = usart_sync_write;
     692:	4b07      	ldr	r3, [pc, #28]	; (6b0 <usart_sync_init+0x48>)
     694:	6023      	str	r3, [r4, #0]
}
     696:	bd70      	pop	{r4, r5, r6, pc}
	ASSERT(descr && hw);
     698:	2000      	movs	r0, #0
     69a:	e7ed      	b.n	678 <usart_sync_init+0x10>
     69c:	2000      	movs	r0, #0
     69e:	e7eb      	b.n	678 <usart_sync_init+0x10>
     6a0:	0000559c 	.word	0x0000559c
     6a4:	000006e1 	.word	0x000006e1
     6a8:	00000ac1 	.word	0x00000ac1
     6ac:	000005fd 	.word	0x000005fd
     6b0:	00000589 	.word	0x00000589

000006b4 <usart_sync_enable>:
{
     6b4:	b510      	push	{r4, lr}
     6b6:	0004      	movs	r4, r0
	ASSERT(descr);
     6b8:	1e43      	subs	r3, r0, #1
     6ba:	4198      	sbcs	r0, r3
     6bc:	b2c0      	uxtb	r0, r0
     6be:	2253      	movs	r2, #83	; 0x53
     6c0:	4904      	ldr	r1, [pc, #16]	; (6d4 <usart_sync_enable+0x20>)
     6c2:	4b05      	ldr	r3, [pc, #20]	; (6d8 <usart_sync_enable+0x24>)
     6c4:	4798      	blx	r3
	_usart_sync_enable(&descr->device);
     6c6:	0020      	movs	r0, r4
     6c8:	3008      	adds	r0, #8
     6ca:	4b04      	ldr	r3, [pc, #16]	; (6dc <usart_sync_enable+0x28>)
     6cc:	4798      	blx	r3
}
     6ce:	2000      	movs	r0, #0
     6d0:	bd10      	pop	{r4, pc}
     6d2:	46c0      	nop			; (mov r8, r8)
     6d4:	0000559c 	.word	0x0000559c
     6d8:	000006e1 	.word	0x000006e1
     6dc:	00000aed 	.word	0x00000aed

000006e0 <assert>:
/**
 * \brief Assert function
 */
void assert(const bool condition, const char *const file, const int line)
{
	if (!(condition)) {
     6e0:	2800      	cmp	r0, #0
     6e2:	d100      	bne.n	6e6 <assert+0x6>
		__asm("BKPT #0");
     6e4:	be00      	bkpt	0x0000
	}
	(void)file;
	(void)line;
}
     6e6:	4770      	bx	lr

000006e8 <_sbrk>:

/**
 * \brief Replacement of C library of _sbrk
 */
extern caddr_t _sbrk(int incr)
{
     6e8:	0003      	movs	r3, r0
	static unsigned char *heap = NULL;
	unsigned char *       prev_heap;

	if (heap == NULL) {
     6ea:	4a06      	ldr	r2, [pc, #24]	; (704 <_sbrk+0x1c>)
     6ec:	6812      	ldr	r2, [r2, #0]
     6ee:	2a00      	cmp	r2, #0
     6f0:	d004      	beq.n	6fc <_sbrk+0x14>
		heap = (unsigned char *)&_end;
	}
	prev_heap = heap;
     6f2:	4a04      	ldr	r2, [pc, #16]	; (704 <_sbrk+0x1c>)
     6f4:	6810      	ldr	r0, [r2, #0]

	heap += incr;
     6f6:	18c3      	adds	r3, r0, r3
     6f8:	6013      	str	r3, [r2, #0]

	return (caddr_t)prev_heap;
}
     6fa:	4770      	bx	lr
		heap = (unsigned char *)&_end;
     6fc:	4902      	ldr	r1, [pc, #8]	; (708 <_sbrk+0x20>)
     6fe:	4a01      	ldr	r2, [pc, #4]	; (704 <_sbrk+0x1c>)
     700:	6011      	str	r1, [r2, #0]
     702:	e7f6      	b.n	6f2 <_sbrk+0xa>
     704:	200001f0 	.word	0x200001f0
     708:	20002218 	.word	0x20002218

0000070c <_close>:
 */
extern int _close(int file)
{
	(void)file;
	return -1;
}
     70c:	2001      	movs	r0, #1
     70e:	4240      	negs	r0, r0
     710:	4770      	bx	lr

00000712 <_fstat>:
 * \brief Replacement of C library of _fstat
 */
extern int _fstat(int file, struct stat *st)
{
	(void)file;
	st->st_mode = S_IFCHR;
     712:	2380      	movs	r3, #128	; 0x80
     714:	019b      	lsls	r3, r3, #6
     716:	604b      	str	r3, [r1, #4]

	return 0;
}
     718:	2000      	movs	r0, #0
     71a:	4770      	bx	lr

0000071c <_isatty>:
 */
extern int _isatty(int file)
{
	(void)file;
	return 1;
}
     71c:	2001      	movs	r0, #1
     71e:	4770      	bx	lr

00000720 <_lseek>:
 */
extern int _lseek(int file, int ptr, int dir)
{
	(void)file, (void)ptr, (void)dir;
	return 0;
}
     720:	2000      	movs	r0, #0
     722:	4770      	bx	lr

00000724 <_adc_get_hardware_index>:
 */
static uint8_t _adc_get_hardware_index(const void *const hw)
{
	(void)hw;
	return 0;
}
     724:	2000      	movs	r0, #0
     726:	4770      	bx	lr

00000728 <_adc_get_regs>:
/** \brief Return the pointer to register settings of specific ADC
 *  \param[in] hw_addr The hardware register base address.
 *  \return Pointer to register settings of specific ADC.
 */
static uint8_t _adc_get_regs(const uint32_t hw_addr)
{
     728:	b510      	push	{r4, lr}
	uint8_t n = _adc_get_hardware_index((const void *)hw_addr);
     72a:	4b0b      	ldr	r3, [pc, #44]	; (758 <_adc_get_regs+0x30>)
     72c:	4798      	blx	r3
     72e:	0002      	movs	r2, r0
	uint8_t i;

	for (i = 0; i < sizeof(_adcs) / sizeof(struct adc_configuration); i++) {
     730:	2000      	movs	r0, #0
     732:	2800      	cmp	r0, #0
     734:	d006      	beq.n	744 <_adc_get_regs+0x1c>
		if (_adcs[i].number == n) {
			return i;
		}
	}

	ASSERT(false);
     736:	227f      	movs	r2, #127	; 0x7f
     738:	4908      	ldr	r1, [pc, #32]	; (75c <_adc_get_regs+0x34>)
     73a:	2000      	movs	r0, #0
     73c:	4b08      	ldr	r3, [pc, #32]	; (760 <_adc_get_regs+0x38>)
     73e:	4798      	blx	r3
	return 0;
     740:	2000      	movs	r0, #0
}
     742:	bd10      	pop	{r4, pc}
		if (_adcs[i].number == n) {
     744:	00c3      	lsls	r3, r0, #3
     746:	1a1b      	subs	r3, r3, r0
     748:	0099      	lsls	r1, r3, #2
     74a:	4b06      	ldr	r3, [pc, #24]	; (764 <_adc_get_regs+0x3c>)
     74c:	5ccb      	ldrb	r3, [r1, r3]
     74e:	429a      	cmp	r2, r3
     750:	d0f7      	beq.n	742 <_adc_get_regs+0x1a>
	for (i = 0; i < sizeof(_adcs) / sizeof(struct adc_configuration); i++) {
     752:	3001      	adds	r0, #1
     754:	b2c0      	uxtb	r0, r0
     756:	e7ec      	b.n	732 <_adc_get_regs+0xa>
     758:	00000725 	.word	0x00000725
     75c:	000055d4 	.word	0x000055d4
     760:	000006e1 	.word	0x000006e1
     764:	000055b8 	.word	0x000055b8

00000768 <_adc_init>:
 *
 * \param[in] hw The pointer to hardware instance
 * \param[in] i  The number of hardware instance
 */
static int32_t _adc_init(void *const hw, const uint8_t i)
{
     768:	b570      	push	{r4, r5, r6, lr}
     76a:	0004      	movs	r4, r0
     76c:	000d      	movs	r5, r1
	ASSERT(hw == ADC);
     76e:	4b3a      	ldr	r3, [pc, #232]	; (858 <_adc_init+0xf0>)
     770:	18c0      	adds	r0, r0, r3
     772:	4243      	negs	r3, r0
     774:	4158      	adcs	r0, r3
     776:	b2c0      	uxtb	r0, r0
     778:	2294      	movs	r2, #148	; 0x94
     77a:	4938      	ldr	r1, [pc, #224]	; (85c <_adc_init+0xf4>)
     77c:	4b38      	ldr	r3, [pc, #224]	; (860 <_adc_init+0xf8>)
     77e:	4798      	blx	r3

	uint16_t calib_reg;

	calib_reg = ADC_CALIB_BIAS_CAL((*(uint32_t *)ADC_FUSES_BIASCAL_ADDR >> ADC_FUSES_BIASCAL_Pos))
     780:	4b38      	ldr	r3, [pc, #224]	; (864 <_adc_init+0xfc>)
     782:	681a      	ldr	r2, [r3, #0]
     784:	08d2      	lsrs	r2, r2, #3
     786:	0212      	lsls	r2, r2, #8
     788:	23e0      	movs	r3, #224	; 0xe0
     78a:	00db      	lsls	r3, r3, #3
     78c:	401a      	ands	r2, r3
	            | ADC_CALIB_LINEARITY_CAL((*(uint64_t *)ADC_FUSES_LINEARITY_0_ADDR >> ADC_FUSES_LINEARITY_0_Pos));
     78e:	4936      	ldr	r1, [pc, #216]	; (868 <_adc_init+0x100>)
     790:	680b      	ldr	r3, [r1, #0]
     792:	6849      	ldr	r1, [r1, #4]
     794:	0149      	lsls	r1, r1, #5
     796:	0edb      	lsrs	r3, r3, #27
     798:	430b      	orrs	r3, r1
     79a:	21ff      	movs	r1, #255	; 0xff
     79c:	400b      	ands	r3, r1
	calib_reg = ADC_CALIB_BIAS_CAL((*(uint32_t *)ADC_FUSES_BIASCAL_ADDR >> ADC_FUSES_BIASCAL_Pos))
     79e:	431a      	orrs	r2, r3
typedef uint8_t  hri_adc_swtrig_reg_t;
typedef uint8_t  hri_adc_winctrl_reg_t;

static inline void hri_adc_wait_for_sync(const void *const hw)
{
	while (((const Adc *)hw)->STATUS.bit.SYNCBUSY)
     7a0:	7e63      	ldrb	r3, [r4, #25]
     7a2:	09db      	lsrs	r3, r3, #7
     7a4:	d1fc      	bne.n	7a0 <_adc_init+0x38>
}

static inline hri_adc_ctrla_reg_t hri_adc_get_CTRLA_reg(const void *const hw, hri_adc_ctrla_reg_t mask)
{
	uint8_t tmp;
	tmp = ((Adc *)hw)->CTRLA.reg;
     7a6:	7823      	ldrb	r3, [r4, #0]

	hri_adc_wait_for_sync(hw);
	if (hri_adc_get_CTRLA_reg(hw, ADC_CTRLA_ENABLE)) {
     7a8:	079b      	lsls	r3, r3, #30
     7aa:	d504      	bpl.n	7b6 <_adc_init+0x4e>
}

static inline void hri_adc_write_CTRLA_reg(const void *const hw, hri_adc_ctrla_reg_t data)
{
	ADC_CRITICAL_SECTION_ENTER();
	((Adc *)hw)->CTRLA.reg = data;
     7ac:	2300      	movs	r3, #0
     7ae:	7023      	strb	r3, [r4, #0]
	while (((const Adc *)hw)->STATUS.bit.SYNCBUSY)
     7b0:	7e63      	ldrb	r3, [r4, #25]
     7b2:	09db      	lsrs	r3, r3, #7
     7b4:	d1fc      	bne.n	7b0 <_adc_init+0x48>
	((Adc *)hw)->CTRLA.reg = data;
     7b6:	2301      	movs	r3, #1
     7b8:	7023      	strb	r3, [r4, #0]
	while (((const Adc *)hw)->STATUS.bit.SYNCBUSY)
     7ba:	7e63      	ldrb	r3, [r4, #25]
     7bc:	09db      	lsrs	r3, r3, #7
     7be:	d1fc      	bne.n	7ba <_adc_init+0x52>
}

static inline void hri_adc_write_CALIB_reg(const void *const hw, hri_adc_calib_reg_t data)
{
	ADC_CRITICAL_SECTION_ENTER();
	((Adc *)hw)->CALIB.reg = data;
     7c0:	8522      	strh	r2, [r4, #40]	; 0x28
	}
	hri_adc_write_CTRLA_reg(hw, ADC_CTRLA_SWRST);
	hri_adc_wait_for_sync(hw);

	hri_adc_write_CALIB_reg(hw, calib_reg);
	hri_adc_write_REFCTRL_reg(hw, _adcs[i].ref_ctrl);
     7c2:	00ea      	lsls	r2, r5, #3
     7c4:	1b52      	subs	r2, r2, r5
     7c6:	0091      	lsls	r1, r2, #2
     7c8:	4b28      	ldr	r3, [pc, #160]	; (86c <_adc_init+0x104>)
     7ca:	185b      	adds	r3, r3, r1
     7cc:	789a      	ldrb	r2, [r3, #2]
	((Adc *)hw)->REFCTRL.reg = data;
     7ce:	7062      	strb	r2, [r4, #1]
	hri_adc_write_AVGCTRL_reg(hw, _adcs[i].avg_ctrl);
     7d0:	78da      	ldrb	r2, [r3, #3]
	((Adc *)hw)->AVGCTRL.reg = data;
     7d2:	70a2      	strb	r2, [r4, #2]
	hri_adc_write_SAMPCTRL_reg(hw, _adcs[i].samp_ctrl);
     7d4:	791a      	ldrb	r2, [r3, #4]
	((Adc *)hw)->SAMPCTRL.reg = data;
     7d6:	70e2      	strb	r2, [r4, #3]
	hri_adc_write_EVCTRL_reg(hw, _adcs[i].ev_ctrl);
     7d8:	7c1a      	ldrb	r2, [r3, #16]
	((Adc *)hw)->EVCTRL.reg = data;
     7da:	7522      	strb	r2, [r4, #20]
	hri_adc_write_GAINCORR_reg(hw, _adcs[i].gain_corr);
     7dc:	8ada      	ldrh	r2, [r3, #22]
	((Adc *)hw)->GAINCORR.reg = data;
     7de:	84a2      	strh	r2, [r4, #36]	; 0x24
	hri_adc_write_OFFSETCORR_reg(hw, _adcs[i].offset_corr);
     7e0:	8b1a      	ldrh	r2, [r3, #24]
	((Adc *)hw)->OFFSETCORR.reg = data;
     7e2:	84e2      	strh	r2, [r4, #38]	; 0x26
	hri_adc_write_DBGCTRL_reg(hw, _adcs[i].dbg_ctrl);
     7e4:	7e99      	ldrb	r1, [r3, #26]
}

static inline void hri_adc_write_DBGCTRL_reg(const void *const hw, hri_adc_dbgctrl_reg_t data)
{
	ADC_CRITICAL_SECTION_ENTER();
	((Adc *)hw)->DBGCTRL.reg = data;
     7e6:	222a      	movs	r2, #42	; 0x2a
     7e8:	54a1      	strb	r1, [r4, r2]
	hri_adc_write_CTRLB_reg(hw, _adcs[i].ctrl_b);
     7ea:	88db      	ldrh	r3, [r3, #6]
	((Adc *)hw)->CTRLB.reg = data;
     7ec:	80a3      	strh	r3, [r4, #4]
	while (((const Adc *)hw)->STATUS.bit.SYNCBUSY)
     7ee:	7e63      	ldrb	r3, [r4, #25]
     7f0:	09db      	lsrs	r3, r3, #7
     7f2:	d1fc      	bne.n	7ee <_adc_init+0x86>
	hri_adc_write_INPUTCTRL_reg(hw, _adcs[i].input_ctrl);
     7f4:	00eb      	lsls	r3, r5, #3
     7f6:	1b5b      	subs	r3, r3, r5
     7f8:	009a      	lsls	r2, r3, #2
     7fa:	4b1c      	ldr	r3, [pc, #112]	; (86c <_adc_init+0x104>)
     7fc:	189b      	adds	r3, r3, r2
     7fe:	68db      	ldr	r3, [r3, #12]
	((Adc *)hw)->INPUTCTRL.reg = data;
     800:	6123      	str	r3, [r4, #16]
	while (((const Adc *)hw)->STATUS.bit.SYNCBUSY)
     802:	7e63      	ldrb	r3, [r4, #25]
     804:	09db      	lsrs	r3, r3, #7
     806:	d1fc      	bne.n	802 <_adc_init+0x9a>
	hri_adc_write_WINCTRL_reg(hw, _adcs[i].win_ctrl);
     808:	00eb      	lsls	r3, r5, #3
     80a:	1b5b      	subs	r3, r3, r5
     80c:	009a      	lsls	r2, r3, #2
     80e:	4b17      	ldr	r3, [pc, #92]	; (86c <_adc_init+0x104>)
     810:	189b      	adds	r3, r3, r2
     812:	7a1b      	ldrb	r3, [r3, #8]
	((Adc *)hw)->WINCTRL.reg = data;
     814:	7223      	strb	r3, [r4, #8]
	while (((const Adc *)hw)->STATUS.bit.SYNCBUSY)
     816:	7e63      	ldrb	r3, [r4, #25]
     818:	09db      	lsrs	r3, r3, #7
     81a:	d1fc      	bne.n	816 <_adc_init+0xae>
	hri_adc_write_WINLT_reg(hw, _adcs[i].win_lt);
     81c:	00eb      	lsls	r3, r5, #3
     81e:	1b5b      	subs	r3, r3, r5
     820:	009a      	lsls	r2, r3, #2
     822:	4b12      	ldr	r3, [pc, #72]	; (86c <_adc_init+0x104>)
     824:	189b      	adds	r3, r3, r2
     826:	8a5b      	ldrh	r3, [r3, #18]
	((Adc *)hw)->WINLT.reg = data;
     828:	83a3      	strh	r3, [r4, #28]
	while (((const Adc *)hw)->STATUS.bit.SYNCBUSY)
     82a:	7e63      	ldrb	r3, [r4, #25]
     82c:	09db      	lsrs	r3, r3, #7
     82e:	d1fc      	bne.n	82a <_adc_init+0xc2>
	hri_adc_write_WINUT_reg(hw, _adcs[i].win_ut);
     830:	00eb      	lsls	r3, r5, #3
     832:	1b5b      	subs	r3, r3, r5
     834:	009a      	lsls	r2, r3, #2
     836:	4b0d      	ldr	r3, [pc, #52]	; (86c <_adc_init+0x104>)
     838:	189b      	adds	r3, r3, r2
     83a:	8a9b      	ldrh	r3, [r3, #20]
	((Adc *)hw)->WINUT.reg = data;
     83c:	8423      	strh	r3, [r4, #32]
	while (((const Adc *)hw)->STATUS.bit.SYNCBUSY)
     83e:	7e63      	ldrb	r3, [r4, #25]
     840:	09db      	lsrs	r3, r3, #7
     842:	d1fc      	bne.n	83e <_adc_init+0xd6>
	hri_adc_write_CTRLA_reg(hw, _adcs[i].ctrl_a);
     844:	00eb      	lsls	r3, r5, #3
     846:	1b5d      	subs	r5, r3, r5
     848:	00aa      	lsls	r2, r5, #2
     84a:	4b08      	ldr	r3, [pc, #32]	; (86c <_adc_init+0x104>)
     84c:	189b      	adds	r3, r3, r2
     84e:	785b      	ldrb	r3, [r3, #1]
	((Adc *)hw)->CTRLA.reg = data;
     850:	7023      	strb	r3, [r4, #0]

	return ERR_NONE;
}
     852:	2000      	movs	r0, #0
     854:	bd70      	pop	{r4, r5, r6, pc}
     856:	46c0      	nop			; (mov r8, r8)
     858:	bdffc000 	.word	0xbdffc000
     85c:	000055d4 	.word	0x000055d4
     860:	000006e1 	.word	0x000006e1
     864:	00806024 	.word	0x00806024
     868:	00806020 	.word	0x00806020
     86c:	000055b8 	.word	0x000055b8

00000870 <_adc_sync_init>:

/**
 * \brief Initialize ADC
 */
int32_t _adc_sync_init(struct _adc_sync_device *const device, void *const hw)
{
     870:	b570      	push	{r4, r5, r6, lr}
     872:	0005      	movs	r5, r0
     874:	000c      	movs	r4, r1
	ASSERT(device);
     876:	1e43      	subs	r3, r0, #1
     878:	4198      	sbcs	r0, r3
     87a:	b2c0      	uxtb	r0, r0
     87c:	22c5      	movs	r2, #197	; 0xc5
     87e:	4906      	ldr	r1, [pc, #24]	; (898 <_adc_sync_init+0x28>)
     880:	4b06      	ldr	r3, [pc, #24]	; (89c <_adc_sync_init+0x2c>)
     882:	4798      	blx	r3

	device->hw = hw;
     884:	602c      	str	r4, [r5, #0]

	return _adc_init(hw, _adc_get_regs((uint32_t)hw));
     886:	0020      	movs	r0, r4
     888:	4b05      	ldr	r3, [pc, #20]	; (8a0 <_adc_sync_init+0x30>)
     88a:	4798      	blx	r3
     88c:	0001      	movs	r1, r0
     88e:	0020      	movs	r0, r4
     890:	4b04      	ldr	r3, [pc, #16]	; (8a4 <_adc_sync_init+0x34>)
     892:	4798      	blx	r3
}
     894:	bd70      	pop	{r4, r5, r6, pc}
     896:	46c0      	nop			; (mov r8, r8)
     898:	000055d4 	.word	0x000055d4
     89c:	000006e1 	.word	0x000006e1
     8a0:	00000729 	.word	0x00000729
     8a4:	00000769 	.word	0x00000769

000008a8 <_adc_sync_enable_channel>:
 */
void _adc_sync_enable_channel(struct _adc_sync_device *const device, const uint8_t channel)
{
	(void)channel;

	hri_adc_set_CTRLA_ENABLE_bit(device->hw);
     8a8:	6802      	ldr	r2, [r0, #0]
	((Adc *)hw)->CTRLA.reg |= ADC_CTRLA_ENABLE;
     8aa:	7813      	ldrb	r3, [r2, #0]
     8ac:	2102      	movs	r1, #2
     8ae:	430b      	orrs	r3, r1
     8b0:	b2db      	uxtb	r3, r3
     8b2:	7013      	strb	r3, [r2, #0]
}
     8b4:	4770      	bx	lr

000008b6 <_adc_sync_get_data_size>:
/**
 * \brief Retrieve ADC conversion data size
 */
uint8_t _adc_sync_get_data_size(const struct _adc_sync_device *const device)
{
	return hri_adc_read_CTRLB_RESSEL_bf(device->hw) == ADC_CTRLB_RESSEL_8BIT_Val ? 1 : 2;
     8b6:	6802      	ldr	r2, [r0, #0]
	while (((const Adc *)hw)->STATUS.bit.SYNCBUSY)
     8b8:	7e53      	ldrb	r3, [r2, #25]
     8ba:	09db      	lsrs	r3, r3, #7
     8bc:	d1fc      	bne.n	8b8 <_adc_sync_get_data_size+0x2>
	tmp = ((Adc *)hw)->CTRLB.reg;
     8be:	8892      	ldrh	r2, [r2, #4]
	tmp = (tmp & ADC_CTRLB_RESSEL_Msk) >> ADC_CTRLB_RESSEL_Pos;
     8c0:	0912      	lsrs	r2, r2, #4
     8c2:	3303      	adds	r3, #3
     8c4:	4013      	ands	r3, r2
     8c6:	2b03      	cmp	r3, #3
     8c8:	d001      	beq.n	8ce <_adc_sync_get_data_size+0x18>
     8ca:	2002      	movs	r0, #2
}
     8cc:	4770      	bx	lr
	return hri_adc_read_CTRLB_RESSEL_bf(device->hw) == ADC_CTRLB_RESSEL_8BIT_Val ? 1 : 2;
     8ce:	2001      	movs	r0, #1
     8d0:	e7fc      	b.n	8cc <_adc_sync_get_data_size+0x16>

000008d2 <_adc_sync_is_channel_conversion_done>:
 */
bool _adc_sync_is_channel_conversion_done(const struct _adc_sync_device *const device, const uint8_t channel)
{
	(void)channel;

	return hri_adc_get_interrupt_RESRDY_bit(device->hw);
     8d2:	6803      	ldr	r3, [r0, #0]
	return (((Adc *)hw)->INTFLAG.reg & ADC_INTFLAG_RESRDY) >> ADC_INTFLAG_RESRDY_Pos;
     8d4:	7e18      	ldrb	r0, [r3, #24]
     8d6:	2301      	movs	r3, #1
     8d8:	4018      	ands	r0, r3
}
     8da:	4770      	bx	lr

000008dc <_adc_sync_convert>:
/**
 * \brief Make conversion
 */
void _adc_sync_convert(struct _adc_sync_device *const device)
{
	hri_adc_set_SWTRIG_START_bit(device->hw);
     8dc:	6802      	ldr	r2, [r0, #0]
	((Adc *)hw)->SWTRIG.reg |= ADC_SWTRIG_START;
     8de:	7b13      	ldrb	r3, [r2, #12]
     8e0:	2102      	movs	r1, #2
     8e2:	430b      	orrs	r3, r1
     8e4:	b2db      	uxtb	r3, r3
     8e6:	7313      	strb	r3, [r2, #12]
	while (((const Adc *)hw)->STATUS.bit.SYNCBUSY)
     8e8:	7e53      	ldrb	r3, [r2, #25]
     8ea:	09db      	lsrs	r3, r3, #7
     8ec:	d1fc      	bne.n	8e8 <_adc_sync_convert+0xc>
}
     8ee:	4770      	bx	lr

000008f0 <_adc_sync_read_channel_data>:
 */
uint16_t _adc_sync_read_channel_data(const struct _adc_sync_device *const device, const uint8_t channel)
{
	(void)channel;

	return hri_adc_read_RESULT_reg(device->hw);
     8f0:	6802      	ldr	r2, [r0, #0]
     8f2:	7e53      	ldrb	r3, [r2, #25]
     8f4:	09db      	lsrs	r3, r3, #7
     8f6:	d1fc      	bne.n	8f2 <_adc_sync_read_channel_data+0x2>
	return ((Adc *)hw)->RESULT.reg;
     8f8:	8b50      	ldrh	r0, [r2, #26]
     8fa:	b280      	uxth	r0, r0
}
     8fc:	4770      	bx	lr

000008fe <_get_cycles_for_ms>:
{
	switch (power) {
	case 8:
		return (ms * (freq / 100000)) * 100;
	case 7:
		return (ms * (freq / 10000)) * 10;
     8fe:	23c8      	movs	r3, #200	; 0xc8
     900:	009b      	lsls	r3, r3, #2
     902:	4358      	muls	r0, r3
     904:	0083      	lsls	r3, r0, #2
     906:	181b      	adds	r3, r3, r0
     908:	0058      	lsls	r0, r3, #1
 * \brief Retrieve the amount of cycles to delay for the given amount of ms
 */
uint32_t _get_cycles_for_ms(const uint16_t ms)
{
	return _get_cycles_for_ms_internal(ms, CONF_CPU_FREQUENCY, CPU_FREQ_POWER);
}
     90a:	4770      	bx	lr

0000090c <_init_chip>:

/**
 * \brief Initialize the hardware abstraction layer
 */
void _init_chip(void)
{
     90c:	b510      	push	{r4, lr}
}

static inline void hri_nvmctrl_set_CTRLB_RWS_bf(const void *const hw, hri_nvmctrl_ctrlb_reg_t mask)
{
	NVMCTRL_CRITICAL_SECTION_ENTER();
	((Nvmctrl *)hw)->CTRLB.reg |= NVMCTRL_CTRLB_RWS(mask);
     90e:	4b06      	ldr	r3, [pc, #24]	; (928 <_init_chip+0x1c>)
     910:	685a      	ldr	r2, [r3, #4]
     912:	605a      	str	r2, [r3, #4]
	hri_nvmctrl_set_CTRLB_RWS_bf(NVMCTRL, CONF_NVM_WAIT_STATE);

	_pm_init();
     914:	4b05      	ldr	r3, [pc, #20]	; (92c <_init_chip+0x20>)
     916:	4798      	blx	r3
	_sysctrl_init_sources();
     918:	4b05      	ldr	r3, [pc, #20]	; (930 <_init_chip+0x24>)
     91a:	4798      	blx	r3
#if _GCLK_INIT_1ST
	_gclk_init_generators_by_fref(_GCLK_INIT_1ST);
#endif
	_sysctrl_init_referenced_generators();
     91c:	4b05      	ldr	r3, [pc, #20]	; (934 <_init_chip+0x28>)
     91e:	4798      	blx	r3
	_gclk_init_generators_by_fref(_GCLK_INIT_LAST);
     920:	20ff      	movs	r0, #255	; 0xff
     922:	4b05      	ldr	r3, [pc, #20]	; (938 <_init_chip+0x2c>)
     924:	4798      	blx	r3
#if CONF_DMAC_ENABLE
	_pm_enable_bus_clock(PM_BUS_AHB, DMAC);
	_pm_enable_bus_clock(PM_BUS_APBB, DMAC);
	_dma_init();
#endif
}
     926:	bd10      	pop	{r4, pc}
     928:	41004000 	.word	0x41004000
     92c:	0000095d 	.word	0x0000095d
     930:	00000b31 	.word	0x00000b31
     934:	00000b75 	.word	0x00000b75
     938:	0000093d 	.word	0x0000093d

0000093c <_gclk_init_generators_by_fref>:

void _gclk_init_generators_by_fref(uint32_t bm)
{

#if CONF_GCLK_GENERATOR_0_CONFIG == 1
	if (bm & (1ul << 0)) {
     93c:	07c3      	lsls	r3, r0, #31
     93e:	d50a      	bpl.n	956 <_gclk_init_generators_by_fref+0x1a>
}

static inline void hri_gclk_write_GENDIV_reg(const void *const hw, hri_gclk_gendiv_reg_t data)
{
	GCLK_CRITICAL_SECTION_ENTER();
	((Gclk *)hw)->GENDIV.reg = data;
     940:	4b05      	ldr	r3, [pc, #20]	; (958 <_gclk_init_generators_by_fref+0x1c>)
     942:	2280      	movs	r2, #128	; 0x80
     944:	0052      	lsls	r2, r2, #1
     946:	609a      	str	r2, [r3, #8]
	((Gclk *)hw)->GENCTRL.reg = data;
     948:	2283      	movs	r2, #131	; 0x83
     94a:	0252      	lsls	r2, r2, #9
     94c:	605a      	str	r2, [r3, #4]
	while (((const Gclk *)hw)->STATUS.bit.SYNCBUSY)
     94e:	4b02      	ldr	r3, [pc, #8]	; (958 <_gclk_init_generators_by_fref+0x1c>)
     950:	785b      	ldrb	r3, [r3, #1]
     952:	09db      	lsrs	r3, r3, #7
     954:	d1fb      	bne.n	94e <_gclk_init_generators_by_fref+0x12>
		        | (CONF_GCLK_GEN_8_DIVSEL << GCLK_GENCTRL_DIVSEL_Pos) | (CONF_GCLK_GEN_8_OE << GCLK_GENCTRL_OE_Pos)
		        | (CONF_GCLK_GEN_8_OOV << GCLK_GENCTRL_OOV_Pos) | (CONF_GCLK_GEN_8_IDC << GCLK_GENCTRL_IDC_Pos)
		        | (CONF_GCLK_GENERATOR_8_CONFIG << GCLK_GENCTRL_GENEN_Pos) | CONF_GCLK_GEN_8_SRC | GCLK_GENCTRL_ID(8));
	}
#endif
}
     956:	4770      	bx	lr
     958:	40000c00 	.word	0x40000c00

0000095c <_pm_init>:
}

static inline void hri_pm_set_CPUSEL_CPUDIV_bf(const void *const hw, hri_pm_cpusel_reg_t mask)
{
	PM_CRITICAL_SECTION_ENTER();
	((Pm *)hw)->CPUSEL.reg |= PM_CPUSEL_CPUDIV(mask);
     95c:	4b06      	ldr	r3, [pc, #24]	; (978 <_pm_init+0x1c>)
     95e:	7a1a      	ldrb	r2, [r3, #8]
     960:	b2d2      	uxtb	r2, r2
     962:	721a      	strb	r2, [r3, #8]
}

static inline void hri_pm_set_APBASEL_APBADIV_bf(const void *const hw, hri_pm_apbasel_reg_t mask)
{
	PM_CRITICAL_SECTION_ENTER();
	((Pm *)hw)->APBASEL.reg |= PM_APBASEL_APBADIV(mask);
     964:	7a5a      	ldrb	r2, [r3, #9]
     966:	b2d2      	uxtb	r2, r2
     968:	725a      	strb	r2, [r3, #9]
}

static inline void hri_pm_set_APBBSEL_APBBDIV_bf(const void *const hw, hri_pm_apbbsel_reg_t mask)
{
	PM_CRITICAL_SECTION_ENTER();
	((Pm *)hw)->APBBSEL.reg |= PM_APBBSEL_APBBDIV(mask);
     96a:	7a9a      	ldrb	r2, [r3, #10]
     96c:	b2d2      	uxtb	r2, r2
     96e:	729a      	strb	r2, [r3, #10]
}

static inline void hri_pm_set_APBCSEL_APBCDIV_bf(const void *const hw, hri_pm_apbcsel_reg_t mask)
{
	PM_CRITICAL_SECTION_ENTER();
	((Pm *)hw)->APBCSEL.reg |= PM_APBCSEL_APBCDIV(mask);
     970:	7ada      	ldrb	r2, [r3, #11]
     972:	b2d2      	uxtb	r2, r2
     974:	72da      	strb	r2, [r3, #11]
{
	hri_pm_set_CPUSEL_CPUDIV_bf(PM, CONF_CPU_DIV);
	hri_pm_set_APBASEL_APBADIV_bf(PM, CONF_APBA_DIV);
	hri_pm_set_APBBSEL_APBBDIV_bf(PM, CONF_APBB_DIV);
	hri_pm_set_APBCSEL_APBCDIV_bf(PM, CONF_APBC_DIV);
}
     976:	4770      	bx	lr
     978:	40000400 	.word	0x40000400

0000097c <_sercom_get_hardware_index>:
{
#ifdef _UNIT_TEST_
	return ((uint32_t)hw - (uint32_t)SERCOM0) / sizeof(Sercom);
#endif

	return ((uint32_t)hw - (uint32_t)SERCOM0) >> 10;
     97c:	4b02      	ldr	r3, [pc, #8]	; (988 <_sercom_get_hardware_index+0xc>)
     97e:	469c      	mov	ip, r3
     980:	4460      	add	r0, ip
     982:	0a80      	lsrs	r0, r0, #10
     984:	b2c0      	uxtb	r0, r0
}
     986:	4770      	bx	lr
     988:	bdfff800 	.word	0xbdfff800

0000098c <_get_sercom_index>:
 * \param[in] hw The pointer to hardware instance

 * \return The ordinal number of the given sercom hardware instance
 */
static uint8_t _get_sercom_index(const void *const hw)
{
     98c:	b510      	push	{r4, lr}
	uint8_t sercom_offset = _sercom_get_hardware_index(hw);
     98e:	4b0b      	ldr	r3, [pc, #44]	; (9bc <_get_sercom_index+0x30>)
     990:	4798      	blx	r3
     992:	0002      	movs	r2, r0
	uint8_t i;

	for (i = 0; i < ARRAY_SIZE(_usarts); i++) {
     994:	2000      	movs	r0, #0
     996:	2800      	cmp	r0, #0
     998:	d006      	beq.n	9a8 <_get_sercom_index+0x1c>
		if (_usarts[i].number == sercom_offset) {
			return i;
		}
	}

	ASSERT(false);
     99a:	4a09      	ldr	r2, [pc, #36]	; (9c0 <_get_sercom_index+0x34>)
     99c:	4909      	ldr	r1, [pc, #36]	; (9c4 <_get_sercom_index+0x38>)
     99e:	2000      	movs	r0, #0
     9a0:	4b09      	ldr	r3, [pc, #36]	; (9c8 <_get_sercom_index+0x3c>)
     9a2:	4798      	blx	r3
	return 0;
     9a4:	2000      	movs	r0, #0
}
     9a6:	bd10      	pop	{r4, pc}
		if (_usarts[i].number == sercom_offset) {
     9a8:	0083      	lsls	r3, r0, #2
     9aa:	181b      	adds	r3, r3, r0
     9ac:	0099      	lsls	r1, r3, #2
     9ae:	4b07      	ldr	r3, [pc, #28]	; (9cc <_get_sercom_index+0x40>)
     9b0:	5ccb      	ldrb	r3, [r1, r3]
     9b2:	429a      	cmp	r2, r3
     9b4:	d0f7      	beq.n	9a6 <_get_sercom_index+0x1a>
	for (i = 0; i < ARRAY_SIZE(_usarts); i++) {
     9b6:	3001      	adds	r0, #1
     9b8:	b2c0      	uxtb	r0, r0
     9ba:	e7ec      	b.n	996 <_get_sercom_index+0xa>
     9bc:	0000097d 	.word	0x0000097d
     9c0:	0000023a 	.word	0x0000023a
     9c4:	0000563c 	.word	0x0000563c
     9c8:	000006e1 	.word	0x000006e1
     9cc:	000055ec 	.word	0x000055ec

000009d0 <_usart_init>:
 * \param[in] hw The pointer to hardware instance
 *
 * \return The status of initialization
 */
static int32_t _usart_init(void *const hw)
{
     9d0:	b570      	push	{r4, r5, r6, lr}
     9d2:	0004      	movs	r4, r0
	uint8_t i = _get_sercom_index(hw);
     9d4:	4b38      	ldr	r3, [pc, #224]	; (ab8 <_usart_init+0xe8>)
     9d6:	4798      	blx	r3
	};
}

static inline bool hri_sercomusart_is_syncing(const void *const hw, hri_sercomusart_syncbusy_reg_t reg)
{
	return ((Sercom *)hw)->USART.SYNCBUSY.reg & reg;
     9d8:	69e3      	ldr	r3, [r4, #28]

	if (!hri_sercomusart_is_syncing(hw, SERCOM_USART_SYNCBUSY_SWRST)) {
     9da:	07db      	lsls	r3, r3, #31
     9dc:	d41d      	bmi.n	a1a <_usart_init+0x4a>
		uint32_t mode = _usarts[i].ctrl_a & SERCOM_USART_CTRLA_MODE_Msk;
     9de:	0083      	lsls	r3, r0, #2
     9e0:	181b      	adds	r3, r3, r0
     9e2:	009a      	lsls	r2, r3, #2
     9e4:	4b35      	ldr	r3, [pc, #212]	; (abc <_usart_init+0xec>)
     9e6:	189b      	adds	r3, r3, r2
     9e8:	685a      	ldr	r2, [r3, #4]
     9ea:	231c      	movs	r3, #28
     9ec:	401a      	ands	r2, r3
	while (((Sercom *)hw)->USART.SYNCBUSY.reg & reg) {
     9ee:	69e3      	ldr	r3, [r4, #28]
     9f0:	079b      	lsls	r3, r3, #30
     9f2:	d1fc      	bne.n	9ee <_usart_init+0x1e>
static inline hri_sercomusart_ctrla_reg_t hri_sercomusart_get_CTRLA_reg(const void *const           hw,
                                                                        hri_sercomusart_ctrla_reg_t mask)
{
	uint32_t tmp;
	hri_sercomusart_wait_for_sync(hw, SERCOM_USART_SYNCBUSY_SWRST | SERCOM_USART_SYNCBUSY_ENABLE);
	tmp = ((Sercom *)hw)->USART.CTRLA.reg;
     9f4:	6823      	ldr	r3, [r4, #0]
		if (hri_sercomusart_get_CTRLA_reg(hw, SERCOM_USART_CTRLA_ENABLE)) {
     9f6:	079b      	lsls	r3, r3, #30
     9f8:	d509      	bpl.n	a0e <_usart_init+0x3e>
	((Sercom *)hw)->USART.CTRLA.reg &= ~SERCOM_USART_CTRLA_ENABLE;
     9fa:	6823      	ldr	r3, [r4, #0]
     9fc:	2102      	movs	r1, #2
     9fe:	438b      	bics	r3, r1
     a00:	6023      	str	r3, [r4, #0]
	while (((Sercom *)hw)->USART.SYNCBUSY.reg & reg) {
     a02:	69e3      	ldr	r3, [r4, #28]
     a04:	079b      	lsls	r3, r3, #30
     a06:	d1fc      	bne.n	a02 <_usart_init+0x32>
     a08:	69e3      	ldr	r3, [r4, #28]
     a0a:	079b      	lsls	r3, r3, #30
     a0c:	d4fc      	bmi.n	a08 <_usart_init+0x38>
			hri_sercomusart_clear_CTRLA_ENABLE_bit(hw);
			hri_sercomusart_wait_for_sync(hw, SERCOM_USART_SYNCBUSY_ENABLE);
		}
		hri_sercomusart_write_CTRLA_reg(hw, SERCOM_USART_CTRLA_SWRST | mode);
     a0e:	2301      	movs	r3, #1
     a10:	4313      	orrs	r3, r2
}

static inline void hri_sercomusart_write_CTRLA_reg(const void *const hw, hri_sercomusart_ctrla_reg_t data)
{
	SERCOM_CRITICAL_SECTION_ENTER();
	((Sercom *)hw)->USART.CTRLA.reg = data;
     a12:	6023      	str	r3, [r4, #0]
	while (((Sercom *)hw)->USART.SYNCBUSY.reg & reg) {
     a14:	69e3      	ldr	r3, [r4, #28]
     a16:	079b      	lsls	r3, r3, #30
     a18:	d1fc      	bne.n	a14 <_usart_init+0x44>
     a1a:	69e3      	ldr	r3, [r4, #28]
     a1c:	07db      	lsls	r3, r3, #31
     a1e:	d4fc      	bmi.n	a1a <_usart_init+0x4a>
	}
	hri_sercomusart_wait_for_sync(hw, SERCOM_USART_SYNCBUSY_SWRST);

	hri_sercomusart_write_CTRLA_reg(hw, _usarts[i].ctrl_a);
     a20:	0083      	lsls	r3, r0, #2
     a22:	181b      	adds	r3, r3, r0
     a24:	009a      	lsls	r2, r3, #2
     a26:	4b25      	ldr	r3, [pc, #148]	; (abc <_usart_init+0xec>)
     a28:	189b      	adds	r3, r3, r2
     a2a:	685b      	ldr	r3, [r3, #4]
	((Sercom *)hw)->USART.CTRLA.reg = data;
     a2c:	6023      	str	r3, [r4, #0]
	while (((Sercom *)hw)->USART.SYNCBUSY.reg & reg) {
     a2e:	69e3      	ldr	r3, [r4, #28]
     a30:	079b      	lsls	r3, r3, #30
     a32:	d1fc      	bne.n	a2e <_usart_init+0x5e>
	hri_sercomusart_write_CTRLB_reg(hw, _usarts[i].ctrl_b);
     a34:	0083      	lsls	r3, r0, #2
     a36:	181b      	adds	r3, r3, r0
     a38:	009a      	lsls	r2, r3, #2
     a3a:	4b20      	ldr	r3, [pc, #128]	; (abc <_usart_init+0xec>)
     a3c:	189b      	adds	r3, r3, r2
     a3e:	689b      	ldr	r3, [r3, #8]
}

static inline void hri_sercomusart_write_CTRLB_reg(const void *const hw, hri_sercomusart_ctrlb_reg_t data)
{
	SERCOM_CRITICAL_SECTION_ENTER();
	((Sercom *)hw)->USART.CTRLB.reg = data;
     a40:	6063      	str	r3, [r4, #4]
	while (((Sercom *)hw)->USART.SYNCBUSY.reg & reg) {
     a42:	69e3      	ldr	r3, [r4, #28]
     a44:	075b      	lsls	r3, r3, #29
     a46:	d1fc      	bne.n	a42 <_usart_init+0x72>
	if ((_usarts[i].ctrl_a & SERCOM_USART_CTRLA_SAMPR(0x1)) || (_usarts[i].ctrl_a & SERCOM_USART_CTRLA_SAMPR(0x3))) {
     a48:	0083      	lsls	r3, r0, #2
     a4a:	181b      	adds	r3, r3, r0
     a4c:	009a      	lsls	r2, r3, #2
     a4e:	4b1b      	ldr	r3, [pc, #108]	; (abc <_usart_init+0xec>)
     a50:	189b      	adds	r3, r3, r2
     a52:	685b      	ldr	r3, [r3, #4]
     a54:	049a      	lsls	r2, r3, #18
     a56:	d40b      	bmi.n	a70 <_usart_init+0xa0>
     a58:	22c0      	movs	r2, #192	; 0xc0
     a5a:	01d2      	lsls	r2, r2, #7
     a5c:	4213      	tst	r3, r2
     a5e:	d107      	bne.n	a70 <_usart_init+0xa0>
		((Sercom *)hw)->USART.BAUD.FRAC.BAUD = _usarts[i].baud;
		((Sercom *)hw)->USART.BAUD.FRAC.FP   = _usarts[i].fractional;
	} else {
		hri_sercomusart_write_BAUD_reg(hw, _usarts[i].baud);
     a60:	0083      	lsls	r3, r0, #2
     a62:	181b      	adds	r3, r3, r0
     a64:	009a      	lsls	r2, r3, #2
     a66:	4b15      	ldr	r3, [pc, #84]	; (abc <_usart_init+0xec>)
     a68:	189b      	adds	r3, r3, r2
     a6a:	899b      	ldrh	r3, [r3, #12]
}

static inline void hri_sercomusart_write_BAUD_reg(const void *const hw, hri_sercomusart_baud_reg_t data)
{
	SERCOM_CRITICAL_SECTION_ENTER();
	((Sercom *)hw)->USART.BAUD.reg = data;
     a6c:	81a3      	strh	r3, [r4, #12]
     a6e:	e015      	b.n	a9c <_usart_init+0xcc>
		((Sercom *)hw)->USART.BAUD.FRAC.BAUD = _usarts[i].baud;
     a70:	0083      	lsls	r3, r0, #2
     a72:	181b      	adds	r3, r3, r0
     a74:	009a      	lsls	r2, r3, #2
     a76:	4911      	ldr	r1, [pc, #68]	; (abc <_usart_init+0xec>)
     a78:	1889      	adds	r1, r1, r2
     a7a:	898a      	ldrh	r2, [r1, #12]
     a7c:	89a3      	ldrh	r3, [r4, #12]
     a7e:	04d2      	lsls	r2, r2, #19
     a80:	0cd2      	lsrs	r2, r2, #19
     a82:	0b5b      	lsrs	r3, r3, #13
     a84:	035b      	lsls	r3, r3, #13
     a86:	4313      	orrs	r3, r2
     a88:	81a3      	strh	r3, [r4, #12]
		((Sercom *)hw)->USART.BAUD.FRAC.FP   = _usarts[i].fractional;
     a8a:	7b8b      	ldrb	r3, [r1, #14]
     a8c:	2207      	movs	r2, #7
     a8e:	401a      	ands	r2, r3
     a90:	89a3      	ldrh	r3, [r4, #12]
     a92:	0352      	lsls	r2, r2, #13
     a94:	04db      	lsls	r3, r3, #19
     a96:	0cdb      	lsrs	r3, r3, #19
     a98:	4313      	orrs	r3, r2
     a9a:	81a3      	strh	r3, [r4, #12]
	}

	hri_sercomusart_write_RXPL_reg(hw, _usarts[i].rxpl);
     a9c:	4a07      	ldr	r2, [pc, #28]	; (abc <_usart_init+0xec>)
     a9e:	0083      	lsls	r3, r0, #2
     aa0:	181d      	adds	r5, r3, r0
     aa2:	00a9      	lsls	r1, r5, #2
     aa4:	000d      	movs	r5, r1
     aa6:	1851      	adds	r1, r2, r1
     aa8:	7bc9      	ldrb	r1, [r1, #15]
}

static inline void hri_sercomusart_write_RXPL_reg(const void *const hw, hri_sercomusart_rxpl_reg_t data)
{
	SERCOM_CRITICAL_SECTION_ENTER();
	((Sercom *)hw)->USART.RXPL.reg = data;
     aaa:	73a1      	strb	r1, [r4, #14]
	hri_sercomusart_write_DBGCTRL_reg(hw, _usarts[i].debug_ctrl);
     aac:	1952      	adds	r2, r2, r5
     aae:	7c12      	ldrb	r2, [r2, #16]
}

static inline void hri_sercomusart_write_DBGCTRL_reg(const void *const hw, hri_sercomusart_dbgctrl_reg_t data)
{
	SERCOM_CRITICAL_SECTION_ENTER();
	((Sercom *)hw)->USART.DBGCTRL.reg = data;
     ab0:	2330      	movs	r3, #48	; 0x30
     ab2:	54e2      	strb	r2, [r4, r3]

	return ERR_NONE;
}
     ab4:	2000      	movs	r0, #0
     ab6:	bd70      	pop	{r4, r5, r6, pc}
     ab8:	0000098d 	.word	0x0000098d
     abc:	000055ec 	.word	0x000055ec

00000ac0 <_usart_sync_init>:
{
     ac0:	b570      	push	{r4, r5, r6, lr}
     ac2:	0005      	movs	r5, r0
     ac4:	000c      	movs	r4, r1
	ASSERT(device);
     ac6:	1e43      	subs	r3, r0, #1
     ac8:	4198      	sbcs	r0, r3
     aca:	b2c0      	uxtb	r0, r0
     acc:	22b4      	movs	r2, #180	; 0xb4
     ace:	4904      	ldr	r1, [pc, #16]	; (ae0 <_usart_sync_init+0x20>)
     ad0:	4b04      	ldr	r3, [pc, #16]	; (ae4 <_usart_sync_init+0x24>)
     ad2:	4798      	blx	r3
	device->hw = hw;
     ad4:	602c      	str	r4, [r5, #0]
	return _usart_init(hw);
     ad6:	0020      	movs	r0, r4
     ad8:	4b03      	ldr	r3, [pc, #12]	; (ae8 <_usart_sync_init+0x28>)
     ada:	4798      	blx	r3
}
     adc:	bd70      	pop	{r4, r5, r6, pc}
     ade:	46c0      	nop			; (mov r8, r8)
     ae0:	0000563c 	.word	0x0000563c
     ae4:	000006e1 	.word	0x000006e1
     ae8:	000009d1 	.word	0x000009d1

00000aec <_usart_sync_enable>:
	hri_sercomusart_set_CTRLA_ENABLE_bit(device->hw);
     aec:	6802      	ldr	r2, [r0, #0]
	((Sercom *)hw)->USART.CTRLA.reg |= SERCOM_USART_CTRLA_ENABLE;
     aee:	6813      	ldr	r3, [r2, #0]
     af0:	2102      	movs	r1, #2
     af2:	430b      	orrs	r3, r1
     af4:	6013      	str	r3, [r2, #0]
	while (((Sercom *)hw)->USART.SYNCBUSY.reg & reg) {
     af6:	69d3      	ldr	r3, [r2, #28]
     af8:	079b      	lsls	r3, r3, #30
     afa:	d1fc      	bne.n	af6 <_usart_sync_enable+0xa>
}
     afc:	4770      	bx	lr

00000afe <_usart_sync_write_byte>:
	hri_sercomusart_write_DATA_reg(device->hw, data);
     afe:	6803      	ldr	r3, [r0, #0]
     b00:	b289      	uxth	r1, r1
	((Sercom *)hw)->USART.DATA.reg = data;
     b02:	8519      	strh	r1, [r3, #40]	; 0x28
}
     b04:	4770      	bx	lr

00000b06 <_usart_sync_read_byte>:
	return hri_sercomusart_read_DATA_reg(device->hw);
     b06:	6803      	ldr	r3, [r0, #0]
	return ((Sercom *)hw)->USART.DATA.reg;
     b08:	8d18      	ldrh	r0, [r3, #40]	; 0x28
     b0a:	b2c0      	uxtb	r0, r0
}
     b0c:	4770      	bx	lr

00000b0e <_usart_sync_is_ready_to_send>:
	return hri_sercomusart_get_interrupt_DRE_bit(device->hw);
     b0e:	6803      	ldr	r3, [r0, #0]
	return (((Sercom *)hw)->USART.INTFLAG.reg & SERCOM_USART_INTFLAG_DRE) >> SERCOM_USART_INTFLAG_DRE_Pos;
     b10:	7e18      	ldrb	r0, [r3, #24]
     b12:	2301      	movs	r3, #1
     b14:	4018      	ands	r0, r3
}
     b16:	4770      	bx	lr

00000b18 <_usart_sync_is_transmit_done>:
	return hri_sercomusart_get_interrupt_TXC_bit(device->hw);
     b18:	6803      	ldr	r3, [r0, #0]
	return (((Sercom *)hw)->USART.INTFLAG.reg & SERCOM_USART_INTFLAG_TXC) >> SERCOM_USART_INTFLAG_TXC_Pos;
     b1a:	7e1b      	ldrb	r3, [r3, #24]
     b1c:	085b      	lsrs	r3, r3, #1
     b1e:	2001      	movs	r0, #1
     b20:	4018      	ands	r0, r3
}
     b22:	4770      	bx	lr

00000b24 <_usart_sync_is_byte_received>:
	return hri_sercomusart_get_interrupt_RXC_bit(device->hw);
     b24:	6803      	ldr	r3, [r0, #0]
	return (((Sercom *)hw)->USART.INTFLAG.reg & SERCOM_USART_INTFLAG_RXC) >> SERCOM_USART_INTFLAG_RXC_Pos;
     b26:	7e1b      	ldrb	r3, [r3, #24]
     b28:	089b      	lsrs	r3, r3, #2
     b2a:	2001      	movs	r0, #1
     b2c:	4018      	ands	r0, r3
}
     b2e:	4770      	bx	lr

00000b30 <_sysctrl_init_sources>:
}

static inline hri_sysctrl_osc8m_reg_t hri_sysctrl_read_OSC8M_CALIB_bf(const void *const hw)
{
	uint32_t tmp;
	tmp = ((Sysctrl *)hw)->OSC8M.reg;
     b30:	4a0e      	ldr	r2, [pc, #56]	; (b6c <_sysctrl_init_sources+0x3c>)
     b32:	6a11      	ldr	r1, [r2, #32]
	tmp = (tmp & SYSCTRL_OSC8M_CALIB_Msk) >> SYSCTRL_OSC8M_CALIB_Pos;
     b34:	0c09      	lsrs	r1, r1, #16
}

static inline hri_sysctrl_osc8m_reg_t hri_sysctrl_read_OSC8M_FRANGE_bf(const void *const hw)
{
	uint32_t tmp;
	tmp = ((Sysctrl *)hw)->OSC8M.reg;
     b36:	6a13      	ldr	r3, [r2, #32]

#if CONF_OSC8M_CONFIG == 1
	calib = hri_sysctrl_read_OSC8M_CALIB_bf(hw);

	hri_sysctrl_write_OSC8M_reg(hw,
	                            SYSCTRL_OSC8M_FRANGE(hri_sysctrl_read_OSC8M_FRANGE_bf(hw)) |
     b38:	0f9b      	lsrs	r3, r3, #30
     b3a:	079b      	lsls	r3, r3, #30
#if CONF_OSC8M_OVERWRITE_CALIBRATION == 1
	                                SYSCTRL_OSC8M_CALIB(CONF_OSC8M_CALIB) |
#else
	                                SYSCTRL_OSC8M_CALIB(calib) |
     b3c:	0409      	lsls	r1, r1, #16
     b3e:	480c      	ldr	r0, [pc, #48]	; (b70 <_sysctrl_init_sources+0x40>)
     b40:	4001      	ands	r1, r0
#endif
	                                SYSCTRL_OSC8M_PRESC(CONF_OSC8M_PRESC)
	                                | (CONF_OSC8M_RUNSTDBY << SYSCTRL_OSC8M_RUNSTDBY_Pos)
     b42:	430b      	orrs	r3, r1
	hri_sysctrl_write_OSC8M_reg(hw,
     b44:	2102      	movs	r1, #2
     b46:	430b      	orrs	r3, r1
}

static inline void hri_sysctrl_write_OSC8M_reg(const void *const hw, hri_sysctrl_osc8m_reg_t data)
{
	SYSCTRL_CRITICAL_SECTION_ENTER();
	((Sysctrl *)hw)->OSC8M.reg = data;
     b48:	6213      	str	r3, [r2, #32]
	((Sysctrl *)hw)->OSC32K.reg |= SYSCTRL_OSC32K_ENABLE;
     b4a:	6993      	ldr	r3, [r2, #24]
     b4c:	430b      	orrs	r3, r1
     b4e:	6193      	str	r3, [r2, #24]
	tmp = ((Sysctrl *)hw)->OSCULP32K.reg;
     b50:	7f13      	ldrb	r3, [r2, #28]
	tmp = (tmp & SYSCTRL_OSCULP32K_CALIB_Msk) >> SYSCTRL_OSCULP32K_CALIB_Pos;
     b52:	311d      	adds	r1, #29
     b54:	400b      	ands	r3, r1
	((Sysctrl *)hw)->OSCULP32K.reg = data;
     b56:	7713      	strb	r3, [r2, #28]
	return (((Sysctrl *)hw)->PCLKSR.reg & SYSCTRL_PCLKSR_OSC8MRDY) >> SYSCTRL_PCLKSR_OSC8MRDY_Pos;
     b58:	4b04      	ldr	r3, [pc, #16]	; (b6c <_sysctrl_init_sources+0x3c>)
     b5a:	68db      	ldr	r3, [r3, #12]
#endif
#endif

#if CONF_OSC8M_CONFIG == 1
#if CONF_OSC8M_ENABLE == 1
	while (!hri_sysctrl_get_PCLKSR_OSC8MRDY_bit(hw))
     b5c:	071b      	lsls	r3, r3, #28
     b5e:	d5fb      	bpl.n	b58 <_sysctrl_init_sources+0x28>
	((Sysctrl *)hw)->OSC8M.reg |= SYSCTRL_OSC8M_ONDEMAND;
     b60:	4a02      	ldr	r2, [pc, #8]	; (b6c <_sysctrl_init_sources+0x3c>)
     b62:	6a13      	ldr	r3, [r2, #32]
     b64:	2180      	movs	r1, #128	; 0x80
     b66:	430b      	orrs	r3, r1
     b68:	6213      	str	r3, [r2, #32]
	hri_sysctrl_set_OSC8M_ONDEMAND_bit(hw);
#endif
#endif

	(void)calib, (void)hw;
}
     b6a:	4770      	bx	lr
     b6c:	40000800 	.word	0x40000800
     b70:	0fff0000 	.word	0x0fff0000

00000b74 <_sysctrl_init_referenced_generators>:
	((Sysctrl *)hw)->OSC32K.reg &= ~SYSCTRL_OSC32K_ENABLE;
     b74:	4a02      	ldr	r2, [pc, #8]	; (b80 <_sysctrl_init_referenced_generators+0xc>)
     b76:	6993      	ldr	r3, [r2, #24]
     b78:	2102      	movs	r1, #2
     b7a:	438b      	bics	r3, r1
     b7c:	6193      	str	r3, [r2, #24]
	/* Disable after all possible configurations needs sync written. */
	hri_sysctrl_clear_OSC32K_ENABLE_bit(hw);
#endif

	(void)hw;
}
     b7e:	4770      	bx	lr
     b80:	40000800 	.word	0x40000800

00000b84 <_system_time_init>:
 * \brief Initialize system time module
 */
void _system_time_init(void *const hw)
{
	(void)hw;
	SysTick->LOAD = (0xFFFFFF << SysTick_LOAD_RELOAD_Pos);
     b84:	4b02      	ldr	r3, [pc, #8]	; (b90 <_system_time_init+0xc>)
     b86:	4a03      	ldr	r2, [pc, #12]	; (b94 <_system_time_init+0x10>)
     b88:	605a      	str	r2, [r3, #4]
	SysTick->CTRL = (1 << SysTick_CTRL_ENABLE_Pos) | (CONF_SYSTICK_TICKINT << SysTick_CTRL_TICKINT_Pos)
     b8a:	2205      	movs	r2, #5
     b8c:	601a      	str	r2, [r3, #0]
	                | (1 << SysTick_CTRL_CLKSOURCE_Pos);
}
     b8e:	4770      	bx	lr
     b90:	e000e010 	.word	0xe000e010
     b94:	00ffffff 	.word	0x00ffffff

00000b98 <_delay_init>:
/**
 * \brief Initialize delay functionality
 */
void _delay_init(void *const hw)
{
     b98:	b510      	push	{r4, lr}
	_system_time_init(hw);
     b9a:	4b01      	ldr	r3, [pc, #4]	; (ba0 <_delay_init+0x8>)
     b9c:	4798      	blx	r3
}
     b9e:	bd10      	pop	{r4, pc}
     ba0:	00000b85 	.word	0x00000b85

00000ba4 <_delay_cycles>:
 * \brief Delay loop to delay n number of cycles
 */
void _delay_cycles(void *const hw, uint32_t cycles)
{
	(void)hw;
	uint8_t  n   = cycles >> 24;
     ba4:	0e08      	lsrs	r0, r1, #24
	uint32_t buf = cycles;

	while (n--) {
     ba6:	e00b      	b.n	bc0 <_delay_cycles+0x1c>
		SysTick->LOAD = 0xFFFFFF;
     ba8:	4b0b      	ldr	r3, [pc, #44]	; (bd8 <_delay_cycles+0x34>)
     baa:	480c      	ldr	r0, [pc, #48]	; (bdc <_delay_cycles+0x38>)
     bac:	6058      	str	r0, [r3, #4]
		SysTick->VAL  = 0xFFFFFF;
     bae:	6098      	str	r0, [r3, #8]
		while (!(SysTick->CTRL & SysTick_CTRL_COUNTFLAG_Msk))
     bb0:	4b09      	ldr	r3, [pc, #36]	; (bd8 <_delay_cycles+0x34>)
     bb2:	681b      	ldr	r3, [r3, #0]
     bb4:	03db      	lsls	r3, r3, #15
     bb6:	d5fb      	bpl.n	bb0 <_delay_cycles+0xc>
			;
		buf -= 0xFFFFFF;
     bb8:	4b09      	ldr	r3, [pc, #36]	; (be0 <_delay_cycles+0x3c>)
     bba:	469c      	mov	ip, r3
     bbc:	4461      	add	r1, ip
	while (n--) {
     bbe:	0010      	movs	r0, r2
     bc0:	1e42      	subs	r2, r0, #1
     bc2:	b2d2      	uxtb	r2, r2
     bc4:	2800      	cmp	r0, #0
     bc6:	d1ef      	bne.n	ba8 <_delay_cycles+0x4>
	}

	SysTick->LOAD = buf;
     bc8:	4b03      	ldr	r3, [pc, #12]	; (bd8 <_delay_cycles+0x34>)
     bca:	6059      	str	r1, [r3, #4]
	SysTick->VAL  = buf;
     bcc:	6099      	str	r1, [r3, #8]
	while (!(SysTick->CTRL & SysTick_CTRL_COUNTFLAG_Msk))
     bce:	4b02      	ldr	r3, [pc, #8]	; (bd8 <_delay_cycles+0x34>)
     bd0:	681b      	ldr	r3, [r3, #0]
     bd2:	03db      	lsls	r3, r3, #15
     bd4:	d5fb      	bpl.n	bce <_delay_cycles+0x2a>
		;
}
     bd6:	4770      	bx	lr
     bd8:	e000e010 	.word	0xe000e010
     bdc:	00ffffff 	.word	0x00ffffff
     be0:	ff000001 	.word	0xff000001

00000be4 <main>:
#include <atmel_start.h>
#include "adc_read.h"
int main(void)
{
     be4:	b510      	push	{r4, lr}
     be6:	b084      	sub	sp, #16
	int ret=0;
	/* Initializes MCU, drivers and middleware */
	atmel_start_init();
     be8:	4b0f      	ldr	r3, [pc, #60]	; (c28 <main+0x44>)
     bea:	4798      	blx	r3
	

	/* Replace with your application code */
	adc_enable();
     bec:	4b0f      	ldr	r3, [pc, #60]	; (c2c <main+0x48>)
     bee:	4798      	blx	r3
     bf0:	e005      	b.n	bfe <main+0x1a>
			delay_ms(250);
			
		}
		else
		{
			printf("Okuma Basarisiz");
     bf2:	480f      	ldr	r0, [pc, #60]	; (c30 <main+0x4c>)
     bf4:	4b0f      	ldr	r3, [pc, #60]	; (c34 <main+0x50>)
     bf6:	4798      	blx	r3
		}
		delay_ms(250);
     bf8:	20fa      	movs	r0, #250	; 0xfa
     bfa:	4b0f      	ldr	r3, [pc, #60]	; (c38 <main+0x54>)
     bfc:	4798      	blx	r3
		ret=ADC_Read(&adc_read);
     bfe:	4668      	mov	r0, sp
     c00:	4b0e      	ldr	r3, [pc, #56]	; (c3c <main+0x58>)
     c02:	4798      	blx	r3
		if(ret==0){
     c04:	2800      	cmp	r0, #0
     c06:	d1f4      	bne.n	bf2 <main+0xe>
			printf("PA06=%03d\r\n",adc_read.PA06_ADC_value);
     c08:	466b      	mov	r3, sp
     c0a:	2104      	movs	r1, #4
     c0c:	5e59      	ldrsh	r1, [r3, r1]
     c0e:	480c      	ldr	r0, [pc, #48]	; (c40 <main+0x5c>)
     c10:	4c08      	ldr	r4, [pc, #32]	; (c34 <main+0x50>)
     c12:	47a0      	blx	r4
			printf("PA07=%03d\r\n",adc_read.PA07_ADC_value);
     c14:	466b      	mov	r3, sp
     c16:	2106      	movs	r1, #6
     c18:	5e59      	ldrsh	r1, [r3, r1]
     c1a:	480a      	ldr	r0, [pc, #40]	; (c44 <main+0x60>)
     c1c:	47a0      	blx	r4
			delay_ms(250);
     c1e:	20fa      	movs	r0, #250	; 0xfa
     c20:	4b05      	ldr	r3, [pc, #20]	; (c38 <main+0x54>)
     c22:	4798      	blx	r3
     c24:	e7e8      	b.n	bf8 <main+0x14>
     c26:	46c0      	nop			; (mov r8, r8)
     c28:	00000179 	.word	0x00000179
     c2c:	00000115 	.word	0x00000115
     c30:	00005670 	.word	0x00005670
     c34:	00001665 	.word	0x00001665
     c38:	000004f9 	.word	0x000004f9
     c3c:	00000131 	.word	0x00000131
     c40:	00005658 	.word	0x00005658
     c44:	00005664 	.word	0x00005664

00000c48 <_read>:
#include <stdio.h>

int __attribute__((weak)) _read(int file, char *ptr, int len); /* Remove GCC compiler warning */

int __attribute__((weak)) _read(int file, char *ptr, int len)
{
     c48:	b510      	push	{r4, lr}
     c4a:	000b      	movs	r3, r1
	int n = 0;

	if (file != 0) {
     c4c:	2800      	cmp	r0, #0
     c4e:	d109      	bne.n	c64 <_read+0x1c>
		return -1;
	}

	n = stdio_io_read((uint8_t *)ptr, len);
     c50:	0011      	movs	r1, r2
     c52:	0018      	movs	r0, r3
     c54:	4b05      	ldr	r3, [pc, #20]	; (c6c <_read+0x24>)
     c56:	4798      	blx	r3
	if (n < 0) {
     c58:	2800      	cmp	r0, #0
     c5a:	db00      	blt.n	c5e <_read+0x16>
		return -1;
	}

	return n;
}
     c5c:	bd10      	pop	{r4, pc}
		return -1;
     c5e:	2001      	movs	r0, #1
     c60:	4240      	negs	r0, r0
     c62:	e7fb      	b.n	c5c <_read+0x14>
		return -1;
     c64:	2001      	movs	r0, #1
     c66:	4240      	negs	r0, r0
     c68:	e7f8      	b.n	c5c <_read+0x14>
     c6a:	46c0      	nop			; (mov r8, r8)
     c6c:	00000cc5 	.word	0x00000cc5

00000c70 <_write>:
#include <stdio.h>

int __attribute__((weak)) _write(int file, char *ptr, int len); /* Remove GCC compiler warning */

int __attribute__((weak)) _write(int file, char *ptr, int len)
{
     c70:	b510      	push	{r4, lr}
     c72:	000b      	movs	r3, r1
	int n = 0;

	if ((file != 1) && (file != 2) && (file != 3)) {
     c74:	3801      	subs	r0, #1
     c76:	2802      	cmp	r0, #2
     c78:	d809      	bhi.n	c8e <_write+0x1e>
		return -1;
	}

	n = stdio_io_write((const uint8_t *)ptr, len);
     c7a:	0011      	movs	r1, r2
     c7c:	0018      	movs	r0, r3
     c7e:	4b05      	ldr	r3, [pc, #20]	; (c94 <_write+0x24>)
     c80:	4798      	blx	r3
	if (n < 0) {
     c82:	2800      	cmp	r0, #0
     c84:	db00      	blt.n	c88 <_write+0x18>
		return -1;
	}

	return n;
}
     c86:	bd10      	pop	{r4, pc}
		return -1;
     c88:	2001      	movs	r0, #1
     c8a:	4240      	negs	r0, r0
     c8c:	e7fb      	b.n	c86 <_write+0x16>
		return -1;
     c8e:	2001      	movs	r0, #1
     c90:	4240      	negs	r0, r0
     c92:	e7f8      	b.n	c86 <_write+0x16>
     c94:	00000ce9 	.word	0x00000ce9

00000c98 <stdio_io_init>:

/** IO descriptor for STDIO access. */
static struct io_descriptor *stdio_io = NULL;

void stdio_io_init(struct io_descriptor *io)
{
     c98:	b570      	push	{r4, r5, r6, lr}
     c9a:	0006      	movs	r6, r0
#if defined(__GNUC__)
	/* Specify that stdout and stdin should not be buffered. */
	setbuf(stdout, NULL);
     c9c:	4d06      	ldr	r5, [pc, #24]	; (cb8 <stdio_io_init+0x20>)
     c9e:	682b      	ldr	r3, [r5, #0]
     ca0:	6898      	ldr	r0, [r3, #8]
     ca2:	2100      	movs	r1, #0
     ca4:	4c05      	ldr	r4, [pc, #20]	; (cbc <stdio_io_init+0x24>)
     ca6:	47a0      	blx	r4
	setbuf(stdin, NULL);
     ca8:	682b      	ldr	r3, [r5, #0]
     caa:	6858      	ldr	r0, [r3, #4]
     cac:	2100      	movs	r1, #0
     cae:	47a0      	blx	r4
	 * and AVR GCC library:
	 * - printf() emits one character at a time.
	 * - getchar() requests only 1 byte to exit.
	 */
#endif
	stdio_io = io;
     cb0:	4b03      	ldr	r3, [pc, #12]	; (cc0 <stdio_io_init+0x28>)
     cb2:	601e      	str	r6, [r3, #0]
}
     cb4:	bd70      	pop	{r4, r5, r6, pc}
     cb6:	46c0      	nop			; (mov r8, r8)
     cb8:	20000000 	.word	0x20000000
     cbc:	00001699 	.word	0x00001699
     cc0:	200001f4 	.word	0x200001f4

00000cc4 <stdio_io_read>:
{
	stdio_io = io;
}

int32_t stdio_io_read(uint8_t *buf, const int32_t len)
{
     cc4:	b510      	push	{r4, lr}
     cc6:	0004      	movs	r4, r0
	if (stdio_io == NULL) {
     cc8:	4b05      	ldr	r3, [pc, #20]	; (ce0 <stdio_io_read+0x1c>)
     cca:	6818      	ldr	r0, [r3, #0]
     ccc:	2800      	cmp	r0, #0
     cce:	d004      	beq.n	cda <stdio_io_read+0x16>
		return 0;
	}
	return io_read(stdio_io, buf, len);
     cd0:	b28a      	uxth	r2, r1
     cd2:	0021      	movs	r1, r4
     cd4:	4b03      	ldr	r3, [pc, #12]	; (ce4 <stdio_io_read+0x20>)
     cd6:	4798      	blx	r3
}
     cd8:	bd10      	pop	{r4, pc}
		return 0;
     cda:	2000      	movs	r0, #0
     cdc:	e7fc      	b.n	cd8 <stdio_io_read+0x14>
     cde:	46c0      	nop			; (mov r8, r8)
     ce0:	200001f4 	.word	0x200001f4
     ce4:	00000551 	.word	0x00000551

00000ce8 <stdio_io_write>:

int32_t stdio_io_write(const uint8_t *buf, const int32_t len)
{
     ce8:	b510      	push	{r4, lr}
     cea:	0004      	movs	r4, r0
	if (stdio_io == NULL) {
     cec:	4b05      	ldr	r3, [pc, #20]	; (d04 <stdio_io_write+0x1c>)
     cee:	6818      	ldr	r0, [r3, #0]
     cf0:	2800      	cmp	r0, #0
     cf2:	d004      	beq.n	cfe <stdio_io_write+0x16>
		return 0;
	}
	return io_write(stdio_io, buf, len);
     cf4:	b28a      	uxth	r2, r1
     cf6:	0021      	movs	r1, r4
     cf8:	4b03      	ldr	r3, [pc, #12]	; (d08 <stdio_io_write+0x20>)
     cfa:	4798      	blx	r3
}
     cfc:	bd10      	pop	{r4, pc}
		return 0;
     cfe:	2000      	movs	r0, #0
     d00:	e7fc      	b.n	cfc <stdio_io_write+0x14>
     d02:	46c0      	nop			; (mov r8, r8)
     d04:	200001f4 	.word	0x200001f4
     d08:	00000519 	.word	0x00000519

00000d0c <stdio_redirect_init>:
	/* Print welcome message */
	printf("\r\nHello ATMEL World!\r\n");
}

void stdio_redirect_init(void)
{
     d0c:	b510      	push	{r4, lr}

	usart_sync_enable(&TARGET_IO);
     d0e:	4c04      	ldr	r4, [pc, #16]	; (d20 <stdio_redirect_init+0x14>)
     d10:	0020      	movs	r0, r4
     d12:	4b04      	ldr	r3, [pc, #16]	; (d24 <stdio_redirect_init+0x18>)
     d14:	4798      	blx	r3
	stdio_io_init(&TARGET_IO.io);
     d16:	0020      	movs	r0, r4
     d18:	4b03      	ldr	r3, [pc, #12]	; (d28 <stdio_redirect_init+0x1c>)
     d1a:	4798      	blx	r3
}
     d1c:	bd10      	pop	{r4, pc}
     d1e:	46c0      	nop			; (mov r8, r8)
     d20:	20000200 	.word	0x20000200
     d24:	000006b5 	.word	0x000006b5
     d28:	00000c99 	.word	0x00000c99

00000d2c <__libc_init_array>:
     d2c:	b570      	push	{r4, r5, r6, lr}
     d2e:	2600      	movs	r6, #0
     d30:	4d0c      	ldr	r5, [pc, #48]	; (d64 <__libc_init_array+0x38>)
     d32:	4c0d      	ldr	r4, [pc, #52]	; (d68 <__libc_init_array+0x3c>)
     d34:	1b64      	subs	r4, r4, r5
     d36:	10a4      	asrs	r4, r4, #2
     d38:	42a6      	cmp	r6, r4
     d3a:	d109      	bne.n	d50 <__libc_init_array+0x24>
     d3c:	2600      	movs	r6, #0
     d3e:	f004 fe3f 	bl	59c0 <_init>
     d42:	4d0a      	ldr	r5, [pc, #40]	; (d6c <__libc_init_array+0x40>)
     d44:	4c0a      	ldr	r4, [pc, #40]	; (d70 <__libc_init_array+0x44>)
     d46:	1b64      	subs	r4, r4, r5
     d48:	10a4      	asrs	r4, r4, #2
     d4a:	42a6      	cmp	r6, r4
     d4c:	d105      	bne.n	d5a <__libc_init_array+0x2e>
     d4e:	bd70      	pop	{r4, r5, r6, pc}
     d50:	00b3      	lsls	r3, r6, #2
     d52:	58eb      	ldr	r3, [r5, r3]
     d54:	4798      	blx	r3
     d56:	3601      	adds	r6, #1
     d58:	e7ee      	b.n	d38 <__libc_init_array+0xc>
     d5a:	00b3      	lsls	r3, r6, #2
     d5c:	58eb      	ldr	r3, [r5, r3]
     d5e:	4798      	blx	r3
     d60:	3601      	adds	r6, #1
     d62:	e7f2      	b.n	d4a <__libc_init_array+0x1e>
     d64:	000059cc 	.word	0x000059cc
     d68:	000059cc 	.word	0x000059cc
     d6c:	000059cc 	.word	0x000059cc
     d70:	000059d0 	.word	0x000059d0

00000d74 <memset>:
     d74:	0003      	movs	r3, r0
     d76:	1882      	adds	r2, r0, r2
     d78:	4293      	cmp	r3, r2
     d7a:	d100      	bne.n	d7e <memset+0xa>
     d7c:	4770      	bx	lr
     d7e:	7019      	strb	r1, [r3, #0]
     d80:	3301      	adds	r3, #1
     d82:	e7f9      	b.n	d78 <memset+0x4>

00000d84 <__cvt>:
     d84:	b5f0      	push	{r4, r5, r6, r7, lr}
     d86:	b08b      	sub	sp, #44	; 0x2c
     d88:	0014      	movs	r4, r2
     d8a:	1e1d      	subs	r5, r3, #0
     d8c:	9912      	ldr	r1, [sp, #72]	; 0x48
     d8e:	da53      	bge.n	e38 <__cvt+0xb4>
     d90:	2480      	movs	r4, #128	; 0x80
     d92:	0624      	lsls	r4, r4, #24
     d94:	191b      	adds	r3, r3, r4
     d96:	001d      	movs	r5, r3
     d98:	0014      	movs	r4, r2
     d9a:	232d      	movs	r3, #45	; 0x2d
     d9c:	700b      	strb	r3, [r1, #0]
     d9e:	2320      	movs	r3, #32
     da0:	9e14      	ldr	r6, [sp, #80]	; 0x50
     da2:	2203      	movs	r2, #3
     da4:	439e      	bics	r6, r3
     da6:	2e46      	cmp	r6, #70	; 0x46
     da8:	d007      	beq.n	dba <__cvt+0x36>
     daa:	0033      	movs	r3, r6
     dac:	3b45      	subs	r3, #69	; 0x45
     dae:	4259      	negs	r1, r3
     db0:	414b      	adcs	r3, r1
     db2:	9910      	ldr	r1, [sp, #64]	; 0x40
     db4:	3a01      	subs	r2, #1
     db6:	18cb      	adds	r3, r1, r3
     db8:	9310      	str	r3, [sp, #64]	; 0x40
     dba:	ab09      	add	r3, sp, #36	; 0x24
     dbc:	9304      	str	r3, [sp, #16]
     dbe:	ab08      	add	r3, sp, #32
     dc0:	9303      	str	r3, [sp, #12]
     dc2:	9b13      	ldr	r3, [sp, #76]	; 0x4c
     dc4:	9200      	str	r2, [sp, #0]
     dc6:	9302      	str	r3, [sp, #8]
     dc8:	9b10      	ldr	r3, [sp, #64]	; 0x40
     dca:	0022      	movs	r2, r4
     dcc:	9301      	str	r3, [sp, #4]
     dce:	002b      	movs	r3, r5
     dd0:	f000 fe70 	bl	1ab4 <_dtoa_r>
     dd4:	0007      	movs	r7, r0
     dd6:	2e47      	cmp	r6, #71	; 0x47
     dd8:	d102      	bne.n	de0 <__cvt+0x5c>
     dda:	9b11      	ldr	r3, [sp, #68]	; 0x44
     ddc:	07db      	lsls	r3, r3, #31
     dde:	d524      	bpl.n	e2a <__cvt+0xa6>
     de0:	9b10      	ldr	r3, [sp, #64]	; 0x40
     de2:	18fb      	adds	r3, r7, r3
     de4:	9307      	str	r3, [sp, #28]
     de6:	2e46      	cmp	r6, #70	; 0x46
     de8:	d114      	bne.n	e14 <__cvt+0x90>
     dea:	783b      	ldrb	r3, [r7, #0]
     dec:	2b30      	cmp	r3, #48	; 0x30
     dee:	d10c      	bne.n	e0a <__cvt+0x86>
     df0:	2200      	movs	r2, #0
     df2:	2300      	movs	r3, #0
     df4:	0020      	movs	r0, r4
     df6:	0029      	movs	r1, r5
     df8:	f002 fdc4 	bl	3984 <__aeabi_dcmpeq>
     dfc:	2800      	cmp	r0, #0
     dfe:	d104      	bne.n	e0a <__cvt+0x86>
     e00:	2301      	movs	r3, #1
     e02:	9a10      	ldr	r2, [sp, #64]	; 0x40
     e04:	1a9b      	subs	r3, r3, r2
     e06:	9a13      	ldr	r2, [sp, #76]	; 0x4c
     e08:	6013      	str	r3, [r2, #0]
     e0a:	9b13      	ldr	r3, [sp, #76]	; 0x4c
     e0c:	9a07      	ldr	r2, [sp, #28]
     e0e:	681b      	ldr	r3, [r3, #0]
     e10:	18d3      	adds	r3, r2, r3
     e12:	9307      	str	r3, [sp, #28]
     e14:	2200      	movs	r2, #0
     e16:	2300      	movs	r3, #0
     e18:	0020      	movs	r0, r4
     e1a:	0029      	movs	r1, r5
     e1c:	f002 fdb2 	bl	3984 <__aeabi_dcmpeq>
     e20:	2230      	movs	r2, #48	; 0x30
     e22:	2800      	cmp	r0, #0
     e24:	d00d      	beq.n	e42 <__cvt+0xbe>
     e26:	9b07      	ldr	r3, [sp, #28]
     e28:	9309      	str	r3, [sp, #36]	; 0x24
     e2a:	0038      	movs	r0, r7
     e2c:	9b09      	ldr	r3, [sp, #36]	; 0x24
     e2e:	9a15      	ldr	r2, [sp, #84]	; 0x54
     e30:	1bdb      	subs	r3, r3, r7
     e32:	6013      	str	r3, [r2, #0]
     e34:	b00b      	add	sp, #44	; 0x2c
     e36:	bdf0      	pop	{r4, r5, r6, r7, pc}
     e38:	2300      	movs	r3, #0
     e3a:	e7af      	b.n	d9c <__cvt+0x18>
     e3c:	1c59      	adds	r1, r3, #1
     e3e:	9109      	str	r1, [sp, #36]	; 0x24
     e40:	701a      	strb	r2, [r3, #0]
     e42:	9b09      	ldr	r3, [sp, #36]	; 0x24
     e44:	9907      	ldr	r1, [sp, #28]
     e46:	4299      	cmp	r1, r3
     e48:	d8f8      	bhi.n	e3c <__cvt+0xb8>
     e4a:	e7ee      	b.n	e2a <__cvt+0xa6>

00000e4c <__exponent>:
     e4c:	b5f0      	push	{r4, r5, r6, r7, lr}
     e4e:	232b      	movs	r3, #43	; 0x2b
     e50:	b085      	sub	sp, #20
     e52:	0007      	movs	r7, r0
     e54:	000c      	movs	r4, r1
     e56:	7002      	strb	r2, [r0, #0]
     e58:	1c86      	adds	r6, r0, #2
     e5a:	2900      	cmp	r1, #0
     e5c:	da01      	bge.n	e62 <__exponent+0x16>
     e5e:	232d      	movs	r3, #45	; 0x2d
     e60:	424c      	negs	r4, r1
     e62:	707b      	strb	r3, [r7, #1]
     e64:	2c09      	cmp	r4, #9
     e66:	dd23      	ble.n	eb0 <__exponent+0x64>
     e68:	ab02      	add	r3, sp, #8
     e6a:	1ddd      	adds	r5, r3, #7
     e6c:	1e6b      	subs	r3, r5, #1
     e6e:	0020      	movs	r0, r4
     e70:	210a      	movs	r1, #10
     e72:	9301      	str	r3, [sp, #4]
     e74:	f002 fd70 	bl	3958 <__aeabi_idivmod>
     e78:	1e6b      	subs	r3, r5, #1
     e7a:	3130      	adds	r1, #48	; 0x30
     e7c:	7019      	strb	r1, [r3, #0]
     e7e:	0020      	movs	r0, r4
     e80:	210a      	movs	r1, #10
     e82:	f002 fc83 	bl	378c <__divsi3>
     e86:	0004      	movs	r4, r0
     e88:	2809      	cmp	r0, #9
     e8a:	dc0a      	bgt.n	ea2 <__exponent+0x56>
     e8c:	3d02      	subs	r5, #2
     e8e:	3430      	adds	r4, #48	; 0x30
     e90:	702c      	strb	r4, [r5, #0]
     e92:	ab02      	add	r3, sp, #8
     e94:	3307      	adds	r3, #7
     e96:	0030      	movs	r0, r6
     e98:	42ab      	cmp	r3, r5
     e9a:	d804      	bhi.n	ea6 <__exponent+0x5a>
     e9c:	1bc0      	subs	r0, r0, r7
     e9e:	b005      	add	sp, #20
     ea0:	bdf0      	pop	{r4, r5, r6, r7, pc}
     ea2:	9d01      	ldr	r5, [sp, #4]
     ea4:	e7e2      	b.n	e6c <__exponent+0x20>
     ea6:	782b      	ldrb	r3, [r5, #0]
     ea8:	3501      	adds	r5, #1
     eaa:	7033      	strb	r3, [r6, #0]
     eac:	3601      	adds	r6, #1
     eae:	e7f0      	b.n	e92 <__exponent+0x46>
     eb0:	2330      	movs	r3, #48	; 0x30
     eb2:	18e4      	adds	r4, r4, r3
     eb4:	7033      	strb	r3, [r6, #0]
     eb6:	1cb0      	adds	r0, r6, #2
     eb8:	7074      	strb	r4, [r6, #1]
     eba:	e7ef      	b.n	e9c <__exponent+0x50>

00000ebc <_printf_float>:
     ebc:	b5f0      	push	{r4, r5, r6, r7, lr}
     ebe:	b095      	sub	sp, #84	; 0x54
     ec0:	000c      	movs	r4, r1
     ec2:	920a      	str	r2, [sp, #40]	; 0x28
     ec4:	930b      	str	r3, [sp, #44]	; 0x2c
     ec6:	9d1a      	ldr	r5, [sp, #104]	; 0x68
     ec8:	9009      	str	r0, [sp, #36]	; 0x24
     eca:	f001 fd69 	bl	29a0 <_localeconv_r>
     ece:	6803      	ldr	r3, [r0, #0]
     ed0:	0018      	movs	r0, r3
     ed2:	930d      	str	r3, [sp, #52]	; 0x34
     ed4:	f000 fc96 	bl	1804 <strlen>
     ed8:	2300      	movs	r3, #0
     eda:	9312      	str	r3, [sp, #72]	; 0x48
     edc:	6823      	ldr	r3, [r4, #0]
     ede:	900e      	str	r0, [sp, #56]	; 0x38
     ee0:	930c      	str	r3, [sp, #48]	; 0x30
     ee2:	990c      	ldr	r1, [sp, #48]	; 0x30
     ee4:	7e27      	ldrb	r7, [r4, #24]
     ee6:	682b      	ldr	r3, [r5, #0]
     ee8:	2207      	movs	r2, #7
     eea:	05c9      	lsls	r1, r1, #23
     eec:	d547      	bpl.n	f7e <_printf_float+0xc2>
     eee:	189b      	adds	r3, r3, r2
     ef0:	4393      	bics	r3, r2
     ef2:	001a      	movs	r2, r3
     ef4:	3208      	adds	r2, #8
     ef6:	602a      	str	r2, [r5, #0]
     ef8:	681a      	ldr	r2, [r3, #0]
     efa:	685b      	ldr	r3, [r3, #4]
     efc:	64a2      	str	r2, [r4, #72]	; 0x48
     efe:	64e3      	str	r3, [r4, #76]	; 0x4c
     f00:	2201      	movs	r2, #1
     f02:	6ce5      	ldr	r5, [r4, #76]	; 0x4c
     f04:	6ca6      	ldr	r6, [r4, #72]	; 0x48
     f06:	006b      	lsls	r3, r5, #1
     f08:	085b      	lsrs	r3, r3, #1
     f0a:	930f      	str	r3, [sp, #60]	; 0x3c
     f0c:	4252      	negs	r2, r2
     f0e:	4ba7      	ldr	r3, [pc, #668]	; (11ac <_printf_float+0x2f0>)
     f10:	0030      	movs	r0, r6
     f12:	990f      	ldr	r1, [sp, #60]	; 0x3c
     f14:	f004 fa3e 	bl	5394 <__aeabi_dcmpun>
     f18:	2800      	cmp	r0, #0
     f1a:	d000      	beq.n	f1e <_printf_float+0x62>
     f1c:	e206      	b.n	132c <_printf_float+0x470>
     f1e:	2201      	movs	r2, #1
     f20:	4ba2      	ldr	r3, [pc, #648]	; (11ac <_printf_float+0x2f0>)
     f22:	4252      	negs	r2, r2
     f24:	0030      	movs	r0, r6
     f26:	990f      	ldr	r1, [sp, #60]	; 0x3c
     f28:	f002 fd3c 	bl	39a4 <__aeabi_dcmple>
     f2c:	2800      	cmp	r0, #0
     f2e:	d000      	beq.n	f32 <_printf_float+0x76>
     f30:	e1fc      	b.n	132c <_printf_float+0x470>
     f32:	2200      	movs	r2, #0
     f34:	2300      	movs	r3, #0
     f36:	0030      	movs	r0, r6
     f38:	0029      	movs	r1, r5
     f3a:	f002 fd29 	bl	3990 <__aeabi_dcmplt>
     f3e:	2800      	cmp	r0, #0
     f40:	d003      	beq.n	f4a <_printf_float+0x8e>
     f42:	0023      	movs	r3, r4
     f44:	222d      	movs	r2, #45	; 0x2d
     f46:	3343      	adds	r3, #67	; 0x43
     f48:	701a      	strb	r2, [r3, #0]
     f4a:	4d99      	ldr	r5, [pc, #612]	; (11b0 <_printf_float+0x2f4>)
     f4c:	2f47      	cmp	r7, #71	; 0x47
     f4e:	d800      	bhi.n	f52 <_printf_float+0x96>
     f50:	4d98      	ldr	r5, [pc, #608]	; (11b4 <_printf_float+0x2f8>)
     f52:	2303      	movs	r3, #3
     f54:	2600      	movs	r6, #0
     f56:	9a0c      	ldr	r2, [sp, #48]	; 0x30
     f58:	6123      	str	r3, [r4, #16]
     f5a:	3301      	adds	r3, #1
     f5c:	439a      	bics	r2, r3
     f5e:	6022      	str	r2, [r4, #0]
     f60:	9b0b      	ldr	r3, [sp, #44]	; 0x2c
     f62:	aa13      	add	r2, sp, #76	; 0x4c
     f64:	9300      	str	r3, [sp, #0]
     f66:	0021      	movs	r1, r4
     f68:	9b0a      	ldr	r3, [sp, #40]	; 0x28
     f6a:	9809      	ldr	r0, [sp, #36]	; 0x24
     f6c:	f000 f9f2 	bl	1354 <_printf_common>
     f70:	1c43      	adds	r3, r0, #1
     f72:	d000      	beq.n	f76 <_printf_float+0xba>
     f74:	e09c      	b.n	10b0 <_printf_float+0x1f4>
     f76:	2001      	movs	r0, #1
     f78:	4240      	negs	r0, r0
     f7a:	b015      	add	sp, #84	; 0x54
     f7c:	bdf0      	pop	{r4, r5, r6, r7, pc}
     f7e:	3307      	adds	r3, #7
     f80:	e7b6      	b.n	ef0 <_printf_float+0x34>
     f82:	2380      	movs	r3, #128	; 0x80
     f84:	6862      	ldr	r2, [r4, #4]
     f86:	00db      	lsls	r3, r3, #3
     f88:	1c51      	adds	r1, r2, #1
     f8a:	d145      	bne.n	1018 <_printf_float+0x15c>
     f8c:	3207      	adds	r2, #7
     f8e:	6062      	str	r2, [r4, #4]
     f90:	9a0c      	ldr	r2, [sp, #48]	; 0x30
     f92:	2100      	movs	r1, #0
     f94:	4313      	orrs	r3, r2
     f96:	aa12      	add	r2, sp, #72	; 0x48
     f98:	9205      	str	r2, [sp, #20]
     f9a:	aa11      	add	r2, sp, #68	; 0x44
     f9c:	9203      	str	r2, [sp, #12]
     f9e:	2223      	movs	r2, #35	; 0x23
     fa0:	6023      	str	r3, [r4, #0]
     fa2:	9106      	str	r1, [sp, #24]
     fa4:	9301      	str	r3, [sp, #4]
     fa6:	a908      	add	r1, sp, #32
     fa8:	6863      	ldr	r3, [r4, #4]
     faa:	1852      	adds	r2, r2, r1
     fac:	9202      	str	r2, [sp, #8]
     fae:	9300      	str	r3, [sp, #0]
     fb0:	0032      	movs	r2, r6
     fb2:	002b      	movs	r3, r5
     fb4:	9704      	str	r7, [sp, #16]
     fb6:	9809      	ldr	r0, [sp, #36]	; 0x24
     fb8:	f7ff fee4 	bl	d84 <__cvt>
     fbc:	2320      	movs	r3, #32
     fbe:	003a      	movs	r2, r7
     fc0:	0005      	movs	r5, r0
     fc2:	439a      	bics	r2, r3
     fc4:	2a47      	cmp	r2, #71	; 0x47
     fc6:	d107      	bne.n	fd8 <_printf_float+0x11c>
     fc8:	9b11      	ldr	r3, [sp, #68]	; 0x44
     fca:	1cda      	adds	r2, r3, #3
     fcc:	db02      	blt.n	fd4 <_printf_float+0x118>
     fce:	6862      	ldr	r2, [r4, #4]
     fd0:	4293      	cmp	r3, r2
     fd2:	dd5b      	ble.n	108c <_printf_float+0x1d0>
     fd4:	3f02      	subs	r7, #2
     fd6:	b2ff      	uxtb	r7, r7
     fd8:	9911      	ldr	r1, [sp, #68]	; 0x44
     fda:	2f65      	cmp	r7, #101	; 0x65
     fdc:	d83b      	bhi.n	1056 <_printf_float+0x19a>
     fde:	0020      	movs	r0, r4
     fe0:	3901      	subs	r1, #1
     fe2:	003a      	movs	r2, r7
     fe4:	3050      	adds	r0, #80	; 0x50
     fe6:	9111      	str	r1, [sp, #68]	; 0x44
     fe8:	f7ff ff30 	bl	e4c <__exponent>
     fec:	9a12      	ldr	r2, [sp, #72]	; 0x48
     fee:	0006      	movs	r6, r0
     ff0:	1883      	adds	r3, r0, r2
     ff2:	6123      	str	r3, [r4, #16]
     ff4:	2a01      	cmp	r2, #1
     ff6:	dc02      	bgt.n	ffe <_printf_float+0x142>
     ff8:	6822      	ldr	r2, [r4, #0]
     ffa:	07d2      	lsls	r2, r2, #31
     ffc:	d501      	bpl.n	1002 <_printf_float+0x146>
     ffe:	3301      	adds	r3, #1
    1000:	6123      	str	r3, [r4, #16]
    1002:	2323      	movs	r3, #35	; 0x23
    1004:	aa08      	add	r2, sp, #32
    1006:	189b      	adds	r3, r3, r2
    1008:	781b      	ldrb	r3, [r3, #0]
    100a:	2b00      	cmp	r3, #0
    100c:	d0a8      	beq.n	f60 <_printf_float+0xa4>
    100e:	0023      	movs	r3, r4
    1010:	222d      	movs	r2, #45	; 0x2d
    1012:	3343      	adds	r3, #67	; 0x43
    1014:	701a      	strb	r2, [r3, #0]
    1016:	e7a3      	b.n	f60 <_printf_float+0xa4>
    1018:	2f67      	cmp	r7, #103	; 0x67
    101a:	d001      	beq.n	1020 <_printf_float+0x164>
    101c:	2f47      	cmp	r7, #71	; 0x47
    101e:	d1b7      	bne.n	f90 <_printf_float+0xd4>
    1020:	2a00      	cmp	r2, #0
    1022:	d016      	beq.n	1052 <_printf_float+0x196>
    1024:	990c      	ldr	r1, [sp, #48]	; 0x30
    1026:	a808      	add	r0, sp, #32
    1028:	430b      	orrs	r3, r1
    102a:	2100      	movs	r1, #0
    102c:	9106      	str	r1, [sp, #24]
    102e:	a912      	add	r1, sp, #72	; 0x48
    1030:	9105      	str	r1, [sp, #20]
    1032:	a911      	add	r1, sp, #68	; 0x44
    1034:	9103      	str	r1, [sp, #12]
    1036:	2123      	movs	r1, #35	; 0x23
    1038:	1809      	adds	r1, r1, r0
    103a:	6023      	str	r3, [r4, #0]
    103c:	9301      	str	r3, [sp, #4]
    103e:	9200      	str	r2, [sp, #0]
    1040:	002b      	movs	r3, r5
    1042:	9704      	str	r7, [sp, #16]
    1044:	9102      	str	r1, [sp, #8]
    1046:	0032      	movs	r2, r6
    1048:	9809      	ldr	r0, [sp, #36]	; 0x24
    104a:	f7ff fe9b 	bl	d84 <__cvt>
    104e:	0005      	movs	r5, r0
    1050:	e7ba      	b.n	fc8 <_printf_float+0x10c>
    1052:	2201      	movs	r2, #1
    1054:	e79b      	b.n	f8e <_printf_float+0xd2>
    1056:	2f66      	cmp	r7, #102	; 0x66
    1058:	d119      	bne.n	108e <_printf_float+0x1d2>
    105a:	6863      	ldr	r3, [r4, #4]
    105c:	2900      	cmp	r1, #0
    105e:	dd0c      	ble.n	107a <_printf_float+0x1be>
    1060:	6121      	str	r1, [r4, #16]
    1062:	2b00      	cmp	r3, #0
    1064:	d102      	bne.n	106c <_printf_float+0x1b0>
    1066:	6822      	ldr	r2, [r4, #0]
    1068:	07d2      	lsls	r2, r2, #31
    106a:	d502      	bpl.n	1072 <_printf_float+0x1b6>
    106c:	3301      	adds	r3, #1
    106e:	185b      	adds	r3, r3, r1
    1070:	6123      	str	r3, [r4, #16]
    1072:	9b11      	ldr	r3, [sp, #68]	; 0x44
    1074:	2600      	movs	r6, #0
    1076:	65a3      	str	r3, [r4, #88]	; 0x58
    1078:	e7c3      	b.n	1002 <_printf_float+0x146>
    107a:	2b00      	cmp	r3, #0
    107c:	d103      	bne.n	1086 <_printf_float+0x1ca>
    107e:	2201      	movs	r2, #1
    1080:	6821      	ldr	r1, [r4, #0]
    1082:	4211      	tst	r1, r2
    1084:	d000      	beq.n	1088 <_printf_float+0x1cc>
    1086:	1c9a      	adds	r2, r3, #2
    1088:	6122      	str	r2, [r4, #16]
    108a:	e7f2      	b.n	1072 <_printf_float+0x1b6>
    108c:	2767      	movs	r7, #103	; 0x67
    108e:	9b11      	ldr	r3, [sp, #68]	; 0x44
    1090:	9812      	ldr	r0, [sp, #72]	; 0x48
    1092:	4283      	cmp	r3, r0
    1094:	db05      	blt.n	10a2 <_printf_float+0x1e6>
    1096:	6822      	ldr	r2, [r4, #0]
    1098:	6123      	str	r3, [r4, #16]
    109a:	07d2      	lsls	r2, r2, #31
    109c:	d5e9      	bpl.n	1072 <_printf_float+0x1b6>
    109e:	3301      	adds	r3, #1
    10a0:	e7e6      	b.n	1070 <_printf_float+0x1b4>
    10a2:	2201      	movs	r2, #1
    10a4:	2b00      	cmp	r3, #0
    10a6:	dc01      	bgt.n	10ac <_printf_float+0x1f0>
    10a8:	1892      	adds	r2, r2, r2
    10aa:	1ad2      	subs	r2, r2, r3
    10ac:	1812      	adds	r2, r2, r0
    10ae:	e7eb      	b.n	1088 <_printf_float+0x1cc>
    10b0:	6822      	ldr	r2, [r4, #0]
    10b2:	0553      	lsls	r3, r2, #21
    10b4:	d408      	bmi.n	10c8 <_printf_float+0x20c>
    10b6:	6923      	ldr	r3, [r4, #16]
    10b8:	002a      	movs	r2, r5
    10ba:	990a      	ldr	r1, [sp, #40]	; 0x28
    10bc:	9809      	ldr	r0, [sp, #36]	; 0x24
    10be:	9d0b      	ldr	r5, [sp, #44]	; 0x2c
    10c0:	47a8      	blx	r5
    10c2:	1c43      	adds	r3, r0, #1
    10c4:	d129      	bne.n	111a <_printf_float+0x25e>
    10c6:	e756      	b.n	f76 <_printf_float+0xba>
    10c8:	2f65      	cmp	r7, #101	; 0x65
    10ca:	d800      	bhi.n	10ce <_printf_float+0x212>
    10cc:	e0dc      	b.n	1288 <_printf_float+0x3cc>
    10ce:	6ca0      	ldr	r0, [r4, #72]	; 0x48
    10d0:	6ce1      	ldr	r1, [r4, #76]	; 0x4c
    10d2:	2200      	movs	r2, #0
    10d4:	2300      	movs	r3, #0
    10d6:	f002 fc55 	bl	3984 <__aeabi_dcmpeq>
    10da:	2800      	cmp	r0, #0
    10dc:	d035      	beq.n	114a <_printf_float+0x28e>
    10de:	2301      	movs	r3, #1
    10e0:	4a35      	ldr	r2, [pc, #212]	; (11b8 <_printf_float+0x2fc>)
    10e2:	990a      	ldr	r1, [sp, #40]	; 0x28
    10e4:	9809      	ldr	r0, [sp, #36]	; 0x24
    10e6:	9d0b      	ldr	r5, [sp, #44]	; 0x2c
    10e8:	47a8      	blx	r5
    10ea:	1c43      	adds	r3, r0, #1
    10ec:	d100      	bne.n	10f0 <_printf_float+0x234>
    10ee:	e742      	b.n	f76 <_printf_float+0xba>
    10f0:	9b11      	ldr	r3, [sp, #68]	; 0x44
    10f2:	9a12      	ldr	r2, [sp, #72]	; 0x48
    10f4:	4293      	cmp	r3, r2
    10f6:	db02      	blt.n	10fe <_printf_float+0x242>
    10f8:	6823      	ldr	r3, [r4, #0]
    10fa:	07db      	lsls	r3, r3, #31
    10fc:	d50d      	bpl.n	111a <_printf_float+0x25e>
    10fe:	9d0b      	ldr	r5, [sp, #44]	; 0x2c
    1100:	9b0e      	ldr	r3, [sp, #56]	; 0x38
    1102:	9a0d      	ldr	r2, [sp, #52]	; 0x34
    1104:	990a      	ldr	r1, [sp, #40]	; 0x28
    1106:	9809      	ldr	r0, [sp, #36]	; 0x24
    1108:	47a8      	blx	r5
    110a:	2500      	movs	r5, #0
    110c:	1c43      	adds	r3, r0, #1
    110e:	d100      	bne.n	1112 <_printf_float+0x256>
    1110:	e731      	b.n	f76 <_printf_float+0xba>
    1112:	9b12      	ldr	r3, [sp, #72]	; 0x48
    1114:	3b01      	subs	r3, #1
    1116:	429d      	cmp	r5, r3
    1118:	db0b      	blt.n	1132 <_printf_float+0x276>
    111a:	6823      	ldr	r3, [r4, #0]
    111c:	2500      	movs	r5, #0
    111e:	079b      	lsls	r3, r3, #30
    1120:	d500      	bpl.n	1124 <_printf_float+0x268>
    1122:	e0fd      	b.n	1320 <_printf_float+0x464>
    1124:	9b13      	ldr	r3, [sp, #76]	; 0x4c
    1126:	68e0      	ldr	r0, [r4, #12]
    1128:	4298      	cmp	r0, r3
    112a:	db00      	blt.n	112e <_printf_float+0x272>
    112c:	e725      	b.n	f7a <_printf_float+0xbe>
    112e:	0018      	movs	r0, r3
    1130:	e723      	b.n	f7a <_printf_float+0xbe>
    1132:	0022      	movs	r2, r4
    1134:	2301      	movs	r3, #1
    1136:	321a      	adds	r2, #26
    1138:	990a      	ldr	r1, [sp, #40]	; 0x28
    113a:	9809      	ldr	r0, [sp, #36]	; 0x24
    113c:	9e0b      	ldr	r6, [sp, #44]	; 0x2c
    113e:	47b0      	blx	r6
    1140:	1c43      	adds	r3, r0, #1
    1142:	d100      	bne.n	1146 <_printf_float+0x28a>
    1144:	e717      	b.n	f76 <_printf_float+0xba>
    1146:	3501      	adds	r5, #1
    1148:	e7e3      	b.n	1112 <_printf_float+0x256>
    114a:	9b11      	ldr	r3, [sp, #68]	; 0x44
    114c:	2b00      	cmp	r3, #0
    114e:	dc35      	bgt.n	11bc <_printf_float+0x300>
    1150:	2301      	movs	r3, #1
    1152:	4a19      	ldr	r2, [pc, #100]	; (11b8 <_printf_float+0x2fc>)
    1154:	990a      	ldr	r1, [sp, #40]	; 0x28
    1156:	9809      	ldr	r0, [sp, #36]	; 0x24
    1158:	9e0b      	ldr	r6, [sp, #44]	; 0x2c
    115a:	47b0      	blx	r6
    115c:	1c43      	adds	r3, r0, #1
    115e:	d100      	bne.n	1162 <_printf_float+0x2a6>
    1160:	e709      	b.n	f76 <_printf_float+0xba>
    1162:	9b11      	ldr	r3, [sp, #68]	; 0x44
    1164:	2b00      	cmp	r3, #0
    1166:	d105      	bne.n	1174 <_printf_float+0x2b8>
    1168:	9b12      	ldr	r3, [sp, #72]	; 0x48
    116a:	2b00      	cmp	r3, #0
    116c:	d102      	bne.n	1174 <_printf_float+0x2b8>
    116e:	6823      	ldr	r3, [r4, #0]
    1170:	07db      	lsls	r3, r3, #31
    1172:	d5d2      	bpl.n	111a <_printf_float+0x25e>
    1174:	9e0b      	ldr	r6, [sp, #44]	; 0x2c
    1176:	9b0e      	ldr	r3, [sp, #56]	; 0x38
    1178:	9a0d      	ldr	r2, [sp, #52]	; 0x34
    117a:	990a      	ldr	r1, [sp, #40]	; 0x28
    117c:	9809      	ldr	r0, [sp, #36]	; 0x24
    117e:	47b0      	blx	r6
    1180:	2600      	movs	r6, #0
    1182:	1c43      	adds	r3, r0, #1
    1184:	d100      	bne.n	1188 <_printf_float+0x2cc>
    1186:	e6f6      	b.n	f76 <_printf_float+0xba>
    1188:	9b11      	ldr	r3, [sp, #68]	; 0x44
    118a:	425b      	negs	r3, r3
    118c:	429e      	cmp	r6, r3
    118e:	db01      	blt.n	1194 <_printf_float+0x2d8>
    1190:	9b12      	ldr	r3, [sp, #72]	; 0x48
    1192:	e791      	b.n	10b8 <_printf_float+0x1fc>
    1194:	0022      	movs	r2, r4
    1196:	2301      	movs	r3, #1
    1198:	321a      	adds	r2, #26
    119a:	990a      	ldr	r1, [sp, #40]	; 0x28
    119c:	9809      	ldr	r0, [sp, #36]	; 0x24
    119e:	9f0b      	ldr	r7, [sp, #44]	; 0x2c
    11a0:	47b8      	blx	r7
    11a2:	1c43      	adds	r3, r0, #1
    11a4:	d100      	bne.n	11a8 <_printf_float+0x2ec>
    11a6:	e6e6      	b.n	f76 <_printf_float+0xba>
    11a8:	3601      	adds	r6, #1
    11aa:	e7ed      	b.n	1188 <_printf_float+0x2cc>
    11ac:	7fefffff 	.word	0x7fefffff
    11b0:	00005688 	.word	0x00005688
    11b4:	00005684 	.word	0x00005684
    11b8:	00005694 	.word	0x00005694
    11bc:	6da3      	ldr	r3, [r4, #88]	; 0x58
    11be:	9e12      	ldr	r6, [sp, #72]	; 0x48
    11c0:	429e      	cmp	r6, r3
    11c2:	dd00      	ble.n	11c6 <_printf_float+0x30a>
    11c4:	001e      	movs	r6, r3
    11c6:	2e00      	cmp	r6, #0
    11c8:	dc35      	bgt.n	1236 <_printf_float+0x37a>
    11ca:	2300      	movs	r3, #0
    11cc:	930c      	str	r3, [sp, #48]	; 0x30
    11ce:	43f3      	mvns	r3, r6
    11d0:	17db      	asrs	r3, r3, #31
    11d2:	930f      	str	r3, [sp, #60]	; 0x3c
    11d4:	9b0f      	ldr	r3, [sp, #60]	; 0x3c
    11d6:	6da7      	ldr	r7, [r4, #88]	; 0x58
    11d8:	9a0c      	ldr	r2, [sp, #48]	; 0x30
    11da:	4033      	ands	r3, r6
    11dc:	1afb      	subs	r3, r7, r3
    11de:	429a      	cmp	r2, r3
    11e0:	db32      	blt.n	1248 <_printf_float+0x38c>
    11e2:	9b11      	ldr	r3, [sp, #68]	; 0x44
    11e4:	9a12      	ldr	r2, [sp, #72]	; 0x48
    11e6:	4293      	cmp	r3, r2
    11e8:	db3c      	blt.n	1264 <_printf_float+0x3a8>
    11ea:	6823      	ldr	r3, [r4, #0]
    11ec:	07db      	lsls	r3, r3, #31
    11ee:	d439      	bmi.n	1264 <_printf_float+0x3a8>
    11f0:	9e12      	ldr	r6, [sp, #72]	; 0x48
    11f2:	9a11      	ldr	r2, [sp, #68]	; 0x44
    11f4:	1bf3      	subs	r3, r6, r7
    11f6:	1ab6      	subs	r6, r6, r2
    11f8:	429e      	cmp	r6, r3
    11fa:	dd00      	ble.n	11fe <_printf_float+0x342>
    11fc:	001e      	movs	r6, r3
    11fe:	2e00      	cmp	r6, #0
    1200:	dc39      	bgt.n	1276 <_printf_float+0x3ba>
    1202:	43f7      	mvns	r7, r6
    1204:	2500      	movs	r5, #0
    1206:	17fb      	asrs	r3, r7, #31
    1208:	930c      	str	r3, [sp, #48]	; 0x30
    120a:	9a11      	ldr	r2, [sp, #68]	; 0x44
    120c:	9b12      	ldr	r3, [sp, #72]	; 0x48
    120e:	990c      	ldr	r1, [sp, #48]	; 0x30
    1210:	1a9b      	subs	r3, r3, r2
    1212:	0032      	movs	r2, r6
    1214:	400a      	ands	r2, r1
    1216:	1a9b      	subs	r3, r3, r2
    1218:	429d      	cmp	r5, r3
    121a:	db00      	blt.n	121e <_printf_float+0x362>
    121c:	e77d      	b.n	111a <_printf_float+0x25e>
    121e:	0022      	movs	r2, r4
    1220:	2301      	movs	r3, #1
    1222:	321a      	adds	r2, #26
    1224:	990a      	ldr	r1, [sp, #40]	; 0x28
    1226:	9809      	ldr	r0, [sp, #36]	; 0x24
    1228:	9f0b      	ldr	r7, [sp, #44]	; 0x2c
    122a:	47b8      	blx	r7
    122c:	1c43      	adds	r3, r0, #1
    122e:	d100      	bne.n	1232 <_printf_float+0x376>
    1230:	e6a1      	b.n	f76 <_printf_float+0xba>
    1232:	3501      	adds	r5, #1
    1234:	e7e9      	b.n	120a <_printf_float+0x34e>
    1236:	0033      	movs	r3, r6
    1238:	002a      	movs	r2, r5
    123a:	990a      	ldr	r1, [sp, #40]	; 0x28
    123c:	9809      	ldr	r0, [sp, #36]	; 0x24
    123e:	9f0b      	ldr	r7, [sp, #44]	; 0x2c
    1240:	47b8      	blx	r7
    1242:	1c43      	adds	r3, r0, #1
    1244:	d1c1      	bne.n	11ca <_printf_float+0x30e>
    1246:	e696      	b.n	f76 <_printf_float+0xba>
    1248:	0022      	movs	r2, r4
    124a:	2301      	movs	r3, #1
    124c:	321a      	adds	r2, #26
    124e:	990a      	ldr	r1, [sp, #40]	; 0x28
    1250:	9809      	ldr	r0, [sp, #36]	; 0x24
    1252:	9f0b      	ldr	r7, [sp, #44]	; 0x2c
    1254:	47b8      	blx	r7
    1256:	1c43      	adds	r3, r0, #1
    1258:	d100      	bne.n	125c <_printf_float+0x3a0>
    125a:	e68c      	b.n	f76 <_printf_float+0xba>
    125c:	9b0c      	ldr	r3, [sp, #48]	; 0x30
    125e:	3301      	adds	r3, #1
    1260:	930c      	str	r3, [sp, #48]	; 0x30
    1262:	e7b7      	b.n	11d4 <_printf_float+0x318>
    1264:	9b0e      	ldr	r3, [sp, #56]	; 0x38
    1266:	9a0d      	ldr	r2, [sp, #52]	; 0x34
    1268:	990a      	ldr	r1, [sp, #40]	; 0x28
    126a:	9809      	ldr	r0, [sp, #36]	; 0x24
    126c:	9e0b      	ldr	r6, [sp, #44]	; 0x2c
    126e:	47b0      	blx	r6
    1270:	1c43      	adds	r3, r0, #1
    1272:	d1bd      	bne.n	11f0 <_printf_float+0x334>
    1274:	e67f      	b.n	f76 <_printf_float+0xba>
    1276:	19ea      	adds	r2, r5, r7
    1278:	0033      	movs	r3, r6
    127a:	990a      	ldr	r1, [sp, #40]	; 0x28
    127c:	9809      	ldr	r0, [sp, #36]	; 0x24
    127e:	9d0b      	ldr	r5, [sp, #44]	; 0x2c
    1280:	47a8      	blx	r5
    1282:	1c43      	adds	r3, r0, #1
    1284:	d1bd      	bne.n	1202 <_printf_float+0x346>
    1286:	e676      	b.n	f76 <_printf_float+0xba>
    1288:	9b12      	ldr	r3, [sp, #72]	; 0x48
    128a:	2b01      	cmp	r3, #1
    128c:	dc02      	bgt.n	1294 <_printf_float+0x3d8>
    128e:	2301      	movs	r3, #1
    1290:	421a      	tst	r2, r3
    1292:	d038      	beq.n	1306 <_printf_float+0x44a>
    1294:	2301      	movs	r3, #1
    1296:	002a      	movs	r2, r5
    1298:	990a      	ldr	r1, [sp, #40]	; 0x28
    129a:	9809      	ldr	r0, [sp, #36]	; 0x24
    129c:	9f0b      	ldr	r7, [sp, #44]	; 0x2c
    129e:	47b8      	blx	r7
    12a0:	1c43      	adds	r3, r0, #1
    12a2:	d100      	bne.n	12a6 <_printf_float+0x3ea>
    12a4:	e667      	b.n	f76 <_printf_float+0xba>
    12a6:	9b0e      	ldr	r3, [sp, #56]	; 0x38
    12a8:	9a0d      	ldr	r2, [sp, #52]	; 0x34
    12aa:	990a      	ldr	r1, [sp, #40]	; 0x28
    12ac:	9809      	ldr	r0, [sp, #36]	; 0x24
    12ae:	9f0b      	ldr	r7, [sp, #44]	; 0x2c
    12b0:	47b8      	blx	r7
    12b2:	1c43      	adds	r3, r0, #1
    12b4:	d100      	bne.n	12b8 <_printf_float+0x3fc>
    12b6:	e65e      	b.n	f76 <_printf_float+0xba>
    12b8:	6ca0      	ldr	r0, [r4, #72]	; 0x48
    12ba:	6ce1      	ldr	r1, [r4, #76]	; 0x4c
    12bc:	2200      	movs	r2, #0
    12be:	2300      	movs	r3, #0
    12c0:	f002 fb60 	bl	3984 <__aeabi_dcmpeq>
    12c4:	2800      	cmp	r0, #0
    12c6:	d008      	beq.n	12da <_printf_float+0x41e>
    12c8:	2500      	movs	r5, #0
    12ca:	9b12      	ldr	r3, [sp, #72]	; 0x48
    12cc:	3b01      	subs	r3, #1
    12ce:	429d      	cmp	r5, r3
    12d0:	db0d      	blt.n	12ee <_printf_float+0x432>
    12d2:	0022      	movs	r2, r4
    12d4:	0033      	movs	r3, r6
    12d6:	3250      	adds	r2, #80	; 0x50
    12d8:	e6ef      	b.n	10ba <_printf_float+0x1fe>
    12da:	9b12      	ldr	r3, [sp, #72]	; 0x48
    12dc:	1c6a      	adds	r2, r5, #1
    12de:	3b01      	subs	r3, #1
    12e0:	990a      	ldr	r1, [sp, #40]	; 0x28
    12e2:	9809      	ldr	r0, [sp, #36]	; 0x24
    12e4:	9d0b      	ldr	r5, [sp, #44]	; 0x2c
    12e6:	47a8      	blx	r5
    12e8:	1c43      	adds	r3, r0, #1
    12ea:	d1f2      	bne.n	12d2 <_printf_float+0x416>
    12ec:	e643      	b.n	f76 <_printf_float+0xba>
    12ee:	0022      	movs	r2, r4
    12f0:	2301      	movs	r3, #1
    12f2:	321a      	adds	r2, #26
    12f4:	990a      	ldr	r1, [sp, #40]	; 0x28
    12f6:	9809      	ldr	r0, [sp, #36]	; 0x24
    12f8:	9f0b      	ldr	r7, [sp, #44]	; 0x2c
    12fa:	47b8      	blx	r7
    12fc:	1c43      	adds	r3, r0, #1
    12fe:	d100      	bne.n	1302 <_printf_float+0x446>
    1300:	e639      	b.n	f76 <_printf_float+0xba>
    1302:	3501      	adds	r5, #1
    1304:	e7e1      	b.n	12ca <_printf_float+0x40e>
    1306:	002a      	movs	r2, r5
    1308:	e7ea      	b.n	12e0 <_printf_float+0x424>
    130a:	0022      	movs	r2, r4
    130c:	2301      	movs	r3, #1
    130e:	3219      	adds	r2, #25
    1310:	990a      	ldr	r1, [sp, #40]	; 0x28
    1312:	9809      	ldr	r0, [sp, #36]	; 0x24
    1314:	9e0b      	ldr	r6, [sp, #44]	; 0x2c
    1316:	47b0      	blx	r6
    1318:	1c43      	adds	r3, r0, #1
    131a:	d100      	bne.n	131e <_printf_float+0x462>
    131c:	e62b      	b.n	f76 <_printf_float+0xba>
    131e:	3501      	adds	r5, #1
    1320:	68e3      	ldr	r3, [r4, #12]
    1322:	9a13      	ldr	r2, [sp, #76]	; 0x4c
    1324:	1a9b      	subs	r3, r3, r2
    1326:	429d      	cmp	r5, r3
    1328:	dbef      	blt.n	130a <_printf_float+0x44e>
    132a:	e6fb      	b.n	1124 <_printf_float+0x268>
    132c:	0032      	movs	r2, r6
    132e:	002b      	movs	r3, r5
    1330:	0030      	movs	r0, r6
    1332:	0029      	movs	r1, r5
    1334:	f004 f82e 	bl	5394 <__aeabi_dcmpun>
    1338:	2800      	cmp	r0, #0
    133a:	d100      	bne.n	133e <_printf_float+0x482>
    133c:	e621      	b.n	f82 <_printf_float+0xc6>
    133e:	4d03      	ldr	r5, [pc, #12]	; (134c <_printf_float+0x490>)
    1340:	2f47      	cmp	r7, #71	; 0x47
    1342:	d900      	bls.n	1346 <_printf_float+0x48a>
    1344:	e605      	b.n	f52 <_printf_float+0x96>
    1346:	4d02      	ldr	r5, [pc, #8]	; (1350 <_printf_float+0x494>)
    1348:	e603      	b.n	f52 <_printf_float+0x96>
    134a:	46c0      	nop			; (mov r8, r8)
    134c:	00005690 	.word	0x00005690
    1350:	0000568c 	.word	0x0000568c

00001354 <_printf_common>:
    1354:	b5f7      	push	{r0, r1, r2, r4, r5, r6, r7, lr}
    1356:	0015      	movs	r5, r2
    1358:	9301      	str	r3, [sp, #4]
    135a:	688a      	ldr	r2, [r1, #8]
    135c:	690b      	ldr	r3, [r1, #16]
    135e:	9000      	str	r0, [sp, #0]
    1360:	000c      	movs	r4, r1
    1362:	4293      	cmp	r3, r2
    1364:	da00      	bge.n	1368 <_printf_common+0x14>
    1366:	0013      	movs	r3, r2
    1368:	0022      	movs	r2, r4
    136a:	602b      	str	r3, [r5, #0]
    136c:	3243      	adds	r2, #67	; 0x43
    136e:	7812      	ldrb	r2, [r2, #0]
    1370:	2a00      	cmp	r2, #0
    1372:	d001      	beq.n	1378 <_printf_common+0x24>
    1374:	3301      	adds	r3, #1
    1376:	602b      	str	r3, [r5, #0]
    1378:	6823      	ldr	r3, [r4, #0]
    137a:	069b      	lsls	r3, r3, #26
    137c:	d502      	bpl.n	1384 <_printf_common+0x30>
    137e:	682b      	ldr	r3, [r5, #0]
    1380:	3302      	adds	r3, #2
    1382:	602b      	str	r3, [r5, #0]
    1384:	2706      	movs	r7, #6
    1386:	6823      	ldr	r3, [r4, #0]
    1388:	401f      	ands	r7, r3
    138a:	d027      	beq.n	13dc <_printf_common+0x88>
    138c:	0023      	movs	r3, r4
    138e:	3343      	adds	r3, #67	; 0x43
    1390:	781b      	ldrb	r3, [r3, #0]
    1392:	1e5a      	subs	r2, r3, #1
    1394:	4193      	sbcs	r3, r2
    1396:	6822      	ldr	r2, [r4, #0]
    1398:	0692      	lsls	r2, r2, #26
    139a:	d430      	bmi.n	13fe <_printf_common+0xaa>
    139c:	0022      	movs	r2, r4
    139e:	9901      	ldr	r1, [sp, #4]
    13a0:	3243      	adds	r2, #67	; 0x43
    13a2:	9800      	ldr	r0, [sp, #0]
    13a4:	9e08      	ldr	r6, [sp, #32]
    13a6:	47b0      	blx	r6
    13a8:	1c43      	adds	r3, r0, #1
    13aa:	d025      	beq.n	13f8 <_printf_common+0xa4>
    13ac:	2306      	movs	r3, #6
    13ae:	6820      	ldr	r0, [r4, #0]
    13b0:	682a      	ldr	r2, [r5, #0]
    13b2:	68e1      	ldr	r1, [r4, #12]
    13b4:	4003      	ands	r3, r0
    13b6:	2500      	movs	r5, #0
    13b8:	2b04      	cmp	r3, #4
    13ba:	d103      	bne.n	13c4 <_printf_common+0x70>
    13bc:	1a8d      	subs	r5, r1, r2
    13be:	43eb      	mvns	r3, r5
    13c0:	17db      	asrs	r3, r3, #31
    13c2:	401d      	ands	r5, r3
    13c4:	68a3      	ldr	r3, [r4, #8]
    13c6:	6922      	ldr	r2, [r4, #16]
    13c8:	4293      	cmp	r3, r2
    13ca:	dd01      	ble.n	13d0 <_printf_common+0x7c>
    13cc:	1a9b      	subs	r3, r3, r2
    13ce:	18ed      	adds	r5, r5, r3
    13d0:	2700      	movs	r7, #0
    13d2:	42bd      	cmp	r5, r7
    13d4:	d120      	bne.n	1418 <_printf_common+0xc4>
    13d6:	2000      	movs	r0, #0
    13d8:	e010      	b.n	13fc <_printf_common+0xa8>
    13da:	3701      	adds	r7, #1
    13dc:	68e3      	ldr	r3, [r4, #12]
    13de:	682a      	ldr	r2, [r5, #0]
    13e0:	1a9b      	subs	r3, r3, r2
    13e2:	429f      	cmp	r7, r3
    13e4:	dad2      	bge.n	138c <_printf_common+0x38>
    13e6:	0022      	movs	r2, r4
    13e8:	2301      	movs	r3, #1
    13ea:	3219      	adds	r2, #25
    13ec:	9901      	ldr	r1, [sp, #4]
    13ee:	9800      	ldr	r0, [sp, #0]
    13f0:	9e08      	ldr	r6, [sp, #32]
    13f2:	47b0      	blx	r6
    13f4:	1c43      	adds	r3, r0, #1
    13f6:	d1f0      	bne.n	13da <_printf_common+0x86>
    13f8:	2001      	movs	r0, #1
    13fa:	4240      	negs	r0, r0
    13fc:	bdfe      	pop	{r1, r2, r3, r4, r5, r6, r7, pc}
    13fe:	2030      	movs	r0, #48	; 0x30
    1400:	18e1      	adds	r1, r4, r3
    1402:	3143      	adds	r1, #67	; 0x43
    1404:	7008      	strb	r0, [r1, #0]
    1406:	0021      	movs	r1, r4
    1408:	1c5a      	adds	r2, r3, #1
    140a:	3145      	adds	r1, #69	; 0x45
    140c:	7809      	ldrb	r1, [r1, #0]
    140e:	18a2      	adds	r2, r4, r2
    1410:	3243      	adds	r2, #67	; 0x43
    1412:	3302      	adds	r3, #2
    1414:	7011      	strb	r1, [r2, #0]
    1416:	e7c1      	b.n	139c <_printf_common+0x48>
    1418:	0022      	movs	r2, r4
    141a:	2301      	movs	r3, #1
    141c:	321a      	adds	r2, #26
    141e:	9901      	ldr	r1, [sp, #4]
    1420:	9800      	ldr	r0, [sp, #0]
    1422:	9e08      	ldr	r6, [sp, #32]
    1424:	47b0      	blx	r6
    1426:	1c43      	adds	r3, r0, #1
    1428:	d0e6      	beq.n	13f8 <_printf_common+0xa4>
    142a:	3701      	adds	r7, #1
    142c:	e7d1      	b.n	13d2 <_printf_common+0x7e>
	...

00001430 <_printf_i>:
    1430:	b5f0      	push	{r4, r5, r6, r7, lr}
    1432:	b08b      	sub	sp, #44	; 0x2c
    1434:	9206      	str	r2, [sp, #24]
    1436:	000a      	movs	r2, r1
    1438:	3243      	adds	r2, #67	; 0x43
    143a:	9307      	str	r3, [sp, #28]
    143c:	9005      	str	r0, [sp, #20]
    143e:	9204      	str	r2, [sp, #16]
    1440:	7e0a      	ldrb	r2, [r1, #24]
    1442:	000c      	movs	r4, r1
    1444:	9b10      	ldr	r3, [sp, #64]	; 0x40
    1446:	2a6e      	cmp	r2, #110	; 0x6e
    1448:	d100      	bne.n	144c <_printf_i+0x1c>
    144a:	e08f      	b.n	156c <_printf_i+0x13c>
    144c:	d817      	bhi.n	147e <_printf_i+0x4e>
    144e:	2a63      	cmp	r2, #99	; 0x63
    1450:	d02c      	beq.n	14ac <_printf_i+0x7c>
    1452:	d808      	bhi.n	1466 <_printf_i+0x36>
    1454:	2a00      	cmp	r2, #0
    1456:	d100      	bne.n	145a <_printf_i+0x2a>
    1458:	e099      	b.n	158e <_printf_i+0x15e>
    145a:	2a58      	cmp	r2, #88	; 0x58
    145c:	d054      	beq.n	1508 <_printf_i+0xd8>
    145e:	0026      	movs	r6, r4
    1460:	3642      	adds	r6, #66	; 0x42
    1462:	7032      	strb	r2, [r6, #0]
    1464:	e029      	b.n	14ba <_printf_i+0x8a>
    1466:	2a64      	cmp	r2, #100	; 0x64
    1468:	d001      	beq.n	146e <_printf_i+0x3e>
    146a:	2a69      	cmp	r2, #105	; 0x69
    146c:	d1f7      	bne.n	145e <_printf_i+0x2e>
    146e:	6821      	ldr	r1, [r4, #0]
    1470:	681a      	ldr	r2, [r3, #0]
    1472:	0608      	lsls	r0, r1, #24
    1474:	d523      	bpl.n	14be <_printf_i+0x8e>
    1476:	1d11      	adds	r1, r2, #4
    1478:	6019      	str	r1, [r3, #0]
    147a:	6815      	ldr	r5, [r2, #0]
    147c:	e025      	b.n	14ca <_printf_i+0x9a>
    147e:	2a73      	cmp	r2, #115	; 0x73
    1480:	d100      	bne.n	1484 <_printf_i+0x54>
    1482:	e088      	b.n	1596 <_printf_i+0x166>
    1484:	d808      	bhi.n	1498 <_printf_i+0x68>
    1486:	2a6f      	cmp	r2, #111	; 0x6f
    1488:	d029      	beq.n	14de <_printf_i+0xae>
    148a:	2a70      	cmp	r2, #112	; 0x70
    148c:	d1e7      	bne.n	145e <_printf_i+0x2e>
    148e:	2220      	movs	r2, #32
    1490:	6809      	ldr	r1, [r1, #0]
    1492:	430a      	orrs	r2, r1
    1494:	6022      	str	r2, [r4, #0]
    1496:	e003      	b.n	14a0 <_printf_i+0x70>
    1498:	2a75      	cmp	r2, #117	; 0x75
    149a:	d020      	beq.n	14de <_printf_i+0xae>
    149c:	2a78      	cmp	r2, #120	; 0x78
    149e:	d1de      	bne.n	145e <_printf_i+0x2e>
    14a0:	0022      	movs	r2, r4
    14a2:	2178      	movs	r1, #120	; 0x78
    14a4:	3245      	adds	r2, #69	; 0x45
    14a6:	7011      	strb	r1, [r2, #0]
    14a8:	4a6c      	ldr	r2, [pc, #432]	; (165c <_printf_i+0x22c>)
    14aa:	e030      	b.n	150e <_printf_i+0xde>
    14ac:	000e      	movs	r6, r1
    14ae:	681a      	ldr	r2, [r3, #0]
    14b0:	3642      	adds	r6, #66	; 0x42
    14b2:	1d11      	adds	r1, r2, #4
    14b4:	6019      	str	r1, [r3, #0]
    14b6:	6813      	ldr	r3, [r2, #0]
    14b8:	7033      	strb	r3, [r6, #0]
    14ba:	2301      	movs	r3, #1
    14bc:	e079      	b.n	15b2 <_printf_i+0x182>
    14be:	0649      	lsls	r1, r1, #25
    14c0:	d5d9      	bpl.n	1476 <_printf_i+0x46>
    14c2:	1d11      	adds	r1, r2, #4
    14c4:	6019      	str	r1, [r3, #0]
    14c6:	2300      	movs	r3, #0
    14c8:	5ed5      	ldrsh	r5, [r2, r3]
    14ca:	2d00      	cmp	r5, #0
    14cc:	da03      	bge.n	14d6 <_printf_i+0xa6>
    14ce:	232d      	movs	r3, #45	; 0x2d
    14d0:	9a04      	ldr	r2, [sp, #16]
    14d2:	426d      	negs	r5, r5
    14d4:	7013      	strb	r3, [r2, #0]
    14d6:	4b62      	ldr	r3, [pc, #392]	; (1660 <_printf_i+0x230>)
    14d8:	270a      	movs	r7, #10
    14da:	9303      	str	r3, [sp, #12]
    14dc:	e02f      	b.n	153e <_printf_i+0x10e>
    14de:	6820      	ldr	r0, [r4, #0]
    14e0:	6819      	ldr	r1, [r3, #0]
    14e2:	0605      	lsls	r5, r0, #24
    14e4:	d503      	bpl.n	14ee <_printf_i+0xbe>
    14e6:	1d08      	adds	r0, r1, #4
    14e8:	6018      	str	r0, [r3, #0]
    14ea:	680d      	ldr	r5, [r1, #0]
    14ec:	e005      	b.n	14fa <_printf_i+0xca>
    14ee:	0640      	lsls	r0, r0, #25
    14f0:	d5f9      	bpl.n	14e6 <_printf_i+0xb6>
    14f2:	680d      	ldr	r5, [r1, #0]
    14f4:	1d08      	adds	r0, r1, #4
    14f6:	6018      	str	r0, [r3, #0]
    14f8:	b2ad      	uxth	r5, r5
    14fa:	4b59      	ldr	r3, [pc, #356]	; (1660 <_printf_i+0x230>)
    14fc:	2708      	movs	r7, #8
    14fe:	9303      	str	r3, [sp, #12]
    1500:	2a6f      	cmp	r2, #111	; 0x6f
    1502:	d018      	beq.n	1536 <_printf_i+0x106>
    1504:	270a      	movs	r7, #10
    1506:	e016      	b.n	1536 <_printf_i+0x106>
    1508:	3145      	adds	r1, #69	; 0x45
    150a:	700a      	strb	r2, [r1, #0]
    150c:	4a54      	ldr	r2, [pc, #336]	; (1660 <_printf_i+0x230>)
    150e:	9203      	str	r2, [sp, #12]
    1510:	681a      	ldr	r2, [r3, #0]
    1512:	6821      	ldr	r1, [r4, #0]
    1514:	1d10      	adds	r0, r2, #4
    1516:	6018      	str	r0, [r3, #0]
    1518:	6815      	ldr	r5, [r2, #0]
    151a:	0608      	lsls	r0, r1, #24
    151c:	d522      	bpl.n	1564 <_printf_i+0x134>
    151e:	07cb      	lsls	r3, r1, #31
    1520:	d502      	bpl.n	1528 <_printf_i+0xf8>
    1522:	2320      	movs	r3, #32
    1524:	4319      	orrs	r1, r3
    1526:	6021      	str	r1, [r4, #0]
    1528:	2710      	movs	r7, #16
    152a:	2d00      	cmp	r5, #0
    152c:	d103      	bne.n	1536 <_printf_i+0x106>
    152e:	2320      	movs	r3, #32
    1530:	6822      	ldr	r2, [r4, #0]
    1532:	439a      	bics	r2, r3
    1534:	6022      	str	r2, [r4, #0]
    1536:	0023      	movs	r3, r4
    1538:	2200      	movs	r2, #0
    153a:	3343      	adds	r3, #67	; 0x43
    153c:	701a      	strb	r2, [r3, #0]
    153e:	6863      	ldr	r3, [r4, #4]
    1540:	60a3      	str	r3, [r4, #8]
    1542:	2b00      	cmp	r3, #0
    1544:	db5c      	blt.n	1600 <_printf_i+0x1d0>
    1546:	2204      	movs	r2, #4
    1548:	6821      	ldr	r1, [r4, #0]
    154a:	4391      	bics	r1, r2
    154c:	6021      	str	r1, [r4, #0]
    154e:	2d00      	cmp	r5, #0
    1550:	d158      	bne.n	1604 <_printf_i+0x1d4>
    1552:	9e04      	ldr	r6, [sp, #16]
    1554:	2b00      	cmp	r3, #0
    1556:	d064      	beq.n	1622 <_printf_i+0x1f2>
    1558:	0026      	movs	r6, r4
    155a:	9b03      	ldr	r3, [sp, #12]
    155c:	3642      	adds	r6, #66	; 0x42
    155e:	781b      	ldrb	r3, [r3, #0]
    1560:	7033      	strb	r3, [r6, #0]
    1562:	e05e      	b.n	1622 <_printf_i+0x1f2>
    1564:	0648      	lsls	r0, r1, #25
    1566:	d5da      	bpl.n	151e <_printf_i+0xee>
    1568:	b2ad      	uxth	r5, r5
    156a:	e7d8      	b.n	151e <_printf_i+0xee>
    156c:	6809      	ldr	r1, [r1, #0]
    156e:	681a      	ldr	r2, [r3, #0]
    1570:	0608      	lsls	r0, r1, #24
    1572:	d505      	bpl.n	1580 <_printf_i+0x150>
    1574:	1d11      	adds	r1, r2, #4
    1576:	6019      	str	r1, [r3, #0]
    1578:	6813      	ldr	r3, [r2, #0]
    157a:	6962      	ldr	r2, [r4, #20]
    157c:	601a      	str	r2, [r3, #0]
    157e:	e006      	b.n	158e <_printf_i+0x15e>
    1580:	0649      	lsls	r1, r1, #25
    1582:	d5f7      	bpl.n	1574 <_printf_i+0x144>
    1584:	1d11      	adds	r1, r2, #4
    1586:	6019      	str	r1, [r3, #0]
    1588:	6813      	ldr	r3, [r2, #0]
    158a:	8aa2      	ldrh	r2, [r4, #20]
    158c:	801a      	strh	r2, [r3, #0]
    158e:	2300      	movs	r3, #0
    1590:	9e04      	ldr	r6, [sp, #16]
    1592:	6123      	str	r3, [r4, #16]
    1594:	e054      	b.n	1640 <_printf_i+0x210>
    1596:	681a      	ldr	r2, [r3, #0]
    1598:	1d11      	adds	r1, r2, #4
    159a:	6019      	str	r1, [r3, #0]
    159c:	6816      	ldr	r6, [r2, #0]
    159e:	2100      	movs	r1, #0
    15a0:	6862      	ldr	r2, [r4, #4]
    15a2:	0030      	movs	r0, r6
    15a4:	f001 fa7e 	bl	2aa4 <memchr>
    15a8:	2800      	cmp	r0, #0
    15aa:	d001      	beq.n	15b0 <_printf_i+0x180>
    15ac:	1b80      	subs	r0, r0, r6
    15ae:	6060      	str	r0, [r4, #4]
    15b0:	6863      	ldr	r3, [r4, #4]
    15b2:	6123      	str	r3, [r4, #16]
    15b4:	2300      	movs	r3, #0
    15b6:	9a04      	ldr	r2, [sp, #16]
    15b8:	7013      	strb	r3, [r2, #0]
    15ba:	e041      	b.n	1640 <_printf_i+0x210>
    15bc:	6923      	ldr	r3, [r4, #16]
    15be:	0032      	movs	r2, r6
    15c0:	9906      	ldr	r1, [sp, #24]
    15c2:	9805      	ldr	r0, [sp, #20]
    15c4:	9d07      	ldr	r5, [sp, #28]
    15c6:	47a8      	blx	r5
    15c8:	1c43      	adds	r3, r0, #1
    15ca:	d043      	beq.n	1654 <_printf_i+0x224>
    15cc:	6823      	ldr	r3, [r4, #0]
    15ce:	2500      	movs	r5, #0
    15d0:	079b      	lsls	r3, r3, #30
    15d2:	d40f      	bmi.n	15f4 <_printf_i+0x1c4>
    15d4:	9b09      	ldr	r3, [sp, #36]	; 0x24
    15d6:	68e0      	ldr	r0, [r4, #12]
    15d8:	4298      	cmp	r0, r3
    15da:	da3d      	bge.n	1658 <_printf_i+0x228>
    15dc:	0018      	movs	r0, r3
    15de:	e03b      	b.n	1658 <_printf_i+0x228>
    15e0:	0022      	movs	r2, r4
    15e2:	2301      	movs	r3, #1
    15e4:	3219      	adds	r2, #25
    15e6:	9906      	ldr	r1, [sp, #24]
    15e8:	9805      	ldr	r0, [sp, #20]
    15ea:	9e07      	ldr	r6, [sp, #28]
    15ec:	47b0      	blx	r6
    15ee:	1c43      	adds	r3, r0, #1
    15f0:	d030      	beq.n	1654 <_printf_i+0x224>
    15f2:	3501      	adds	r5, #1
    15f4:	68e3      	ldr	r3, [r4, #12]
    15f6:	9a09      	ldr	r2, [sp, #36]	; 0x24
    15f8:	1a9b      	subs	r3, r3, r2
    15fa:	429d      	cmp	r5, r3
    15fc:	dbf0      	blt.n	15e0 <_printf_i+0x1b0>
    15fe:	e7e9      	b.n	15d4 <_printf_i+0x1a4>
    1600:	2d00      	cmp	r5, #0
    1602:	d0a9      	beq.n	1558 <_printf_i+0x128>
    1604:	9e04      	ldr	r6, [sp, #16]
    1606:	0028      	movs	r0, r5
    1608:	0039      	movs	r1, r7
    160a:	f002 f8bb 	bl	3784 <__aeabi_uidivmod>
    160e:	9b03      	ldr	r3, [sp, #12]
    1610:	3e01      	subs	r6, #1
    1612:	5c5b      	ldrb	r3, [r3, r1]
    1614:	0028      	movs	r0, r5
    1616:	7033      	strb	r3, [r6, #0]
    1618:	0039      	movs	r1, r7
    161a:	f002 f82d 	bl	3678 <__udivsi3>
    161e:	1e05      	subs	r5, r0, #0
    1620:	d1f1      	bne.n	1606 <_printf_i+0x1d6>
    1622:	2f08      	cmp	r7, #8
    1624:	d109      	bne.n	163a <_printf_i+0x20a>
    1626:	6823      	ldr	r3, [r4, #0]
    1628:	07db      	lsls	r3, r3, #31
    162a:	d506      	bpl.n	163a <_printf_i+0x20a>
    162c:	6863      	ldr	r3, [r4, #4]
    162e:	6922      	ldr	r2, [r4, #16]
    1630:	4293      	cmp	r3, r2
    1632:	dc02      	bgt.n	163a <_printf_i+0x20a>
    1634:	2330      	movs	r3, #48	; 0x30
    1636:	3e01      	subs	r6, #1
    1638:	7033      	strb	r3, [r6, #0]
    163a:	9b04      	ldr	r3, [sp, #16]
    163c:	1b9b      	subs	r3, r3, r6
    163e:	6123      	str	r3, [r4, #16]
    1640:	9b07      	ldr	r3, [sp, #28]
    1642:	aa09      	add	r2, sp, #36	; 0x24
    1644:	9300      	str	r3, [sp, #0]
    1646:	0021      	movs	r1, r4
    1648:	9b06      	ldr	r3, [sp, #24]
    164a:	9805      	ldr	r0, [sp, #20]
    164c:	f7ff fe82 	bl	1354 <_printf_common>
    1650:	1c43      	adds	r3, r0, #1
    1652:	d1b3      	bne.n	15bc <_printf_i+0x18c>
    1654:	2001      	movs	r0, #1
    1656:	4240      	negs	r0, r0
    1658:	b00b      	add	sp, #44	; 0x2c
    165a:	bdf0      	pop	{r4, r5, r6, r7, pc}
    165c:	000056a7 	.word	0x000056a7
    1660:	00005696 	.word	0x00005696

00001664 <iprintf>:
    1664:	b40f      	push	{r0, r1, r2, r3}
    1666:	4b0b      	ldr	r3, [pc, #44]	; (1694 <iprintf+0x30>)
    1668:	b513      	push	{r0, r1, r4, lr}
    166a:	681c      	ldr	r4, [r3, #0]
    166c:	2c00      	cmp	r4, #0
    166e:	d005      	beq.n	167c <iprintf+0x18>
    1670:	69a3      	ldr	r3, [r4, #24]
    1672:	2b00      	cmp	r3, #0
    1674:	d102      	bne.n	167c <iprintf+0x18>
    1676:	0020      	movs	r0, r4
    1678:	f001 f8fc 	bl	2874 <__sinit>
    167c:	ab05      	add	r3, sp, #20
    167e:	9a04      	ldr	r2, [sp, #16]
    1680:	68a1      	ldr	r1, [r4, #8]
    1682:	0020      	movs	r0, r4
    1684:	9301      	str	r3, [sp, #4]
    1686:	f001 fde1 	bl	324c <_vfiprintf_r>
    168a:	bc16      	pop	{r1, r2, r4}
    168c:	bc08      	pop	{r3}
    168e:	b004      	add	sp, #16
    1690:	4718      	bx	r3
    1692:	46c0      	nop			; (mov r8, r8)
    1694:	20000000 	.word	0x20000000

00001698 <setbuf>:
    1698:	424a      	negs	r2, r1
    169a:	414a      	adcs	r2, r1
    169c:	2380      	movs	r3, #128	; 0x80
    169e:	b510      	push	{r4, lr}
    16a0:	0052      	lsls	r2, r2, #1
    16a2:	00db      	lsls	r3, r3, #3
    16a4:	f000 f802 	bl	16ac <setvbuf>
    16a8:	bd10      	pop	{r4, pc}
	...

000016ac <setvbuf>:
    16ac:	b5f0      	push	{r4, r5, r6, r7, lr}
    16ae:	001d      	movs	r5, r3
    16b0:	4b4f      	ldr	r3, [pc, #316]	; (17f0 <setvbuf+0x144>)
    16b2:	b085      	sub	sp, #20
    16b4:	681e      	ldr	r6, [r3, #0]
    16b6:	0004      	movs	r4, r0
    16b8:	000f      	movs	r7, r1
    16ba:	9200      	str	r2, [sp, #0]
    16bc:	2e00      	cmp	r6, #0
    16be:	d005      	beq.n	16cc <setvbuf+0x20>
    16c0:	69b3      	ldr	r3, [r6, #24]
    16c2:	2b00      	cmp	r3, #0
    16c4:	d102      	bne.n	16cc <setvbuf+0x20>
    16c6:	0030      	movs	r0, r6
    16c8:	f001 f8d4 	bl	2874 <__sinit>
    16cc:	4b49      	ldr	r3, [pc, #292]	; (17f4 <setvbuf+0x148>)
    16ce:	429c      	cmp	r4, r3
    16d0:	d150      	bne.n	1774 <setvbuf+0xc8>
    16d2:	6874      	ldr	r4, [r6, #4]
    16d4:	9b00      	ldr	r3, [sp, #0]
    16d6:	2b02      	cmp	r3, #2
    16d8:	d005      	beq.n	16e6 <setvbuf+0x3a>
    16da:	2b01      	cmp	r3, #1
    16dc:	d900      	bls.n	16e0 <setvbuf+0x34>
    16de:	e084      	b.n	17ea <setvbuf+0x13e>
    16e0:	2d00      	cmp	r5, #0
    16e2:	da00      	bge.n	16e6 <setvbuf+0x3a>
    16e4:	e081      	b.n	17ea <setvbuf+0x13e>
    16e6:	0021      	movs	r1, r4
    16e8:	0030      	movs	r0, r6
    16ea:	f001 f855 	bl	2798 <_fflush_r>
    16ee:	6b61      	ldr	r1, [r4, #52]	; 0x34
    16f0:	2900      	cmp	r1, #0
    16f2:	d008      	beq.n	1706 <setvbuf+0x5a>
    16f4:	0023      	movs	r3, r4
    16f6:	3344      	adds	r3, #68	; 0x44
    16f8:	4299      	cmp	r1, r3
    16fa:	d002      	beq.n	1702 <setvbuf+0x56>
    16fc:	0030      	movs	r0, r6
    16fe:	f001 fcd5 	bl	30ac <_free_r>
    1702:	2300      	movs	r3, #0
    1704:	6363      	str	r3, [r4, #52]	; 0x34
    1706:	2300      	movs	r3, #0
    1708:	61a3      	str	r3, [r4, #24]
    170a:	6063      	str	r3, [r4, #4]
    170c:	89a3      	ldrh	r3, [r4, #12]
    170e:	061b      	lsls	r3, r3, #24
    1710:	d503      	bpl.n	171a <setvbuf+0x6e>
    1712:	6921      	ldr	r1, [r4, #16]
    1714:	0030      	movs	r0, r6
    1716:	f001 fcc9 	bl	30ac <_free_r>
    171a:	89a3      	ldrh	r3, [r4, #12]
    171c:	4a36      	ldr	r2, [pc, #216]	; (17f8 <setvbuf+0x14c>)
    171e:	4013      	ands	r3, r2
    1720:	81a3      	strh	r3, [r4, #12]
    1722:	9b00      	ldr	r3, [sp, #0]
    1724:	2b02      	cmp	r3, #2
    1726:	d05a      	beq.n	17de <setvbuf+0x132>
    1728:	ab03      	add	r3, sp, #12
    172a:	aa02      	add	r2, sp, #8
    172c:	0021      	movs	r1, r4
    172e:	0030      	movs	r0, r6
    1730:	f001 f942 	bl	29b8 <__swhatbuf_r>
    1734:	89a3      	ldrh	r3, [r4, #12]
    1736:	4318      	orrs	r0, r3
    1738:	81a0      	strh	r0, [r4, #12]
    173a:	2d00      	cmp	r5, #0
    173c:	d124      	bne.n	1788 <setvbuf+0xdc>
    173e:	9d02      	ldr	r5, [sp, #8]
    1740:	0028      	movs	r0, r5
    1742:	f001 f9a5 	bl	2a90 <malloc>
    1746:	9501      	str	r5, [sp, #4]
    1748:	1e07      	subs	r7, r0, #0
    174a:	d142      	bne.n	17d2 <setvbuf+0x126>
    174c:	9b02      	ldr	r3, [sp, #8]
    174e:	9301      	str	r3, [sp, #4]
    1750:	42ab      	cmp	r3, r5
    1752:	d139      	bne.n	17c8 <setvbuf+0x11c>
    1754:	2001      	movs	r0, #1
    1756:	4240      	negs	r0, r0
    1758:	2302      	movs	r3, #2
    175a:	89a2      	ldrh	r2, [r4, #12]
    175c:	4313      	orrs	r3, r2
    175e:	81a3      	strh	r3, [r4, #12]
    1760:	2300      	movs	r3, #0
    1762:	60a3      	str	r3, [r4, #8]
    1764:	0023      	movs	r3, r4
    1766:	3347      	adds	r3, #71	; 0x47
    1768:	6023      	str	r3, [r4, #0]
    176a:	6123      	str	r3, [r4, #16]
    176c:	2301      	movs	r3, #1
    176e:	6163      	str	r3, [r4, #20]
    1770:	b005      	add	sp, #20
    1772:	bdf0      	pop	{r4, r5, r6, r7, pc}
    1774:	4b21      	ldr	r3, [pc, #132]	; (17fc <setvbuf+0x150>)
    1776:	429c      	cmp	r4, r3
    1778:	d101      	bne.n	177e <setvbuf+0xd2>
    177a:	68b4      	ldr	r4, [r6, #8]
    177c:	e7aa      	b.n	16d4 <setvbuf+0x28>
    177e:	4b20      	ldr	r3, [pc, #128]	; (1800 <setvbuf+0x154>)
    1780:	429c      	cmp	r4, r3
    1782:	d1a7      	bne.n	16d4 <setvbuf+0x28>
    1784:	68f4      	ldr	r4, [r6, #12]
    1786:	e7a5      	b.n	16d4 <setvbuf+0x28>
    1788:	2f00      	cmp	r7, #0
    178a:	d0d9      	beq.n	1740 <setvbuf+0x94>
    178c:	69b3      	ldr	r3, [r6, #24]
    178e:	2b00      	cmp	r3, #0
    1790:	d102      	bne.n	1798 <setvbuf+0xec>
    1792:	0030      	movs	r0, r6
    1794:	f001 f86e 	bl	2874 <__sinit>
    1798:	9b00      	ldr	r3, [sp, #0]
    179a:	2b01      	cmp	r3, #1
    179c:	d103      	bne.n	17a6 <setvbuf+0xfa>
    179e:	89a3      	ldrh	r3, [r4, #12]
    17a0:	9a00      	ldr	r2, [sp, #0]
    17a2:	431a      	orrs	r2, r3
    17a4:	81a2      	strh	r2, [r4, #12]
    17a6:	2008      	movs	r0, #8
    17a8:	89a3      	ldrh	r3, [r4, #12]
    17aa:	6027      	str	r7, [r4, #0]
    17ac:	6127      	str	r7, [r4, #16]
    17ae:	6165      	str	r5, [r4, #20]
    17b0:	4018      	ands	r0, r3
    17b2:	d018      	beq.n	17e6 <setvbuf+0x13a>
    17b4:	2001      	movs	r0, #1
    17b6:	4018      	ands	r0, r3
    17b8:	2300      	movs	r3, #0
    17ba:	4298      	cmp	r0, r3
    17bc:	d011      	beq.n	17e2 <setvbuf+0x136>
    17be:	426d      	negs	r5, r5
    17c0:	60a3      	str	r3, [r4, #8]
    17c2:	61a5      	str	r5, [r4, #24]
    17c4:	0018      	movs	r0, r3
    17c6:	e7d3      	b.n	1770 <setvbuf+0xc4>
    17c8:	9801      	ldr	r0, [sp, #4]
    17ca:	f001 f961 	bl	2a90 <malloc>
    17ce:	1e07      	subs	r7, r0, #0
    17d0:	d0c0      	beq.n	1754 <setvbuf+0xa8>
    17d2:	2380      	movs	r3, #128	; 0x80
    17d4:	89a2      	ldrh	r2, [r4, #12]
    17d6:	9d01      	ldr	r5, [sp, #4]
    17d8:	4313      	orrs	r3, r2
    17da:	81a3      	strh	r3, [r4, #12]
    17dc:	e7d6      	b.n	178c <setvbuf+0xe0>
    17de:	2000      	movs	r0, #0
    17e0:	e7ba      	b.n	1758 <setvbuf+0xac>
    17e2:	60a5      	str	r5, [r4, #8]
    17e4:	e7c4      	b.n	1770 <setvbuf+0xc4>
    17e6:	60a0      	str	r0, [r4, #8]
    17e8:	e7c2      	b.n	1770 <setvbuf+0xc4>
    17ea:	2001      	movs	r0, #1
    17ec:	4240      	negs	r0, r0
    17ee:	e7bf      	b.n	1770 <setvbuf+0xc4>
    17f0:	20000000 	.word	0x20000000
    17f4:	000056e8 	.word	0x000056e8
    17f8:	fffff35c 	.word	0xfffff35c
    17fc:	00005708 	.word	0x00005708
    1800:	000056c8 	.word	0x000056c8

00001804 <strlen>:
    1804:	2300      	movs	r3, #0
    1806:	5cc2      	ldrb	r2, [r0, r3]
    1808:	3301      	adds	r3, #1
    180a:	2a00      	cmp	r2, #0
    180c:	d1fb      	bne.n	1806 <strlen+0x2>
    180e:	1e58      	subs	r0, r3, #1
    1810:	4770      	bx	lr
	...

00001814 <__swbuf_r>:
    1814:	b5f8      	push	{r3, r4, r5, r6, r7, lr}
    1816:	0005      	movs	r5, r0
    1818:	000e      	movs	r6, r1
    181a:	0014      	movs	r4, r2
    181c:	2800      	cmp	r0, #0
    181e:	d004      	beq.n	182a <__swbuf_r+0x16>
    1820:	6983      	ldr	r3, [r0, #24]
    1822:	2b00      	cmp	r3, #0
    1824:	d101      	bne.n	182a <__swbuf_r+0x16>
    1826:	f001 f825 	bl	2874 <__sinit>
    182a:	4b22      	ldr	r3, [pc, #136]	; (18b4 <__swbuf_r+0xa0>)
    182c:	429c      	cmp	r4, r3
    182e:	d12d      	bne.n	188c <__swbuf_r+0x78>
    1830:	686c      	ldr	r4, [r5, #4]
    1832:	69a3      	ldr	r3, [r4, #24]
    1834:	60a3      	str	r3, [r4, #8]
    1836:	89a3      	ldrh	r3, [r4, #12]
    1838:	071b      	lsls	r3, r3, #28
    183a:	d531      	bpl.n	18a0 <__swbuf_r+0x8c>
    183c:	6923      	ldr	r3, [r4, #16]
    183e:	2b00      	cmp	r3, #0
    1840:	d02e      	beq.n	18a0 <__swbuf_r+0x8c>
    1842:	6823      	ldr	r3, [r4, #0]
    1844:	6922      	ldr	r2, [r4, #16]
    1846:	b2f7      	uxtb	r7, r6
    1848:	1a98      	subs	r0, r3, r2
    184a:	6963      	ldr	r3, [r4, #20]
    184c:	b2f6      	uxtb	r6, r6
    184e:	4298      	cmp	r0, r3
    1850:	db05      	blt.n	185e <__swbuf_r+0x4a>
    1852:	0021      	movs	r1, r4
    1854:	0028      	movs	r0, r5
    1856:	f000 ff9f 	bl	2798 <_fflush_r>
    185a:	2800      	cmp	r0, #0
    185c:	d126      	bne.n	18ac <__swbuf_r+0x98>
    185e:	68a3      	ldr	r3, [r4, #8]
    1860:	3001      	adds	r0, #1
    1862:	3b01      	subs	r3, #1
    1864:	60a3      	str	r3, [r4, #8]
    1866:	6823      	ldr	r3, [r4, #0]
    1868:	1c5a      	adds	r2, r3, #1
    186a:	6022      	str	r2, [r4, #0]
    186c:	701f      	strb	r7, [r3, #0]
    186e:	6963      	ldr	r3, [r4, #20]
    1870:	4298      	cmp	r0, r3
    1872:	d004      	beq.n	187e <__swbuf_r+0x6a>
    1874:	89a3      	ldrh	r3, [r4, #12]
    1876:	07db      	lsls	r3, r3, #31
    1878:	d51a      	bpl.n	18b0 <__swbuf_r+0x9c>
    187a:	2e0a      	cmp	r6, #10
    187c:	d118      	bne.n	18b0 <__swbuf_r+0x9c>
    187e:	0021      	movs	r1, r4
    1880:	0028      	movs	r0, r5
    1882:	f000 ff89 	bl	2798 <_fflush_r>
    1886:	2800      	cmp	r0, #0
    1888:	d012      	beq.n	18b0 <__swbuf_r+0x9c>
    188a:	e00f      	b.n	18ac <__swbuf_r+0x98>
    188c:	4b0a      	ldr	r3, [pc, #40]	; (18b8 <__swbuf_r+0xa4>)
    188e:	429c      	cmp	r4, r3
    1890:	d101      	bne.n	1896 <__swbuf_r+0x82>
    1892:	68ac      	ldr	r4, [r5, #8]
    1894:	e7cd      	b.n	1832 <__swbuf_r+0x1e>
    1896:	4b09      	ldr	r3, [pc, #36]	; (18bc <__swbuf_r+0xa8>)
    1898:	429c      	cmp	r4, r3
    189a:	d1ca      	bne.n	1832 <__swbuf_r+0x1e>
    189c:	68ec      	ldr	r4, [r5, #12]
    189e:	e7c8      	b.n	1832 <__swbuf_r+0x1e>
    18a0:	0021      	movs	r1, r4
    18a2:	0028      	movs	r0, r5
    18a4:	f000 f80c 	bl	18c0 <__swsetup_r>
    18a8:	2800      	cmp	r0, #0
    18aa:	d0ca      	beq.n	1842 <__swbuf_r+0x2e>
    18ac:	2601      	movs	r6, #1
    18ae:	4276      	negs	r6, r6
    18b0:	0030      	movs	r0, r6
    18b2:	bdf8      	pop	{r3, r4, r5, r6, r7, pc}
    18b4:	000056e8 	.word	0x000056e8
    18b8:	00005708 	.word	0x00005708
    18bc:	000056c8 	.word	0x000056c8

000018c0 <__swsetup_r>:
    18c0:	4b36      	ldr	r3, [pc, #216]	; (199c <__swsetup_r+0xdc>)
    18c2:	b570      	push	{r4, r5, r6, lr}
    18c4:	681d      	ldr	r5, [r3, #0]
    18c6:	0006      	movs	r6, r0
    18c8:	000c      	movs	r4, r1
    18ca:	2d00      	cmp	r5, #0
    18cc:	d005      	beq.n	18da <__swsetup_r+0x1a>
    18ce:	69ab      	ldr	r3, [r5, #24]
    18d0:	2b00      	cmp	r3, #0
    18d2:	d102      	bne.n	18da <__swsetup_r+0x1a>
    18d4:	0028      	movs	r0, r5
    18d6:	f000 ffcd 	bl	2874 <__sinit>
    18da:	4b31      	ldr	r3, [pc, #196]	; (19a0 <__swsetup_r+0xe0>)
    18dc:	429c      	cmp	r4, r3
    18de:	d10f      	bne.n	1900 <__swsetup_r+0x40>
    18e0:	686c      	ldr	r4, [r5, #4]
    18e2:	230c      	movs	r3, #12
    18e4:	5ee2      	ldrsh	r2, [r4, r3]
    18e6:	b293      	uxth	r3, r2
    18e8:	0719      	lsls	r1, r3, #28
    18ea:	d42d      	bmi.n	1948 <__swsetup_r+0x88>
    18ec:	06d9      	lsls	r1, r3, #27
    18ee:	d411      	bmi.n	1914 <__swsetup_r+0x54>
    18f0:	2309      	movs	r3, #9
    18f2:	2001      	movs	r0, #1
    18f4:	6033      	str	r3, [r6, #0]
    18f6:	3337      	adds	r3, #55	; 0x37
    18f8:	4313      	orrs	r3, r2
    18fa:	81a3      	strh	r3, [r4, #12]
    18fc:	4240      	negs	r0, r0
    18fe:	bd70      	pop	{r4, r5, r6, pc}
    1900:	4b28      	ldr	r3, [pc, #160]	; (19a4 <__swsetup_r+0xe4>)
    1902:	429c      	cmp	r4, r3
    1904:	d101      	bne.n	190a <__swsetup_r+0x4a>
    1906:	68ac      	ldr	r4, [r5, #8]
    1908:	e7eb      	b.n	18e2 <__swsetup_r+0x22>
    190a:	4b27      	ldr	r3, [pc, #156]	; (19a8 <__swsetup_r+0xe8>)
    190c:	429c      	cmp	r4, r3
    190e:	d1e8      	bne.n	18e2 <__swsetup_r+0x22>
    1910:	68ec      	ldr	r4, [r5, #12]
    1912:	e7e6      	b.n	18e2 <__swsetup_r+0x22>
    1914:	075b      	lsls	r3, r3, #29
    1916:	d513      	bpl.n	1940 <__swsetup_r+0x80>
    1918:	6b61      	ldr	r1, [r4, #52]	; 0x34
    191a:	2900      	cmp	r1, #0
    191c:	d008      	beq.n	1930 <__swsetup_r+0x70>
    191e:	0023      	movs	r3, r4
    1920:	3344      	adds	r3, #68	; 0x44
    1922:	4299      	cmp	r1, r3
    1924:	d002      	beq.n	192c <__swsetup_r+0x6c>
    1926:	0030      	movs	r0, r6
    1928:	f001 fbc0 	bl	30ac <_free_r>
    192c:	2300      	movs	r3, #0
    192e:	6363      	str	r3, [r4, #52]	; 0x34
    1930:	2224      	movs	r2, #36	; 0x24
    1932:	89a3      	ldrh	r3, [r4, #12]
    1934:	4393      	bics	r3, r2
    1936:	81a3      	strh	r3, [r4, #12]
    1938:	2300      	movs	r3, #0
    193a:	6063      	str	r3, [r4, #4]
    193c:	6923      	ldr	r3, [r4, #16]
    193e:	6023      	str	r3, [r4, #0]
    1940:	2308      	movs	r3, #8
    1942:	89a2      	ldrh	r2, [r4, #12]
    1944:	4313      	orrs	r3, r2
    1946:	81a3      	strh	r3, [r4, #12]
    1948:	6923      	ldr	r3, [r4, #16]
    194a:	2b00      	cmp	r3, #0
    194c:	d10b      	bne.n	1966 <__swsetup_r+0xa6>
    194e:	21a0      	movs	r1, #160	; 0xa0
    1950:	2280      	movs	r2, #128	; 0x80
    1952:	89a3      	ldrh	r3, [r4, #12]
    1954:	0089      	lsls	r1, r1, #2
    1956:	0092      	lsls	r2, r2, #2
    1958:	400b      	ands	r3, r1
    195a:	4293      	cmp	r3, r2
    195c:	d003      	beq.n	1966 <__swsetup_r+0xa6>
    195e:	0021      	movs	r1, r4
    1960:	0030      	movs	r0, r6
    1962:	f001 f851 	bl	2a08 <__smakebuf_r>
    1966:	2301      	movs	r3, #1
    1968:	89a2      	ldrh	r2, [r4, #12]
    196a:	4013      	ands	r3, r2
    196c:	d011      	beq.n	1992 <__swsetup_r+0xd2>
    196e:	2300      	movs	r3, #0
    1970:	60a3      	str	r3, [r4, #8]
    1972:	6963      	ldr	r3, [r4, #20]
    1974:	425b      	negs	r3, r3
    1976:	61a3      	str	r3, [r4, #24]
    1978:	2000      	movs	r0, #0
    197a:	6923      	ldr	r3, [r4, #16]
    197c:	4283      	cmp	r3, r0
    197e:	d1be      	bne.n	18fe <__swsetup_r+0x3e>
    1980:	230c      	movs	r3, #12
    1982:	5ee2      	ldrsh	r2, [r4, r3]
    1984:	0613      	lsls	r3, r2, #24
    1986:	d5ba      	bpl.n	18fe <__swsetup_r+0x3e>
    1988:	2340      	movs	r3, #64	; 0x40
    198a:	4313      	orrs	r3, r2
    198c:	81a3      	strh	r3, [r4, #12]
    198e:	3801      	subs	r0, #1
    1990:	e7b5      	b.n	18fe <__swsetup_r+0x3e>
    1992:	0792      	lsls	r2, r2, #30
    1994:	d400      	bmi.n	1998 <__swsetup_r+0xd8>
    1996:	6963      	ldr	r3, [r4, #20]
    1998:	60a3      	str	r3, [r4, #8]
    199a:	e7ed      	b.n	1978 <__swsetup_r+0xb8>
    199c:	20000000 	.word	0x20000000
    19a0:	000056e8 	.word	0x000056e8
    19a4:	00005708 	.word	0x00005708
    19a8:	000056c8 	.word	0x000056c8

000019ac <quorem>:
    19ac:	b5f0      	push	{r4, r5, r6, r7, lr}
    19ae:	6903      	ldr	r3, [r0, #16]
    19b0:	690c      	ldr	r4, [r1, #16]
    19b2:	b089      	sub	sp, #36	; 0x24
    19b4:	0007      	movs	r7, r0
    19b6:	9105      	str	r1, [sp, #20]
    19b8:	2600      	movs	r6, #0
    19ba:	429c      	cmp	r4, r3
    19bc:	dc6d      	bgt.n	1a9a <quorem+0xee>
    19be:	000b      	movs	r3, r1
    19c0:	3c01      	subs	r4, #1
    19c2:	3314      	adds	r3, #20
    19c4:	00a5      	lsls	r5, r4, #2
    19c6:	9303      	str	r3, [sp, #12]
    19c8:	195b      	adds	r3, r3, r5
    19ca:	9304      	str	r3, [sp, #16]
    19cc:	0003      	movs	r3, r0
    19ce:	3314      	adds	r3, #20
    19d0:	9302      	str	r3, [sp, #8]
    19d2:	195d      	adds	r5, r3, r5
    19d4:	9b04      	ldr	r3, [sp, #16]
    19d6:	6828      	ldr	r0, [r5, #0]
    19d8:	681b      	ldr	r3, [r3, #0]
    19da:	1c59      	adds	r1, r3, #1
    19dc:	9301      	str	r3, [sp, #4]
    19de:	f001 fe4b 	bl	3678 <__udivsi3>
    19e2:	9001      	str	r0, [sp, #4]
    19e4:	42b0      	cmp	r0, r6
    19e6:	d02d      	beq.n	1a44 <quorem+0x98>
    19e8:	9b03      	ldr	r3, [sp, #12]
    19ea:	9802      	ldr	r0, [sp, #8]
    19ec:	469c      	mov	ip, r3
    19ee:	9606      	str	r6, [sp, #24]
    19f0:	4662      	mov	r2, ip
    19f2:	ca08      	ldmia	r2!, {r3}
    19f4:	4694      	mov	ip, r2
    19f6:	9a01      	ldr	r2, [sp, #4]
    19f8:	b299      	uxth	r1, r3
    19fa:	4351      	muls	r1, r2
    19fc:	0c1b      	lsrs	r3, r3, #16
    19fe:	4353      	muls	r3, r2
    1a00:	1989      	adds	r1, r1, r6
    1a02:	0c0a      	lsrs	r2, r1, #16
    1a04:	189b      	adds	r3, r3, r2
    1a06:	9307      	str	r3, [sp, #28]
    1a08:	8802      	ldrh	r2, [r0, #0]
    1a0a:	0c1e      	lsrs	r6, r3, #16
    1a0c:	9b06      	ldr	r3, [sp, #24]
    1a0e:	b289      	uxth	r1, r1
    1a10:	18d2      	adds	r2, r2, r3
    1a12:	6803      	ldr	r3, [r0, #0]
    1a14:	1a52      	subs	r2, r2, r1
    1a16:	0c19      	lsrs	r1, r3, #16
    1a18:	466b      	mov	r3, sp
    1a1a:	8b9b      	ldrh	r3, [r3, #28]
    1a1c:	1acb      	subs	r3, r1, r3
    1a1e:	1411      	asrs	r1, r2, #16
    1a20:	185b      	adds	r3, r3, r1
    1a22:	1419      	asrs	r1, r3, #16
    1a24:	b292      	uxth	r2, r2
    1a26:	041b      	lsls	r3, r3, #16
    1a28:	431a      	orrs	r2, r3
    1a2a:	9b04      	ldr	r3, [sp, #16]
    1a2c:	9106      	str	r1, [sp, #24]
    1a2e:	c004      	stmia	r0!, {r2}
    1a30:	4563      	cmp	r3, ip
    1a32:	d2dd      	bcs.n	19f0 <quorem+0x44>
    1a34:	682b      	ldr	r3, [r5, #0]
    1a36:	2b00      	cmp	r3, #0
    1a38:	d104      	bne.n	1a44 <quorem+0x98>
    1a3a:	9b02      	ldr	r3, [sp, #8]
    1a3c:	3d04      	subs	r5, #4
    1a3e:	42ab      	cmp	r3, r5
    1a40:	d32e      	bcc.n	1aa0 <quorem+0xf4>
    1a42:	613c      	str	r4, [r7, #16]
    1a44:	9905      	ldr	r1, [sp, #20]
    1a46:	0038      	movs	r0, r7
    1a48:	f001 fa51 	bl	2eee <__mcmp>
    1a4c:	2800      	cmp	r0, #0
    1a4e:	db23      	blt.n	1a98 <quorem+0xec>
    1a50:	2500      	movs	r5, #0
    1a52:	9b01      	ldr	r3, [sp, #4]
    1a54:	9802      	ldr	r0, [sp, #8]
    1a56:	3301      	adds	r3, #1
    1a58:	9903      	ldr	r1, [sp, #12]
    1a5a:	9301      	str	r3, [sp, #4]
    1a5c:	c908      	ldmia	r1!, {r3}
    1a5e:	8802      	ldrh	r2, [r0, #0]
    1a60:	1955      	adds	r5, r2, r5
    1a62:	b29a      	uxth	r2, r3
    1a64:	1aaa      	subs	r2, r5, r2
    1a66:	6805      	ldr	r5, [r0, #0]
    1a68:	0c1b      	lsrs	r3, r3, #16
    1a6a:	0c2d      	lsrs	r5, r5, #16
    1a6c:	1aeb      	subs	r3, r5, r3
    1a6e:	1415      	asrs	r5, r2, #16
    1a70:	195b      	adds	r3, r3, r5
    1a72:	141d      	asrs	r5, r3, #16
    1a74:	b292      	uxth	r2, r2
    1a76:	041b      	lsls	r3, r3, #16
    1a78:	4313      	orrs	r3, r2
    1a7a:	c008      	stmia	r0!, {r3}
    1a7c:	9b04      	ldr	r3, [sp, #16]
    1a7e:	428b      	cmp	r3, r1
    1a80:	d2ec      	bcs.n	1a5c <quorem+0xb0>
    1a82:	9a02      	ldr	r2, [sp, #8]
    1a84:	00a3      	lsls	r3, r4, #2
    1a86:	18d3      	adds	r3, r2, r3
    1a88:	681a      	ldr	r2, [r3, #0]
    1a8a:	2a00      	cmp	r2, #0
    1a8c:	d104      	bne.n	1a98 <quorem+0xec>
    1a8e:	9a02      	ldr	r2, [sp, #8]
    1a90:	3b04      	subs	r3, #4
    1a92:	429a      	cmp	r2, r3
    1a94:	d309      	bcc.n	1aaa <quorem+0xfe>
    1a96:	613c      	str	r4, [r7, #16]
    1a98:	9e01      	ldr	r6, [sp, #4]
    1a9a:	0030      	movs	r0, r6
    1a9c:	b009      	add	sp, #36	; 0x24
    1a9e:	bdf0      	pop	{r4, r5, r6, r7, pc}
    1aa0:	682b      	ldr	r3, [r5, #0]
    1aa2:	2b00      	cmp	r3, #0
    1aa4:	d1cd      	bne.n	1a42 <quorem+0x96>
    1aa6:	3c01      	subs	r4, #1
    1aa8:	e7c7      	b.n	1a3a <quorem+0x8e>
    1aaa:	681a      	ldr	r2, [r3, #0]
    1aac:	2a00      	cmp	r2, #0
    1aae:	d1f2      	bne.n	1a96 <quorem+0xea>
    1ab0:	3c01      	subs	r4, #1
    1ab2:	e7ec      	b.n	1a8e <quorem+0xe2>

00001ab4 <_dtoa_r>:
    1ab4:	b5f0      	push	{r4, r5, r6, r7, lr}
    1ab6:	0016      	movs	r6, r2
    1ab8:	001f      	movs	r7, r3
    1aba:	6a44      	ldr	r4, [r0, #36]	; 0x24
    1abc:	b09d      	sub	sp, #116	; 0x74
    1abe:	9004      	str	r0, [sp, #16]
    1ac0:	9d25      	ldr	r5, [sp, #148]	; 0x94
    1ac2:	9606      	str	r6, [sp, #24]
    1ac4:	9707      	str	r7, [sp, #28]
    1ac6:	2c00      	cmp	r4, #0
    1ac8:	d108      	bne.n	1adc <_dtoa_r+0x28>
    1aca:	2010      	movs	r0, #16
    1acc:	f000 ffe0 	bl	2a90 <malloc>
    1ad0:	9b04      	ldr	r3, [sp, #16]
    1ad2:	6258      	str	r0, [r3, #36]	; 0x24
    1ad4:	6044      	str	r4, [r0, #4]
    1ad6:	6084      	str	r4, [r0, #8]
    1ad8:	6004      	str	r4, [r0, #0]
    1ada:	60c4      	str	r4, [r0, #12]
    1adc:	9b04      	ldr	r3, [sp, #16]
    1ade:	6a5b      	ldr	r3, [r3, #36]	; 0x24
    1ae0:	6819      	ldr	r1, [r3, #0]
    1ae2:	2900      	cmp	r1, #0
    1ae4:	d00b      	beq.n	1afe <_dtoa_r+0x4a>
    1ae6:	685a      	ldr	r2, [r3, #4]
    1ae8:	2301      	movs	r3, #1
    1aea:	4093      	lsls	r3, r2
    1aec:	604a      	str	r2, [r1, #4]
    1aee:	608b      	str	r3, [r1, #8]
    1af0:	9804      	ldr	r0, [sp, #16]
    1af2:	f001 f823 	bl	2b3c <_Bfree>
    1af6:	2200      	movs	r2, #0
    1af8:	9b04      	ldr	r3, [sp, #16]
    1afa:	6a5b      	ldr	r3, [r3, #36]	; 0x24
    1afc:	601a      	str	r2, [r3, #0]
    1afe:	9b07      	ldr	r3, [sp, #28]
    1b00:	2b00      	cmp	r3, #0
    1b02:	da1f      	bge.n	1b44 <_dtoa_r+0x90>
    1b04:	2301      	movs	r3, #1
    1b06:	602b      	str	r3, [r5, #0]
    1b08:	007b      	lsls	r3, r7, #1
    1b0a:	085b      	lsrs	r3, r3, #1
    1b0c:	9307      	str	r3, [sp, #28]
    1b0e:	9c07      	ldr	r4, [sp, #28]
    1b10:	4bb7      	ldr	r3, [pc, #732]	; (1df0 <_dtoa_r+0x33c>)
    1b12:	0022      	movs	r2, r4
    1b14:	9319      	str	r3, [sp, #100]	; 0x64
    1b16:	401a      	ands	r2, r3
    1b18:	429a      	cmp	r2, r3
    1b1a:	d116      	bne.n	1b4a <_dtoa_r+0x96>
    1b1c:	4bb5      	ldr	r3, [pc, #724]	; (1df4 <_dtoa_r+0x340>)
    1b1e:	9a24      	ldr	r2, [sp, #144]	; 0x90
    1b20:	6013      	str	r3, [r2, #0]
    1b22:	9b06      	ldr	r3, [sp, #24]
    1b24:	2b00      	cmp	r3, #0
    1b26:	d103      	bne.n	1b30 <_dtoa_r+0x7c>
    1b28:	0324      	lsls	r4, r4, #12
    1b2a:	d101      	bne.n	1b30 <_dtoa_r+0x7c>
    1b2c:	f000 fd91 	bl	2652 <STACK_SIZE+0x652>
    1b30:	4bb1      	ldr	r3, [pc, #708]	; (1df8 <_dtoa_r+0x344>)
    1b32:	9a26      	ldr	r2, [sp, #152]	; 0x98
    1b34:	930a      	str	r3, [sp, #40]	; 0x28
    1b36:	4bb1      	ldr	r3, [pc, #708]	; (1dfc <_dtoa_r+0x348>)
    1b38:	2a00      	cmp	r2, #0
    1b3a:	d001      	beq.n	1b40 <_dtoa_r+0x8c>
    1b3c:	f000 fd8f 	bl	265e <STACK_SIZE+0x65e>
    1b40:	f000 fd8f 	bl	2662 <STACK_SIZE+0x662>
    1b44:	2300      	movs	r3, #0
    1b46:	602b      	str	r3, [r5, #0]
    1b48:	e7e1      	b.n	1b0e <_dtoa_r+0x5a>
    1b4a:	9e06      	ldr	r6, [sp, #24]
    1b4c:	9f07      	ldr	r7, [sp, #28]
    1b4e:	2200      	movs	r2, #0
    1b50:	2300      	movs	r3, #0
    1b52:	0030      	movs	r0, r6
    1b54:	0039      	movs	r1, r7
    1b56:	f001 ff15 	bl	3984 <__aeabi_dcmpeq>
    1b5a:	1e05      	subs	r5, r0, #0
    1b5c:	d00e      	beq.n	1b7c <_dtoa_r+0xc8>
    1b5e:	2301      	movs	r3, #1
    1b60:	9a24      	ldr	r2, [sp, #144]	; 0x90
    1b62:	6013      	str	r3, [r2, #0]
    1b64:	4ba6      	ldr	r3, [pc, #664]	; (1e00 <_dtoa_r+0x34c>)
    1b66:	9a26      	ldr	r2, [sp, #152]	; 0x98
    1b68:	930a      	str	r3, [sp, #40]	; 0x28
    1b6a:	2a00      	cmp	r2, #0
    1b6c:	d101      	bne.n	1b72 <_dtoa_r+0xbe>
    1b6e:	f000 fd78 	bl	2662 <STACK_SIZE+0x662>
    1b72:	4aa4      	ldr	r2, [pc, #656]	; (1e04 <_dtoa_r+0x350>)
    1b74:	9926      	ldr	r1, [sp, #152]	; 0x98
    1b76:	600a      	str	r2, [r1, #0]
    1b78:	f000 fd73 	bl	2662 <STACK_SIZE+0x662>
    1b7c:	ab1a      	add	r3, sp, #104	; 0x68
    1b7e:	9301      	str	r3, [sp, #4]
    1b80:	ab1b      	add	r3, sp, #108	; 0x6c
    1b82:	9300      	str	r3, [sp, #0]
    1b84:	0032      	movs	r2, r6
    1b86:	003b      	movs	r3, r7
    1b88:	9804      	ldr	r0, [sp, #16]
    1b8a:	f001 fa2d 	bl	2fe8 <__d2b>
    1b8e:	0063      	lsls	r3, r4, #1
    1b90:	9005      	str	r0, [sp, #20]
    1b92:	0d5b      	lsrs	r3, r3, #21
    1b94:	d100      	bne.n	1b98 <_dtoa_r+0xe4>
    1b96:	e07f      	b.n	1c98 <_dtoa_r+0x1e4>
    1b98:	033a      	lsls	r2, r7, #12
    1b9a:	4c9b      	ldr	r4, [pc, #620]	; (1e08 <_dtoa_r+0x354>)
    1b9c:	0b12      	lsrs	r2, r2, #12
    1b9e:	4314      	orrs	r4, r2
    1ba0:	0021      	movs	r1, r4
    1ba2:	4a9a      	ldr	r2, [pc, #616]	; (1e0c <_dtoa_r+0x358>)
    1ba4:	0030      	movs	r0, r6
    1ba6:	9518      	str	r5, [sp, #96]	; 0x60
    1ba8:	189e      	adds	r6, r3, r2
    1baa:	2200      	movs	r2, #0
    1bac:	4b98      	ldr	r3, [pc, #608]	; (1e10 <_dtoa_r+0x35c>)
    1bae:	f003 f8db 	bl	4d68 <__aeabi_dsub>
    1bb2:	4a98      	ldr	r2, [pc, #608]	; (1e14 <_dtoa_r+0x360>)
    1bb4:	4b98      	ldr	r3, [pc, #608]	; (1e18 <_dtoa_r+0x364>)
    1bb6:	f002 fe57 	bl	4868 <__aeabi_dmul>
    1bba:	4a98      	ldr	r2, [pc, #608]	; (1e1c <_dtoa_r+0x368>)
    1bbc:	4b98      	ldr	r3, [pc, #608]	; (1e20 <_dtoa_r+0x36c>)
    1bbe:	f001 ff0f 	bl	39e0 <__aeabi_dadd>
    1bc2:	0004      	movs	r4, r0
    1bc4:	0030      	movs	r0, r6
    1bc6:	000d      	movs	r5, r1
    1bc8:	f003 fc38 	bl	543c <__aeabi_i2d>
    1bcc:	4a95      	ldr	r2, [pc, #596]	; (1e24 <_dtoa_r+0x370>)
    1bce:	4b96      	ldr	r3, [pc, #600]	; (1e28 <_dtoa_r+0x374>)
    1bd0:	f002 fe4a 	bl	4868 <__aeabi_dmul>
    1bd4:	0002      	movs	r2, r0
    1bd6:	000b      	movs	r3, r1
    1bd8:	0020      	movs	r0, r4
    1bda:	0029      	movs	r1, r5
    1bdc:	f001 ff00 	bl	39e0 <__aeabi_dadd>
    1be0:	0004      	movs	r4, r0
    1be2:	000d      	movs	r5, r1
    1be4:	f003 fbf6 	bl	53d4 <__aeabi_d2iz>
    1be8:	2200      	movs	r2, #0
    1bea:	9003      	str	r0, [sp, #12]
    1bec:	2300      	movs	r3, #0
    1bee:	0020      	movs	r0, r4
    1bf0:	0029      	movs	r1, r5
    1bf2:	f001 fecd 	bl	3990 <__aeabi_dcmplt>
    1bf6:	2800      	cmp	r0, #0
    1bf8:	d00e      	beq.n	1c18 <_dtoa_r+0x164>
    1bfa:	9803      	ldr	r0, [sp, #12]
    1bfc:	f003 fc1e 	bl	543c <__aeabi_i2d>
    1c00:	000b      	movs	r3, r1
    1c02:	0002      	movs	r2, r0
    1c04:	0029      	movs	r1, r5
    1c06:	0020      	movs	r0, r4
    1c08:	f001 febc 	bl	3984 <__aeabi_dcmpeq>
    1c0c:	0003      	movs	r3, r0
    1c0e:	4258      	negs	r0, r3
    1c10:	4158      	adcs	r0, r3
    1c12:	9b03      	ldr	r3, [sp, #12]
    1c14:	1a1b      	subs	r3, r3, r0
    1c16:	9303      	str	r3, [sp, #12]
    1c18:	2301      	movs	r3, #1
    1c1a:	9316      	str	r3, [sp, #88]	; 0x58
    1c1c:	9b03      	ldr	r3, [sp, #12]
    1c1e:	2b16      	cmp	r3, #22
    1c20:	d80f      	bhi.n	1c42 <_dtoa_r+0x18e>
    1c22:	4982      	ldr	r1, [pc, #520]	; (1e2c <_dtoa_r+0x378>)
    1c24:	00db      	lsls	r3, r3, #3
    1c26:	18c9      	adds	r1, r1, r3
    1c28:	6808      	ldr	r0, [r1, #0]
    1c2a:	6849      	ldr	r1, [r1, #4]
    1c2c:	9a06      	ldr	r2, [sp, #24]
    1c2e:	9b07      	ldr	r3, [sp, #28]
    1c30:	f001 fec2 	bl	39b8 <__aeabi_dcmpgt>
    1c34:	2800      	cmp	r0, #0
    1c36:	d04b      	beq.n	1cd0 <_dtoa_r+0x21c>
    1c38:	9b03      	ldr	r3, [sp, #12]
    1c3a:	3b01      	subs	r3, #1
    1c3c:	9303      	str	r3, [sp, #12]
    1c3e:	2300      	movs	r3, #0
    1c40:	9316      	str	r3, [sp, #88]	; 0x58
    1c42:	9b1a      	ldr	r3, [sp, #104]	; 0x68
    1c44:	1b9e      	subs	r6, r3, r6
    1c46:	2300      	movs	r3, #0
    1c48:	930b      	str	r3, [sp, #44]	; 0x2c
    1c4a:	0033      	movs	r3, r6
    1c4c:	3b01      	subs	r3, #1
    1c4e:	930c      	str	r3, [sp, #48]	; 0x30
    1c50:	d504      	bpl.n	1c5c <_dtoa_r+0x1a8>
    1c52:	2301      	movs	r3, #1
    1c54:	1b9b      	subs	r3, r3, r6
    1c56:	930b      	str	r3, [sp, #44]	; 0x2c
    1c58:	2300      	movs	r3, #0
    1c5a:	930c      	str	r3, [sp, #48]	; 0x30
    1c5c:	9b03      	ldr	r3, [sp, #12]
    1c5e:	2b00      	cmp	r3, #0
    1c60:	db38      	blt.n	1cd4 <_dtoa_r+0x220>
    1c62:	9a03      	ldr	r2, [sp, #12]
    1c64:	9b0c      	ldr	r3, [sp, #48]	; 0x30
    1c66:	4694      	mov	ip, r2
    1c68:	4463      	add	r3, ip
    1c6a:	930c      	str	r3, [sp, #48]	; 0x30
    1c6c:	2300      	movs	r3, #0
    1c6e:	920f      	str	r2, [sp, #60]	; 0x3c
    1c70:	9308      	str	r3, [sp, #32]
    1c72:	9b22      	ldr	r3, [sp, #136]	; 0x88
    1c74:	2501      	movs	r5, #1
    1c76:	2b09      	cmp	r3, #9
    1c78:	d900      	bls.n	1c7c <_dtoa_r+0x1c8>
    1c7a:	e091      	b.n	1da0 <_dtoa_r+0x2ec>
    1c7c:	2b05      	cmp	r3, #5
    1c7e:	dd02      	ble.n	1c86 <_dtoa_r+0x1d2>
    1c80:	2500      	movs	r5, #0
    1c82:	3b04      	subs	r3, #4
    1c84:	9322      	str	r3, [sp, #136]	; 0x88
    1c86:	9b22      	ldr	r3, [sp, #136]	; 0x88
    1c88:	1e98      	subs	r0, r3, #2
    1c8a:	2803      	cmp	r0, #3
    1c8c:	d900      	bls.n	1c90 <_dtoa_r+0x1dc>
    1c8e:	e091      	b.n	1db4 <_dtoa_r+0x300>
    1c90:	f001 fce8 	bl	3664 <__gnu_thumb1_case_uqi>
    1c94:	76298482 	.word	0x76298482
    1c98:	9b1a      	ldr	r3, [sp, #104]	; 0x68
    1c9a:	9a1b      	ldr	r2, [sp, #108]	; 0x6c
    1c9c:	189e      	adds	r6, r3, r2
    1c9e:	4b64      	ldr	r3, [pc, #400]	; (1e30 <_dtoa_r+0x37c>)
    1ca0:	18f2      	adds	r2, r6, r3
    1ca2:	2a20      	cmp	r2, #32
    1ca4:	dd0f      	ble.n	1cc6 <_dtoa_r+0x212>
    1ca6:	4b63      	ldr	r3, [pc, #396]	; (1e34 <_dtoa_r+0x380>)
    1ca8:	9806      	ldr	r0, [sp, #24]
    1caa:	18f3      	adds	r3, r6, r3
    1cac:	40d8      	lsrs	r0, r3
    1cae:	2340      	movs	r3, #64	; 0x40
    1cb0:	1a9b      	subs	r3, r3, r2
    1cb2:	409c      	lsls	r4, r3
    1cb4:	4320      	orrs	r0, r4
    1cb6:	f003 fc03 	bl	54c0 <__aeabi_ui2d>
    1cba:	2301      	movs	r3, #1
    1cbc:	4c5e      	ldr	r4, [pc, #376]	; (1e38 <_dtoa_r+0x384>)
    1cbe:	3e01      	subs	r6, #1
    1cc0:	1909      	adds	r1, r1, r4
    1cc2:	9318      	str	r3, [sp, #96]	; 0x60
    1cc4:	e771      	b.n	1baa <_dtoa_r+0xf6>
    1cc6:	2320      	movs	r3, #32
    1cc8:	9806      	ldr	r0, [sp, #24]
    1cca:	1a9b      	subs	r3, r3, r2
    1ccc:	4098      	lsls	r0, r3
    1cce:	e7f2      	b.n	1cb6 <_dtoa_r+0x202>
    1cd0:	9016      	str	r0, [sp, #88]	; 0x58
    1cd2:	e7b6      	b.n	1c42 <_dtoa_r+0x18e>
    1cd4:	9b0b      	ldr	r3, [sp, #44]	; 0x2c
    1cd6:	9a03      	ldr	r2, [sp, #12]
    1cd8:	1a9b      	subs	r3, r3, r2
    1cda:	930b      	str	r3, [sp, #44]	; 0x2c
    1cdc:	4253      	negs	r3, r2
    1cde:	9308      	str	r3, [sp, #32]
    1ce0:	2300      	movs	r3, #0
    1ce2:	930f      	str	r3, [sp, #60]	; 0x3c
    1ce4:	e7c5      	b.n	1c72 <_dtoa_r+0x1be>
    1ce6:	2301      	movs	r3, #1
    1ce8:	930e      	str	r3, [sp, #56]	; 0x38
    1cea:	9b23      	ldr	r3, [sp, #140]	; 0x8c
    1cec:	2b00      	cmp	r3, #0
    1cee:	dd65      	ble.n	1dbc <_dtoa_r+0x308>
    1cf0:	001f      	movs	r7, r3
    1cf2:	930d      	str	r3, [sp, #52]	; 0x34
    1cf4:	9a04      	ldr	r2, [sp, #16]
    1cf6:	6a54      	ldr	r4, [r2, #36]	; 0x24
    1cf8:	2200      	movs	r2, #0
    1cfa:	6062      	str	r2, [r4, #4]
    1cfc:	3204      	adds	r2, #4
    1cfe:	0011      	movs	r1, r2
    1d00:	3114      	adds	r1, #20
    1d02:	4299      	cmp	r1, r3
    1d04:	d95f      	bls.n	1dc6 <_dtoa_r+0x312>
    1d06:	6861      	ldr	r1, [r4, #4]
    1d08:	9804      	ldr	r0, [sp, #16]
    1d0a:	f000 fedf 	bl	2acc <_Balloc>
    1d0e:	9b04      	ldr	r3, [sp, #16]
    1d10:	6020      	str	r0, [r4, #0]
    1d12:	6a5b      	ldr	r3, [r3, #36]	; 0x24
    1d14:	681b      	ldr	r3, [r3, #0]
    1d16:	930a      	str	r3, [sp, #40]	; 0x28
    1d18:	2f0e      	cmp	r7, #14
    1d1a:	d900      	bls.n	1d1e <_dtoa_r+0x26a>
    1d1c:	e105      	b.n	1f2a <_dtoa_r+0x476>
    1d1e:	2d00      	cmp	r5, #0
    1d20:	d100      	bne.n	1d24 <_dtoa_r+0x270>
    1d22:	e102      	b.n	1f2a <_dtoa_r+0x476>
    1d24:	9b06      	ldr	r3, [sp, #24]
    1d26:	9c07      	ldr	r4, [sp, #28]
    1d28:	9314      	str	r3, [sp, #80]	; 0x50
    1d2a:	9415      	str	r4, [sp, #84]	; 0x54
    1d2c:	9b03      	ldr	r3, [sp, #12]
    1d2e:	2b00      	cmp	r3, #0
    1d30:	dc00      	bgt.n	1d34 <_dtoa_r+0x280>
    1d32:	e085      	b.n	1e40 <_dtoa_r+0x38c>
    1d34:	001a      	movs	r2, r3
    1d36:	210f      	movs	r1, #15
    1d38:	4b3c      	ldr	r3, [pc, #240]	; (1e2c <_dtoa_r+0x378>)
    1d3a:	400a      	ands	r2, r1
    1d3c:	00d2      	lsls	r2, r2, #3
    1d3e:	189b      	adds	r3, r3, r2
    1d40:	685c      	ldr	r4, [r3, #4]
    1d42:	681b      	ldr	r3, [r3, #0]
    1d44:	9310      	str	r3, [sp, #64]	; 0x40
    1d46:	9411      	str	r4, [sp, #68]	; 0x44
    1d48:	9b03      	ldr	r3, [sp, #12]
    1d4a:	2402      	movs	r4, #2
    1d4c:	111d      	asrs	r5, r3, #4
    1d4e:	06eb      	lsls	r3, r5, #27
    1d50:	d50a      	bpl.n	1d68 <_dtoa_r+0x2b4>
    1d52:	4b3a      	ldr	r3, [pc, #232]	; (1e3c <_dtoa_r+0x388>)
    1d54:	400d      	ands	r5, r1
    1d56:	6a1a      	ldr	r2, [r3, #32]
    1d58:	6a5b      	ldr	r3, [r3, #36]	; 0x24
    1d5a:	9814      	ldr	r0, [sp, #80]	; 0x50
    1d5c:	9915      	ldr	r1, [sp, #84]	; 0x54
    1d5e:	f002 f94f 	bl	4000 <__aeabi_ddiv>
    1d62:	9006      	str	r0, [sp, #24]
    1d64:	9107      	str	r1, [sp, #28]
    1d66:	3401      	adds	r4, #1
    1d68:	4e34      	ldr	r6, [pc, #208]	; (1e3c <_dtoa_r+0x388>)
    1d6a:	2d00      	cmp	r5, #0
    1d6c:	d130      	bne.n	1dd0 <_dtoa_r+0x31c>
    1d6e:	9a10      	ldr	r2, [sp, #64]	; 0x40
    1d70:	9b11      	ldr	r3, [sp, #68]	; 0x44
    1d72:	9806      	ldr	r0, [sp, #24]
    1d74:	9907      	ldr	r1, [sp, #28]
    1d76:	f002 f943 	bl	4000 <__aeabi_ddiv>
    1d7a:	9006      	str	r0, [sp, #24]
    1d7c:	9107      	str	r1, [sp, #28]
    1d7e:	e07a      	b.n	1e76 <_dtoa_r+0x3c2>
    1d80:	2301      	movs	r3, #1
    1d82:	9a23      	ldr	r2, [sp, #140]	; 0x8c
    1d84:	930e      	str	r3, [sp, #56]	; 0x38
    1d86:	4694      	mov	ip, r2
    1d88:	9b03      	ldr	r3, [sp, #12]
    1d8a:	4463      	add	r3, ip
    1d8c:	1c5f      	adds	r7, r3, #1
    1d8e:	930d      	str	r3, [sp, #52]	; 0x34
    1d90:	1e3b      	subs	r3, r7, #0
    1d92:	dcaf      	bgt.n	1cf4 <_dtoa_r+0x240>
    1d94:	2301      	movs	r3, #1
    1d96:	e7ad      	b.n	1cf4 <_dtoa_r+0x240>
    1d98:	2300      	movs	r3, #0
    1d9a:	e7a5      	b.n	1ce8 <_dtoa_r+0x234>
    1d9c:	2300      	movs	r3, #0
    1d9e:	e7f0      	b.n	1d82 <_dtoa_r+0x2ce>
    1da0:	2300      	movs	r3, #0
    1da2:	950e      	str	r5, [sp, #56]	; 0x38
    1da4:	9322      	str	r3, [sp, #136]	; 0x88
    1da6:	3b01      	subs	r3, #1
    1da8:	2200      	movs	r2, #0
    1daa:	930d      	str	r3, [sp, #52]	; 0x34
    1dac:	001f      	movs	r7, r3
    1dae:	3313      	adds	r3, #19
    1db0:	9223      	str	r2, [sp, #140]	; 0x8c
    1db2:	e79f      	b.n	1cf4 <_dtoa_r+0x240>
    1db4:	2301      	movs	r3, #1
    1db6:	930e      	str	r3, [sp, #56]	; 0x38
    1db8:	3b02      	subs	r3, #2
    1dba:	e7f5      	b.n	1da8 <_dtoa_r+0x2f4>
    1dbc:	2301      	movs	r3, #1
    1dbe:	930d      	str	r3, [sp, #52]	; 0x34
    1dc0:	001f      	movs	r7, r3
    1dc2:	001a      	movs	r2, r3
    1dc4:	e7f4      	b.n	1db0 <_dtoa_r+0x2fc>
    1dc6:	6861      	ldr	r1, [r4, #4]
    1dc8:	0052      	lsls	r2, r2, #1
    1dca:	3101      	adds	r1, #1
    1dcc:	6061      	str	r1, [r4, #4]
    1dce:	e796      	b.n	1cfe <_dtoa_r+0x24a>
    1dd0:	2301      	movs	r3, #1
    1dd2:	421d      	tst	r5, r3
    1dd4:	d008      	beq.n	1de8 <_dtoa_r+0x334>
    1dd6:	9810      	ldr	r0, [sp, #64]	; 0x40
    1dd8:	9911      	ldr	r1, [sp, #68]	; 0x44
    1dda:	18e4      	adds	r4, r4, r3
    1ddc:	6832      	ldr	r2, [r6, #0]
    1dde:	6873      	ldr	r3, [r6, #4]
    1de0:	f002 fd42 	bl	4868 <__aeabi_dmul>
    1de4:	9010      	str	r0, [sp, #64]	; 0x40
    1de6:	9111      	str	r1, [sp, #68]	; 0x44
    1de8:	106d      	asrs	r5, r5, #1
    1dea:	3608      	adds	r6, #8
    1dec:	e7bd      	b.n	1d6a <_dtoa_r+0x2b6>
    1dee:	46c0      	nop			; (mov r8, r8)
    1df0:	7ff00000 	.word	0x7ff00000
    1df4:	0000270f 	.word	0x0000270f
    1df8:	000056c1 	.word	0x000056c1
    1dfc:	000056c4 	.word	0x000056c4
    1e00:	00005694 	.word	0x00005694
    1e04:	00005695 	.word	0x00005695
    1e08:	3ff00000 	.word	0x3ff00000
    1e0c:	fffffc01 	.word	0xfffffc01
    1e10:	3ff80000 	.word	0x3ff80000
    1e14:	636f4361 	.word	0x636f4361
    1e18:	3fd287a7 	.word	0x3fd287a7
    1e1c:	8b60c8b3 	.word	0x8b60c8b3
    1e20:	3fc68a28 	.word	0x3fc68a28
    1e24:	509f79fb 	.word	0x509f79fb
    1e28:	3fd34413 	.word	0x3fd34413
    1e2c:	00005750 	.word	0x00005750
    1e30:	00000432 	.word	0x00000432
    1e34:	00000412 	.word	0x00000412
    1e38:	fe100000 	.word	0xfe100000
    1e3c:	00005728 	.word	0x00005728
    1e40:	9b03      	ldr	r3, [sp, #12]
    1e42:	2402      	movs	r4, #2
    1e44:	2b00      	cmp	r3, #0
    1e46:	d016      	beq.n	1e76 <_dtoa_r+0x3c2>
    1e48:	9814      	ldr	r0, [sp, #80]	; 0x50
    1e4a:	9915      	ldr	r1, [sp, #84]	; 0x54
    1e4c:	425d      	negs	r5, r3
    1e4e:	230f      	movs	r3, #15
    1e50:	4aca      	ldr	r2, [pc, #808]	; (217c <STACK_SIZE+0x17c>)
    1e52:	402b      	ands	r3, r5
    1e54:	00db      	lsls	r3, r3, #3
    1e56:	18d3      	adds	r3, r2, r3
    1e58:	681a      	ldr	r2, [r3, #0]
    1e5a:	685b      	ldr	r3, [r3, #4]
    1e5c:	f002 fd04 	bl	4868 <__aeabi_dmul>
    1e60:	2300      	movs	r3, #0
    1e62:	9006      	str	r0, [sp, #24]
    1e64:	9107      	str	r1, [sp, #28]
    1e66:	4ec6      	ldr	r6, [pc, #792]	; (2180 <STACK_SIZE+0x180>)
    1e68:	112d      	asrs	r5, r5, #4
    1e6a:	2d00      	cmp	r5, #0
    1e6c:	d000      	beq.n	1e70 <_dtoa_r+0x3bc>
    1e6e:	e08c      	b.n	1f8a <_dtoa_r+0x4d6>
    1e70:	2b00      	cmp	r3, #0
    1e72:	d000      	beq.n	1e76 <_dtoa_r+0x3c2>
    1e74:	e781      	b.n	1d7a <_dtoa_r+0x2c6>
    1e76:	9b16      	ldr	r3, [sp, #88]	; 0x58
    1e78:	2b00      	cmp	r3, #0
    1e7a:	d100      	bne.n	1e7e <_dtoa_r+0x3ca>
    1e7c:	e091      	b.n	1fa2 <_dtoa_r+0x4ee>
    1e7e:	9a06      	ldr	r2, [sp, #24]
    1e80:	9b07      	ldr	r3, [sp, #28]
    1e82:	9210      	str	r2, [sp, #64]	; 0x40
    1e84:	9311      	str	r3, [sp, #68]	; 0x44
    1e86:	9810      	ldr	r0, [sp, #64]	; 0x40
    1e88:	9911      	ldr	r1, [sp, #68]	; 0x44
    1e8a:	2200      	movs	r2, #0
    1e8c:	4bbd      	ldr	r3, [pc, #756]	; (2184 <STACK_SIZE+0x184>)
    1e8e:	f001 fd7f 	bl	3990 <__aeabi_dcmplt>
    1e92:	2800      	cmp	r0, #0
    1e94:	d100      	bne.n	1e98 <_dtoa_r+0x3e4>
    1e96:	e084      	b.n	1fa2 <_dtoa_r+0x4ee>
    1e98:	2f00      	cmp	r7, #0
    1e9a:	d100      	bne.n	1e9e <_dtoa_r+0x3ea>
    1e9c:	e081      	b.n	1fa2 <_dtoa_r+0x4ee>
    1e9e:	9b0d      	ldr	r3, [sp, #52]	; 0x34
    1ea0:	2b00      	cmp	r3, #0
    1ea2:	dd3e      	ble.n	1f22 <_dtoa_r+0x46e>
    1ea4:	9810      	ldr	r0, [sp, #64]	; 0x40
    1ea6:	9911      	ldr	r1, [sp, #68]	; 0x44
    1ea8:	9b03      	ldr	r3, [sp, #12]
    1eaa:	2200      	movs	r2, #0
    1eac:	1e5e      	subs	r6, r3, #1
    1eae:	4bb6      	ldr	r3, [pc, #728]	; (2188 <STACK_SIZE+0x188>)
    1eb0:	f002 fcda 	bl	4868 <__aeabi_dmul>
    1eb4:	9006      	str	r0, [sp, #24]
    1eb6:	9107      	str	r1, [sp, #28]
    1eb8:	9d0d      	ldr	r5, [sp, #52]	; 0x34
    1eba:	3401      	adds	r4, #1
    1ebc:	0020      	movs	r0, r4
    1ebe:	f003 fabd 	bl	543c <__aeabi_i2d>
    1ec2:	9a06      	ldr	r2, [sp, #24]
    1ec4:	9b07      	ldr	r3, [sp, #28]
    1ec6:	f002 fccf 	bl	4868 <__aeabi_dmul>
    1eca:	2200      	movs	r2, #0
    1ecc:	4baf      	ldr	r3, [pc, #700]	; (218c <STACK_SIZE+0x18c>)
    1ece:	f001 fd87 	bl	39e0 <__aeabi_dadd>
    1ed2:	9012      	str	r0, [sp, #72]	; 0x48
    1ed4:	9113      	str	r1, [sp, #76]	; 0x4c
    1ed6:	9b12      	ldr	r3, [sp, #72]	; 0x48
    1ed8:	9c13      	ldr	r4, [sp, #76]	; 0x4c
    1eda:	4aad      	ldr	r2, [pc, #692]	; (2190 <STACK_SIZE+0x190>)
    1edc:	9310      	str	r3, [sp, #64]	; 0x40
    1ede:	9411      	str	r4, [sp, #68]	; 0x44
    1ee0:	9b13      	ldr	r3, [sp, #76]	; 0x4c
    1ee2:	189c      	adds	r4, r3, r2
    1ee4:	9411      	str	r4, [sp, #68]	; 0x44
    1ee6:	2d00      	cmp	r5, #0
    1ee8:	d15e      	bne.n	1fa8 <_dtoa_r+0x4f4>
    1eea:	9806      	ldr	r0, [sp, #24]
    1eec:	9907      	ldr	r1, [sp, #28]
    1eee:	2200      	movs	r2, #0
    1ef0:	4ba8      	ldr	r3, [pc, #672]	; (2194 <STACK_SIZE+0x194>)
    1ef2:	f002 ff39 	bl	4d68 <__aeabi_dsub>
    1ef6:	9a10      	ldr	r2, [sp, #64]	; 0x40
    1ef8:	0023      	movs	r3, r4
    1efa:	9006      	str	r0, [sp, #24]
    1efc:	9107      	str	r1, [sp, #28]
    1efe:	f001 fd5b 	bl	39b8 <__aeabi_dcmpgt>
    1f02:	2800      	cmp	r0, #0
    1f04:	d000      	beq.n	1f08 <_dtoa_r+0x454>
    1f06:	e301      	b.n	250c <STACK_SIZE+0x50c>
    1f08:	48a3      	ldr	r0, [pc, #652]	; (2198 <STACK_SIZE+0x198>)
    1f0a:	9913      	ldr	r1, [sp, #76]	; 0x4c
    1f0c:	4684      	mov	ip, r0
    1f0e:	4461      	add	r1, ip
    1f10:	000b      	movs	r3, r1
    1f12:	9806      	ldr	r0, [sp, #24]
    1f14:	9907      	ldr	r1, [sp, #28]
    1f16:	9a10      	ldr	r2, [sp, #64]	; 0x40
    1f18:	f001 fd3a 	bl	3990 <__aeabi_dcmplt>
    1f1c:	2800      	cmp	r0, #0
    1f1e:	d000      	beq.n	1f22 <_dtoa_r+0x46e>
    1f20:	e2e8      	b.n	24f4 <STACK_SIZE+0x4f4>
    1f22:	9b14      	ldr	r3, [sp, #80]	; 0x50
    1f24:	9c15      	ldr	r4, [sp, #84]	; 0x54
    1f26:	9306      	str	r3, [sp, #24]
    1f28:	9407      	str	r4, [sp, #28]
    1f2a:	9b1b      	ldr	r3, [sp, #108]	; 0x6c
    1f2c:	2b00      	cmp	r3, #0
    1f2e:	da00      	bge.n	1f32 <_dtoa_r+0x47e>
    1f30:	e157      	b.n	21e2 <STACK_SIZE+0x1e2>
    1f32:	9a03      	ldr	r2, [sp, #12]
    1f34:	2a0e      	cmp	r2, #14
    1f36:	dd00      	ble.n	1f3a <_dtoa_r+0x486>
    1f38:	e153      	b.n	21e2 <STACK_SIZE+0x1e2>
    1f3a:	4b90      	ldr	r3, [pc, #576]	; (217c <STACK_SIZE+0x17c>)
    1f3c:	00d2      	lsls	r2, r2, #3
    1f3e:	189b      	adds	r3, r3, r2
    1f40:	685c      	ldr	r4, [r3, #4]
    1f42:	681b      	ldr	r3, [r3, #0]
    1f44:	9308      	str	r3, [sp, #32]
    1f46:	9409      	str	r4, [sp, #36]	; 0x24
    1f48:	9b23      	ldr	r3, [sp, #140]	; 0x8c
    1f4a:	2b00      	cmp	r3, #0
    1f4c:	db00      	blt.n	1f50 <_dtoa_r+0x49c>
    1f4e:	e0ce      	b.n	20ee <STACK_SIZE+0xee>
    1f50:	2f00      	cmp	r7, #0
    1f52:	dd00      	ble.n	1f56 <_dtoa_r+0x4a2>
    1f54:	e0cb      	b.n	20ee <STACK_SIZE+0xee>
    1f56:	d000      	beq.n	1f5a <_dtoa_r+0x4a6>
    1f58:	e2cf      	b.n	24fa <STACK_SIZE+0x4fa>
    1f5a:	9808      	ldr	r0, [sp, #32]
    1f5c:	9909      	ldr	r1, [sp, #36]	; 0x24
    1f5e:	2200      	movs	r2, #0
    1f60:	4b8c      	ldr	r3, [pc, #560]	; (2194 <STACK_SIZE+0x194>)
    1f62:	f002 fc81 	bl	4868 <__aeabi_dmul>
    1f66:	9a06      	ldr	r2, [sp, #24]
    1f68:	9b07      	ldr	r3, [sp, #28]
    1f6a:	f001 fd2f 	bl	39cc <__aeabi_dcmpge>
    1f6e:	003e      	movs	r6, r7
    1f70:	9708      	str	r7, [sp, #32]
    1f72:	2800      	cmp	r0, #0
    1f74:	d000      	beq.n	1f78 <_dtoa_r+0x4c4>
    1f76:	e2a4      	b.n	24c2 <STACK_SIZE+0x4c2>
    1f78:	9b0a      	ldr	r3, [sp, #40]	; 0x28
    1f7a:	9a0a      	ldr	r2, [sp, #40]	; 0x28
    1f7c:	1c5d      	adds	r5, r3, #1
    1f7e:	2331      	movs	r3, #49	; 0x31
    1f80:	7013      	strb	r3, [r2, #0]
    1f82:	9b03      	ldr	r3, [sp, #12]
    1f84:	3301      	adds	r3, #1
    1f86:	9303      	str	r3, [sp, #12]
    1f88:	e29f      	b.n	24ca <STACK_SIZE+0x4ca>
    1f8a:	2201      	movs	r2, #1
    1f8c:	4215      	tst	r5, r2
    1f8e:	d005      	beq.n	1f9c <_dtoa_r+0x4e8>
    1f90:	18a4      	adds	r4, r4, r2
    1f92:	6832      	ldr	r2, [r6, #0]
    1f94:	6873      	ldr	r3, [r6, #4]
    1f96:	f002 fc67 	bl	4868 <__aeabi_dmul>
    1f9a:	2301      	movs	r3, #1
    1f9c:	106d      	asrs	r5, r5, #1
    1f9e:	3608      	adds	r6, #8
    1fa0:	e763      	b.n	1e6a <_dtoa_r+0x3b6>
    1fa2:	9e03      	ldr	r6, [sp, #12]
    1fa4:	003d      	movs	r5, r7
    1fa6:	e789      	b.n	1ebc <_dtoa_r+0x408>
    1fa8:	9a0a      	ldr	r2, [sp, #40]	; 0x28
    1faa:	1e69      	subs	r1, r5, #1
    1fac:	1952      	adds	r2, r2, r5
    1fae:	9217      	str	r2, [sp, #92]	; 0x5c
    1fb0:	9a0e      	ldr	r2, [sp, #56]	; 0x38
    1fb2:	4b72      	ldr	r3, [pc, #456]	; (217c <STACK_SIZE+0x17c>)
    1fb4:	00c9      	lsls	r1, r1, #3
    1fb6:	2a00      	cmp	r2, #0
    1fb8:	d04a      	beq.n	2050 <STACK_SIZE+0x50>
    1fba:	185b      	adds	r3, r3, r1
    1fbc:	681a      	ldr	r2, [r3, #0]
    1fbe:	685b      	ldr	r3, [r3, #4]
    1fc0:	2000      	movs	r0, #0
    1fc2:	4976      	ldr	r1, [pc, #472]	; (219c <STACK_SIZE+0x19c>)
    1fc4:	f002 f81c 	bl	4000 <__aeabi_ddiv>
    1fc8:	9a10      	ldr	r2, [sp, #64]	; 0x40
    1fca:	9b11      	ldr	r3, [sp, #68]	; 0x44
    1fcc:	f002 fecc 	bl	4d68 <__aeabi_dsub>
    1fd0:	9b0a      	ldr	r3, [sp, #40]	; 0x28
    1fd2:	9010      	str	r0, [sp, #64]	; 0x40
    1fd4:	9111      	str	r1, [sp, #68]	; 0x44
    1fd6:	9312      	str	r3, [sp, #72]	; 0x48
    1fd8:	9806      	ldr	r0, [sp, #24]
    1fda:	9907      	ldr	r1, [sp, #28]
    1fdc:	f003 f9fa 	bl	53d4 <__aeabi_d2iz>
    1fe0:	0004      	movs	r4, r0
    1fe2:	f003 fa2b 	bl	543c <__aeabi_i2d>
    1fe6:	0002      	movs	r2, r0
    1fe8:	000b      	movs	r3, r1
    1fea:	9806      	ldr	r0, [sp, #24]
    1fec:	9907      	ldr	r1, [sp, #28]
    1fee:	f002 febb 	bl	4d68 <__aeabi_dsub>
    1ff2:	9b12      	ldr	r3, [sp, #72]	; 0x48
    1ff4:	3430      	adds	r4, #48	; 0x30
    1ff6:	1c5d      	adds	r5, r3, #1
    1ff8:	701c      	strb	r4, [r3, #0]
    1ffa:	9a10      	ldr	r2, [sp, #64]	; 0x40
    1ffc:	9b11      	ldr	r3, [sp, #68]	; 0x44
    1ffe:	9006      	str	r0, [sp, #24]
    2000:	9107      	str	r1, [sp, #28]
    2002:	f001 fcc5 	bl	3990 <__aeabi_dcmplt>
    2006:	2800      	cmp	r0, #0
    2008:	d165      	bne.n	20d6 <STACK_SIZE+0xd6>
    200a:	9a06      	ldr	r2, [sp, #24]
    200c:	9b07      	ldr	r3, [sp, #28]
    200e:	2000      	movs	r0, #0
    2010:	495c      	ldr	r1, [pc, #368]	; (2184 <STACK_SIZE+0x184>)
    2012:	f002 fea9 	bl	4d68 <__aeabi_dsub>
    2016:	9a10      	ldr	r2, [sp, #64]	; 0x40
    2018:	9b11      	ldr	r3, [sp, #68]	; 0x44
    201a:	f001 fcb9 	bl	3990 <__aeabi_dcmplt>
    201e:	2800      	cmp	r0, #0
    2020:	d000      	beq.n	2024 <STACK_SIZE+0x24>
    2022:	e0be      	b.n	21a2 <STACK_SIZE+0x1a2>
    2024:	9b17      	ldr	r3, [sp, #92]	; 0x5c
    2026:	429d      	cmp	r5, r3
    2028:	d100      	bne.n	202c <STACK_SIZE+0x2c>
    202a:	e77a      	b.n	1f22 <_dtoa_r+0x46e>
    202c:	9810      	ldr	r0, [sp, #64]	; 0x40
    202e:	9911      	ldr	r1, [sp, #68]	; 0x44
    2030:	2200      	movs	r2, #0
    2032:	4b55      	ldr	r3, [pc, #340]	; (2188 <STACK_SIZE+0x188>)
    2034:	f002 fc18 	bl	4868 <__aeabi_dmul>
    2038:	2200      	movs	r2, #0
    203a:	9010      	str	r0, [sp, #64]	; 0x40
    203c:	9111      	str	r1, [sp, #68]	; 0x44
    203e:	9806      	ldr	r0, [sp, #24]
    2040:	9907      	ldr	r1, [sp, #28]
    2042:	4b51      	ldr	r3, [pc, #324]	; (2188 <STACK_SIZE+0x188>)
    2044:	f002 fc10 	bl	4868 <__aeabi_dmul>
    2048:	9512      	str	r5, [sp, #72]	; 0x48
    204a:	9006      	str	r0, [sp, #24]
    204c:	9107      	str	r1, [sp, #28]
    204e:	e7c3      	b.n	1fd8 <_dtoa_r+0x524>
    2050:	1859      	adds	r1, r3, r1
    2052:	6808      	ldr	r0, [r1, #0]
    2054:	6849      	ldr	r1, [r1, #4]
    2056:	9a10      	ldr	r2, [sp, #64]	; 0x40
    2058:	9b11      	ldr	r3, [sp, #68]	; 0x44
    205a:	f002 fc05 	bl	4868 <__aeabi_dmul>
    205e:	9010      	str	r0, [sp, #64]	; 0x40
    2060:	9111      	str	r1, [sp, #68]	; 0x44
    2062:	9c0a      	ldr	r4, [sp, #40]	; 0x28
    2064:	9d17      	ldr	r5, [sp, #92]	; 0x5c
    2066:	9806      	ldr	r0, [sp, #24]
    2068:	9907      	ldr	r1, [sp, #28]
    206a:	f003 f9b3 	bl	53d4 <__aeabi_d2iz>
    206e:	9012      	str	r0, [sp, #72]	; 0x48
    2070:	f003 f9e4 	bl	543c <__aeabi_i2d>
    2074:	0002      	movs	r2, r0
    2076:	000b      	movs	r3, r1
    2078:	9806      	ldr	r0, [sp, #24]
    207a:	9907      	ldr	r1, [sp, #28]
    207c:	f002 fe74 	bl	4d68 <__aeabi_dsub>
    2080:	9b12      	ldr	r3, [sp, #72]	; 0x48
    2082:	9006      	str	r0, [sp, #24]
    2084:	9107      	str	r1, [sp, #28]
    2086:	3330      	adds	r3, #48	; 0x30
    2088:	7023      	strb	r3, [r4, #0]
    208a:	9b17      	ldr	r3, [sp, #92]	; 0x5c
    208c:	3401      	adds	r4, #1
    208e:	2200      	movs	r2, #0
    2090:	42a3      	cmp	r3, r4
    2092:	d124      	bne.n	20de <STACK_SIZE+0xde>
    2094:	4b41      	ldr	r3, [pc, #260]	; (219c <STACK_SIZE+0x19c>)
    2096:	9810      	ldr	r0, [sp, #64]	; 0x40
    2098:	9911      	ldr	r1, [sp, #68]	; 0x44
    209a:	f001 fca1 	bl	39e0 <__aeabi_dadd>
    209e:	0002      	movs	r2, r0
    20a0:	000b      	movs	r3, r1
    20a2:	9806      	ldr	r0, [sp, #24]
    20a4:	9907      	ldr	r1, [sp, #28]
    20a6:	f001 fc87 	bl	39b8 <__aeabi_dcmpgt>
    20aa:	2800      	cmp	r0, #0
    20ac:	d000      	beq.n	20b0 <STACK_SIZE+0xb0>
    20ae:	e078      	b.n	21a2 <STACK_SIZE+0x1a2>
    20b0:	9a10      	ldr	r2, [sp, #64]	; 0x40
    20b2:	9b11      	ldr	r3, [sp, #68]	; 0x44
    20b4:	2000      	movs	r0, #0
    20b6:	4939      	ldr	r1, [pc, #228]	; (219c <STACK_SIZE+0x19c>)
    20b8:	f002 fe56 	bl	4d68 <__aeabi_dsub>
    20bc:	0002      	movs	r2, r0
    20be:	000b      	movs	r3, r1
    20c0:	9806      	ldr	r0, [sp, #24]
    20c2:	9907      	ldr	r1, [sp, #28]
    20c4:	f001 fc64 	bl	3990 <__aeabi_dcmplt>
    20c8:	2800      	cmp	r0, #0
    20ca:	d100      	bne.n	20ce <STACK_SIZE+0xce>
    20cc:	e729      	b.n	1f22 <_dtoa_r+0x46e>
    20ce:	1e6b      	subs	r3, r5, #1
    20d0:	781a      	ldrb	r2, [r3, #0]
    20d2:	2a30      	cmp	r2, #48	; 0x30
    20d4:	d001      	beq.n	20da <STACK_SIZE+0xda>
    20d6:	9603      	str	r6, [sp, #12]
    20d8:	e03f      	b.n	215a <STACK_SIZE+0x15a>
    20da:	001d      	movs	r5, r3
    20dc:	e7f7      	b.n	20ce <STACK_SIZE+0xce>
    20de:	9806      	ldr	r0, [sp, #24]
    20e0:	9907      	ldr	r1, [sp, #28]
    20e2:	4b29      	ldr	r3, [pc, #164]	; (2188 <STACK_SIZE+0x188>)
    20e4:	f002 fbc0 	bl	4868 <__aeabi_dmul>
    20e8:	9006      	str	r0, [sp, #24]
    20ea:	9107      	str	r1, [sp, #28]
    20ec:	e7bb      	b.n	2066 <STACK_SIZE+0x66>
    20ee:	9e0a      	ldr	r6, [sp, #40]	; 0x28
    20f0:	9a08      	ldr	r2, [sp, #32]
    20f2:	9b09      	ldr	r3, [sp, #36]	; 0x24
    20f4:	9806      	ldr	r0, [sp, #24]
    20f6:	9907      	ldr	r1, [sp, #28]
    20f8:	f001 ff82 	bl	4000 <__aeabi_ddiv>
    20fc:	f003 f96a 	bl	53d4 <__aeabi_d2iz>
    2100:	0004      	movs	r4, r0
    2102:	f003 f99b 	bl	543c <__aeabi_i2d>
    2106:	9a08      	ldr	r2, [sp, #32]
    2108:	9b09      	ldr	r3, [sp, #36]	; 0x24
    210a:	f002 fbad 	bl	4868 <__aeabi_dmul>
    210e:	000b      	movs	r3, r1
    2110:	0002      	movs	r2, r0
    2112:	9806      	ldr	r0, [sp, #24]
    2114:	9907      	ldr	r1, [sp, #28]
    2116:	f002 fe27 	bl	4d68 <__aeabi_dsub>
    211a:	0023      	movs	r3, r4
    211c:	3330      	adds	r3, #48	; 0x30
    211e:	7033      	strb	r3, [r6, #0]
    2120:	9b0a      	ldr	r3, [sp, #40]	; 0x28
    2122:	1c75      	adds	r5, r6, #1
    2124:	1aeb      	subs	r3, r5, r3
    2126:	429f      	cmp	r7, r3
    2128:	d14c      	bne.n	21c4 <STACK_SIZE+0x1c4>
    212a:	0002      	movs	r2, r0
    212c:	000b      	movs	r3, r1
    212e:	f001 fc57 	bl	39e0 <__aeabi_dadd>
    2132:	0006      	movs	r6, r0
    2134:	000f      	movs	r7, r1
    2136:	0002      	movs	r2, r0
    2138:	000b      	movs	r3, r1
    213a:	9808      	ldr	r0, [sp, #32]
    213c:	9909      	ldr	r1, [sp, #36]	; 0x24
    213e:	f001 fc27 	bl	3990 <__aeabi_dcmplt>
    2142:	2800      	cmp	r0, #0
    2144:	d12c      	bne.n	21a0 <STACK_SIZE+0x1a0>
    2146:	9808      	ldr	r0, [sp, #32]
    2148:	9909      	ldr	r1, [sp, #36]	; 0x24
    214a:	0032      	movs	r2, r6
    214c:	003b      	movs	r3, r7
    214e:	f001 fc19 	bl	3984 <__aeabi_dcmpeq>
    2152:	2800      	cmp	r0, #0
    2154:	d001      	beq.n	215a <STACK_SIZE+0x15a>
    2156:	07e3      	lsls	r3, r4, #31
    2158:	d422      	bmi.n	21a0 <STACK_SIZE+0x1a0>
    215a:	9905      	ldr	r1, [sp, #20]
    215c:	9804      	ldr	r0, [sp, #16]
    215e:	f000 fced 	bl	2b3c <_Bfree>
    2162:	2300      	movs	r3, #0
    2164:	702b      	strb	r3, [r5, #0]
    2166:	9b03      	ldr	r3, [sp, #12]
    2168:	9a24      	ldr	r2, [sp, #144]	; 0x90
    216a:	3301      	adds	r3, #1
    216c:	6013      	str	r3, [r2, #0]
    216e:	9b26      	ldr	r3, [sp, #152]	; 0x98
    2170:	2b00      	cmp	r3, #0
    2172:	d100      	bne.n	2176 <STACK_SIZE+0x176>
    2174:	e275      	b.n	2662 <STACK_SIZE+0x662>
    2176:	601d      	str	r5, [r3, #0]
    2178:	e273      	b.n	2662 <STACK_SIZE+0x662>
    217a:	46c0      	nop			; (mov r8, r8)
    217c:	00005750 	.word	0x00005750
    2180:	00005728 	.word	0x00005728
    2184:	3ff00000 	.word	0x3ff00000
    2188:	40240000 	.word	0x40240000
    218c:	401c0000 	.word	0x401c0000
    2190:	fcc00000 	.word	0xfcc00000
    2194:	40140000 	.word	0x40140000
    2198:	7cc00000 	.word	0x7cc00000
    219c:	3fe00000 	.word	0x3fe00000
    21a0:	9e03      	ldr	r6, [sp, #12]
    21a2:	1e6b      	subs	r3, r5, #1
    21a4:	781a      	ldrb	r2, [r3, #0]
    21a6:	2a39      	cmp	r2, #57	; 0x39
    21a8:	d106      	bne.n	21b8 <STACK_SIZE+0x1b8>
    21aa:	9a0a      	ldr	r2, [sp, #40]	; 0x28
    21ac:	429a      	cmp	r2, r3
    21ae:	d107      	bne.n	21c0 <STACK_SIZE+0x1c0>
    21b0:	2330      	movs	r3, #48	; 0x30
    21b2:	7013      	strb	r3, [r2, #0]
    21b4:	0013      	movs	r3, r2
    21b6:	3601      	adds	r6, #1
    21b8:	781a      	ldrb	r2, [r3, #0]
    21ba:	3201      	adds	r2, #1
    21bc:	701a      	strb	r2, [r3, #0]
    21be:	e78a      	b.n	20d6 <STACK_SIZE+0xd6>
    21c0:	001d      	movs	r5, r3
    21c2:	e7ee      	b.n	21a2 <STACK_SIZE+0x1a2>
    21c4:	2200      	movs	r2, #0
    21c6:	4bcf      	ldr	r3, [pc, #828]	; (2504 <STACK_SIZE+0x504>)
    21c8:	f002 fb4e 	bl	4868 <__aeabi_dmul>
    21cc:	2200      	movs	r2, #0
    21ce:	2300      	movs	r3, #0
    21d0:	9006      	str	r0, [sp, #24]
    21d2:	9107      	str	r1, [sp, #28]
    21d4:	002e      	movs	r6, r5
    21d6:	f001 fbd5 	bl	3984 <__aeabi_dcmpeq>
    21da:	2800      	cmp	r0, #0
    21dc:	d100      	bne.n	21e0 <STACK_SIZE+0x1e0>
    21de:	e787      	b.n	20f0 <STACK_SIZE+0xf0>
    21e0:	e7bb      	b.n	215a <STACK_SIZE+0x15a>
    21e2:	9a0e      	ldr	r2, [sp, #56]	; 0x38
    21e4:	2a00      	cmp	r2, #0
    21e6:	d100      	bne.n	21ea <STACK_SIZE+0x1ea>
    21e8:	e087      	b.n	22fa <STACK_SIZE+0x2fa>
    21ea:	9a22      	ldr	r2, [sp, #136]	; 0x88
    21ec:	2a01      	cmp	r2, #1
    21ee:	dc6e      	bgt.n	22ce <STACK_SIZE+0x2ce>
    21f0:	9a18      	ldr	r2, [sp, #96]	; 0x60
    21f2:	2a00      	cmp	r2, #0
    21f4:	d067      	beq.n	22c6 <STACK_SIZE+0x2c6>
    21f6:	4ac4      	ldr	r2, [pc, #784]	; (2508 <STACK_SIZE+0x508>)
    21f8:	189b      	adds	r3, r3, r2
    21fa:	9d08      	ldr	r5, [sp, #32]
    21fc:	9c0b      	ldr	r4, [sp, #44]	; 0x2c
    21fe:	9a0b      	ldr	r2, [sp, #44]	; 0x2c
    2200:	2101      	movs	r1, #1
    2202:	18d2      	adds	r2, r2, r3
    2204:	920b      	str	r2, [sp, #44]	; 0x2c
    2206:	9a0c      	ldr	r2, [sp, #48]	; 0x30
    2208:	9804      	ldr	r0, [sp, #16]
    220a:	18d3      	adds	r3, r2, r3
    220c:	930c      	str	r3, [sp, #48]	; 0x30
    220e:	f000 fd33 	bl	2c78 <__i2b>
    2212:	0006      	movs	r6, r0
    2214:	2c00      	cmp	r4, #0
    2216:	dd0e      	ble.n	2236 <STACK_SIZE+0x236>
    2218:	9b0c      	ldr	r3, [sp, #48]	; 0x30
    221a:	2b00      	cmp	r3, #0
    221c:	dd0b      	ble.n	2236 <STACK_SIZE+0x236>
    221e:	9a0c      	ldr	r2, [sp, #48]	; 0x30
    2220:	0023      	movs	r3, r4
    2222:	4294      	cmp	r4, r2
    2224:	dd00      	ble.n	2228 <STACK_SIZE+0x228>
    2226:	0013      	movs	r3, r2
    2228:	9a0b      	ldr	r2, [sp, #44]	; 0x2c
    222a:	1ae4      	subs	r4, r4, r3
    222c:	1ad2      	subs	r2, r2, r3
    222e:	920b      	str	r2, [sp, #44]	; 0x2c
    2230:	9a0c      	ldr	r2, [sp, #48]	; 0x30
    2232:	1ad3      	subs	r3, r2, r3
    2234:	930c      	str	r3, [sp, #48]	; 0x30
    2236:	9b08      	ldr	r3, [sp, #32]
    2238:	2b00      	cmp	r3, #0
    223a:	d01e      	beq.n	227a <STACK_SIZE+0x27a>
    223c:	9b0e      	ldr	r3, [sp, #56]	; 0x38
    223e:	2b00      	cmp	r3, #0
    2240:	d05f      	beq.n	2302 <STACK_SIZE+0x302>
    2242:	2d00      	cmp	r5, #0
    2244:	dd11      	ble.n	226a <STACK_SIZE+0x26a>
    2246:	0031      	movs	r1, r6
    2248:	002a      	movs	r2, r5
    224a:	9804      	ldr	r0, [sp, #16]
    224c:	f000 fdac 	bl	2da8 <__pow5mult>
    2250:	9a05      	ldr	r2, [sp, #20]
    2252:	0001      	movs	r1, r0
    2254:	0006      	movs	r6, r0
    2256:	9804      	ldr	r0, [sp, #16]
    2258:	f000 fd17 	bl	2c8a <__multiply>
    225c:	9905      	ldr	r1, [sp, #20]
    225e:	9010      	str	r0, [sp, #64]	; 0x40
    2260:	9804      	ldr	r0, [sp, #16]
    2262:	f000 fc6b 	bl	2b3c <_Bfree>
    2266:	9b10      	ldr	r3, [sp, #64]	; 0x40
    2268:	9305      	str	r3, [sp, #20]
    226a:	9b08      	ldr	r3, [sp, #32]
    226c:	1b5a      	subs	r2, r3, r5
    226e:	d004      	beq.n	227a <STACK_SIZE+0x27a>
    2270:	9905      	ldr	r1, [sp, #20]
    2272:	9804      	ldr	r0, [sp, #16]
    2274:	f000 fd98 	bl	2da8 <__pow5mult>
    2278:	9005      	str	r0, [sp, #20]
    227a:	2101      	movs	r1, #1
    227c:	9804      	ldr	r0, [sp, #16]
    227e:	f000 fcfb 	bl	2c78 <__i2b>
    2282:	9b0f      	ldr	r3, [sp, #60]	; 0x3c
    2284:	9008      	str	r0, [sp, #32]
    2286:	2b00      	cmp	r3, #0
    2288:	dd3d      	ble.n	2306 <STACK_SIZE+0x306>
    228a:	001a      	movs	r2, r3
    228c:	0001      	movs	r1, r0
    228e:	9804      	ldr	r0, [sp, #16]
    2290:	f000 fd8a 	bl	2da8 <__pow5mult>
    2294:	9b22      	ldr	r3, [sp, #136]	; 0x88
    2296:	9008      	str	r0, [sp, #32]
    2298:	2500      	movs	r5, #0
    229a:	2b01      	cmp	r3, #1
    229c:	dc3b      	bgt.n	2316 <STACK_SIZE+0x316>
    229e:	2500      	movs	r5, #0
    22a0:	9b06      	ldr	r3, [sp, #24]
    22a2:	42ab      	cmp	r3, r5
    22a4:	d133      	bne.n	230e <STACK_SIZE+0x30e>
    22a6:	9b07      	ldr	r3, [sp, #28]
    22a8:	031b      	lsls	r3, r3, #12
    22aa:	42ab      	cmp	r3, r5
    22ac:	d12f      	bne.n	230e <STACK_SIZE+0x30e>
    22ae:	9b19      	ldr	r3, [sp, #100]	; 0x64
    22b0:	9a07      	ldr	r2, [sp, #28]
    22b2:	4213      	tst	r3, r2
    22b4:	d02b      	beq.n	230e <STACK_SIZE+0x30e>
    22b6:	9b0b      	ldr	r3, [sp, #44]	; 0x2c
    22b8:	3501      	adds	r5, #1
    22ba:	3301      	adds	r3, #1
    22bc:	930b      	str	r3, [sp, #44]	; 0x2c
    22be:	9b0c      	ldr	r3, [sp, #48]	; 0x30
    22c0:	3301      	adds	r3, #1
    22c2:	930c      	str	r3, [sp, #48]	; 0x30
    22c4:	e023      	b.n	230e <STACK_SIZE+0x30e>
    22c6:	2336      	movs	r3, #54	; 0x36
    22c8:	9a1a      	ldr	r2, [sp, #104]	; 0x68
    22ca:	1a9b      	subs	r3, r3, r2
    22cc:	e795      	b.n	21fa <STACK_SIZE+0x1fa>
    22ce:	9b08      	ldr	r3, [sp, #32]
    22d0:	1e7d      	subs	r5, r7, #1
    22d2:	42ab      	cmp	r3, r5
    22d4:	db06      	blt.n	22e4 <STACK_SIZE+0x2e4>
    22d6:	1b5d      	subs	r5, r3, r5
    22d8:	2f00      	cmp	r7, #0
    22da:	da0b      	bge.n	22f4 <STACK_SIZE+0x2f4>
    22dc:	9b0b      	ldr	r3, [sp, #44]	; 0x2c
    22de:	1bdc      	subs	r4, r3, r7
    22e0:	2300      	movs	r3, #0
    22e2:	e78c      	b.n	21fe <STACK_SIZE+0x1fe>
    22e4:	9b08      	ldr	r3, [sp, #32]
    22e6:	9508      	str	r5, [sp, #32]
    22e8:	1aea      	subs	r2, r5, r3
    22ea:	9b0f      	ldr	r3, [sp, #60]	; 0x3c
    22ec:	2500      	movs	r5, #0
    22ee:	189b      	adds	r3, r3, r2
    22f0:	930f      	str	r3, [sp, #60]	; 0x3c
    22f2:	e7f1      	b.n	22d8 <STACK_SIZE+0x2d8>
    22f4:	9c0b      	ldr	r4, [sp, #44]	; 0x2c
    22f6:	003b      	movs	r3, r7
    22f8:	e781      	b.n	21fe <STACK_SIZE+0x1fe>
    22fa:	9d08      	ldr	r5, [sp, #32]
    22fc:	9c0b      	ldr	r4, [sp, #44]	; 0x2c
    22fe:	9e0e      	ldr	r6, [sp, #56]	; 0x38
    2300:	e788      	b.n	2214 <STACK_SIZE+0x214>
    2302:	9a08      	ldr	r2, [sp, #32]
    2304:	e7b4      	b.n	2270 <STACK_SIZE+0x270>
    2306:	9b22      	ldr	r3, [sp, #136]	; 0x88
    2308:	2500      	movs	r5, #0
    230a:	2b01      	cmp	r3, #1
    230c:	ddc7      	ble.n	229e <STACK_SIZE+0x29e>
    230e:	9b0f      	ldr	r3, [sp, #60]	; 0x3c
    2310:	2001      	movs	r0, #1
    2312:	2b00      	cmp	r3, #0
    2314:	d00b      	beq.n	232e <STACK_SIZE+0x32e>
    2316:	9b08      	ldr	r3, [sp, #32]
    2318:	9a08      	ldr	r2, [sp, #32]
    231a:	691b      	ldr	r3, [r3, #16]
    231c:	930f      	str	r3, [sp, #60]	; 0x3c
    231e:	3303      	adds	r3, #3
    2320:	009b      	lsls	r3, r3, #2
    2322:	18d3      	adds	r3, r2, r3
    2324:	6858      	ldr	r0, [r3, #4]
    2326:	f000 fc5e 	bl	2be6 <__hi0bits>
    232a:	2320      	movs	r3, #32
    232c:	1a18      	subs	r0, r3, r0
    232e:	9b0c      	ldr	r3, [sp, #48]	; 0x30
    2330:	18c0      	adds	r0, r0, r3
    2332:	231f      	movs	r3, #31
    2334:	4018      	ands	r0, r3
    2336:	d100      	bne.n	233a <STACK_SIZE+0x33a>
    2338:	e0ab      	b.n	2492 <STACK_SIZE+0x492>
    233a:	3301      	adds	r3, #1
    233c:	1a1b      	subs	r3, r3, r0
    233e:	2b04      	cmp	r3, #4
    2340:	dc00      	bgt.n	2344 <STACK_SIZE+0x344>
    2342:	e09b      	b.n	247c <STACK_SIZE+0x47c>
    2344:	231c      	movs	r3, #28
    2346:	1a18      	subs	r0, r3, r0
    2348:	9b0b      	ldr	r3, [sp, #44]	; 0x2c
    234a:	1824      	adds	r4, r4, r0
    234c:	181b      	adds	r3, r3, r0
    234e:	930b      	str	r3, [sp, #44]	; 0x2c
    2350:	9b0c      	ldr	r3, [sp, #48]	; 0x30
    2352:	181b      	adds	r3, r3, r0
    2354:	930c      	str	r3, [sp, #48]	; 0x30
    2356:	9b0b      	ldr	r3, [sp, #44]	; 0x2c
    2358:	2b00      	cmp	r3, #0
    235a:	dd05      	ble.n	2368 <STACK_SIZE+0x368>
    235c:	001a      	movs	r2, r3
    235e:	9905      	ldr	r1, [sp, #20]
    2360:	9804      	ldr	r0, [sp, #16]
    2362:	f000 fd73 	bl	2e4c <__lshift>
    2366:	9005      	str	r0, [sp, #20]
    2368:	9b0c      	ldr	r3, [sp, #48]	; 0x30
    236a:	2b00      	cmp	r3, #0
    236c:	dd05      	ble.n	237a <STACK_SIZE+0x37a>
    236e:	001a      	movs	r2, r3
    2370:	9908      	ldr	r1, [sp, #32]
    2372:	9804      	ldr	r0, [sp, #16]
    2374:	f000 fd6a 	bl	2e4c <__lshift>
    2378:	9008      	str	r0, [sp, #32]
    237a:	9b16      	ldr	r3, [sp, #88]	; 0x58
    237c:	2b00      	cmp	r3, #0
    237e:	d100      	bne.n	2382 <STACK_SIZE+0x382>
    2380:	e089      	b.n	2496 <STACK_SIZE+0x496>
    2382:	9908      	ldr	r1, [sp, #32]
    2384:	9805      	ldr	r0, [sp, #20]
    2386:	f000 fdb2 	bl	2eee <__mcmp>
    238a:	2800      	cmp	r0, #0
    238c:	db00      	blt.n	2390 <STACK_SIZE+0x390>
    238e:	e082      	b.n	2496 <STACK_SIZE+0x496>
    2390:	9b03      	ldr	r3, [sp, #12]
    2392:	220a      	movs	r2, #10
    2394:	3b01      	subs	r3, #1
    2396:	9303      	str	r3, [sp, #12]
    2398:	9905      	ldr	r1, [sp, #20]
    239a:	2300      	movs	r3, #0
    239c:	9804      	ldr	r0, [sp, #16]
    239e:	f000 fbe6 	bl	2b6e <__multadd>
    23a2:	9b0e      	ldr	r3, [sp, #56]	; 0x38
    23a4:	9005      	str	r0, [sp, #20]
    23a6:	2b00      	cmp	r3, #0
    23a8:	d100      	bne.n	23ac <STACK_SIZE+0x3ac>
    23aa:	e15d      	b.n	2668 <STACK_SIZE+0x668>
    23ac:	2300      	movs	r3, #0
    23ae:	0031      	movs	r1, r6
    23b0:	220a      	movs	r2, #10
    23b2:	9804      	ldr	r0, [sp, #16]
    23b4:	f000 fbdb 	bl	2b6e <__multadd>
    23b8:	9b0d      	ldr	r3, [sp, #52]	; 0x34
    23ba:	0006      	movs	r6, r0
    23bc:	2b00      	cmp	r3, #0
    23be:	dc02      	bgt.n	23c6 <STACK_SIZE+0x3c6>
    23c0:	9b22      	ldr	r3, [sp, #136]	; 0x88
    23c2:	2b02      	cmp	r3, #2
    23c4:	dc6d      	bgt.n	24a2 <STACK_SIZE+0x4a2>
    23c6:	2c00      	cmp	r4, #0
    23c8:	dd05      	ble.n	23d6 <STACK_SIZE+0x3d6>
    23ca:	0031      	movs	r1, r6
    23cc:	0022      	movs	r2, r4
    23ce:	9804      	ldr	r0, [sp, #16]
    23d0:	f000 fd3c 	bl	2e4c <__lshift>
    23d4:	0006      	movs	r6, r0
    23d6:	0030      	movs	r0, r6
    23d8:	2d00      	cmp	r5, #0
    23da:	d011      	beq.n	2400 <STACK_SIZE+0x400>
    23dc:	6871      	ldr	r1, [r6, #4]
    23de:	9804      	ldr	r0, [sp, #16]
    23e0:	f000 fb74 	bl	2acc <_Balloc>
    23e4:	0031      	movs	r1, r6
    23e6:	0004      	movs	r4, r0
    23e8:	6933      	ldr	r3, [r6, #16]
    23ea:	310c      	adds	r1, #12
    23ec:	1c9a      	adds	r2, r3, #2
    23ee:	0092      	lsls	r2, r2, #2
    23f0:	300c      	adds	r0, #12
    23f2:	f000 fb62 	bl	2aba <memcpy>
    23f6:	2201      	movs	r2, #1
    23f8:	0021      	movs	r1, r4
    23fa:	9804      	ldr	r0, [sp, #16]
    23fc:	f000 fd26 	bl	2e4c <__lshift>
    2400:	9f0d      	ldr	r7, [sp, #52]	; 0x34
    2402:	9b0a      	ldr	r3, [sp, #40]	; 0x28
    2404:	3f01      	subs	r7, #1
    2406:	930b      	str	r3, [sp, #44]	; 0x2c
    2408:	19db      	adds	r3, r3, r7
    240a:	0037      	movs	r7, r6
    240c:	0006      	movs	r6, r0
    240e:	930f      	str	r3, [sp, #60]	; 0x3c
    2410:	9908      	ldr	r1, [sp, #32]
    2412:	9805      	ldr	r0, [sp, #20]
    2414:	f7ff faca 	bl	19ac <quorem>
    2418:	0039      	movs	r1, r7
    241a:	900d      	str	r0, [sp, #52]	; 0x34
    241c:	0004      	movs	r4, r0
    241e:	9805      	ldr	r0, [sp, #20]
    2420:	f000 fd65 	bl	2eee <__mcmp>
    2424:	0032      	movs	r2, r6
    2426:	900e      	str	r0, [sp, #56]	; 0x38
    2428:	9908      	ldr	r1, [sp, #32]
    242a:	9804      	ldr	r0, [sp, #16]
    242c:	f000 fd78 	bl	2f20 <__mdiff>
    2430:	2301      	movs	r3, #1
    2432:	930c      	str	r3, [sp, #48]	; 0x30
    2434:	68c3      	ldr	r3, [r0, #12]
    2436:	3430      	adds	r4, #48	; 0x30
    2438:	0005      	movs	r5, r0
    243a:	2b00      	cmp	r3, #0
    243c:	d104      	bne.n	2448 <STACK_SIZE+0x448>
    243e:	0001      	movs	r1, r0
    2440:	9805      	ldr	r0, [sp, #20]
    2442:	f000 fd54 	bl	2eee <__mcmp>
    2446:	900c      	str	r0, [sp, #48]	; 0x30
    2448:	0029      	movs	r1, r5
    244a:	9804      	ldr	r0, [sp, #16]
    244c:	f000 fb76 	bl	2b3c <_Bfree>
    2450:	9b0c      	ldr	r3, [sp, #48]	; 0x30
    2452:	9a22      	ldr	r2, [sp, #136]	; 0x88
    2454:	4313      	orrs	r3, r2
    2456:	d000      	beq.n	245a <STACK_SIZE+0x45a>
    2458:	e089      	b.n	256e <STACK_SIZE+0x56e>
    245a:	9a06      	ldr	r2, [sp, #24]
    245c:	3301      	adds	r3, #1
    245e:	4213      	tst	r3, r2
    2460:	d000      	beq.n	2464 <STACK_SIZE+0x464>
    2462:	e084      	b.n	256e <STACK_SIZE+0x56e>
    2464:	2c39      	cmp	r4, #57	; 0x39
    2466:	d100      	bne.n	246a <STACK_SIZE+0x46a>
    2468:	e0a3      	b.n	25b2 <STACK_SIZE+0x5b2>
    246a:	9b0e      	ldr	r3, [sp, #56]	; 0x38
    246c:	2b00      	cmp	r3, #0
    246e:	dd01      	ble.n	2474 <STACK_SIZE+0x474>
    2470:	9c0d      	ldr	r4, [sp, #52]	; 0x34
    2472:	3431      	adds	r4, #49	; 0x31
    2474:	9b0b      	ldr	r3, [sp, #44]	; 0x2c
    2476:	1c5d      	adds	r5, r3, #1
    2478:	701c      	strb	r4, [r3, #0]
    247a:	e027      	b.n	24cc <STACK_SIZE+0x4cc>
    247c:	2b04      	cmp	r3, #4
    247e:	d100      	bne.n	2482 <STACK_SIZE+0x482>
    2480:	e769      	b.n	2356 <STACK_SIZE+0x356>
    2482:	9a0b      	ldr	r2, [sp, #44]	; 0x2c
    2484:	331c      	adds	r3, #28
    2486:	18d2      	adds	r2, r2, r3
    2488:	920b      	str	r2, [sp, #44]	; 0x2c
    248a:	9a0c      	ldr	r2, [sp, #48]	; 0x30
    248c:	18e4      	adds	r4, r4, r3
    248e:	18d3      	adds	r3, r2, r3
    2490:	e760      	b.n	2354 <STACK_SIZE+0x354>
    2492:	0003      	movs	r3, r0
    2494:	e7f5      	b.n	2482 <STACK_SIZE+0x482>
    2496:	2f00      	cmp	r7, #0
    2498:	dc3c      	bgt.n	2514 <STACK_SIZE+0x514>
    249a:	9b22      	ldr	r3, [sp, #136]	; 0x88
    249c:	2b02      	cmp	r3, #2
    249e:	dd39      	ble.n	2514 <STACK_SIZE+0x514>
    24a0:	970d      	str	r7, [sp, #52]	; 0x34
    24a2:	9b0d      	ldr	r3, [sp, #52]	; 0x34
    24a4:	2b00      	cmp	r3, #0
    24a6:	d10c      	bne.n	24c2 <STACK_SIZE+0x4c2>
    24a8:	9908      	ldr	r1, [sp, #32]
    24aa:	2205      	movs	r2, #5
    24ac:	9804      	ldr	r0, [sp, #16]
    24ae:	f000 fb5e 	bl	2b6e <__multadd>
    24b2:	9008      	str	r0, [sp, #32]
    24b4:	0001      	movs	r1, r0
    24b6:	9805      	ldr	r0, [sp, #20]
    24b8:	f000 fd19 	bl	2eee <__mcmp>
    24bc:	2800      	cmp	r0, #0
    24be:	dd00      	ble.n	24c2 <STACK_SIZE+0x4c2>
    24c0:	e55a      	b.n	1f78 <_dtoa_r+0x4c4>
    24c2:	9b23      	ldr	r3, [sp, #140]	; 0x8c
    24c4:	9d0a      	ldr	r5, [sp, #40]	; 0x28
    24c6:	43db      	mvns	r3, r3
    24c8:	9303      	str	r3, [sp, #12]
    24ca:	2700      	movs	r7, #0
    24cc:	9908      	ldr	r1, [sp, #32]
    24ce:	9804      	ldr	r0, [sp, #16]
    24d0:	f000 fb34 	bl	2b3c <_Bfree>
    24d4:	2e00      	cmp	r6, #0
    24d6:	d100      	bne.n	24da <STACK_SIZE+0x4da>
    24d8:	e63f      	b.n	215a <STACK_SIZE+0x15a>
    24da:	2f00      	cmp	r7, #0
    24dc:	d005      	beq.n	24ea <STACK_SIZE+0x4ea>
    24de:	42b7      	cmp	r7, r6
    24e0:	d003      	beq.n	24ea <STACK_SIZE+0x4ea>
    24e2:	0039      	movs	r1, r7
    24e4:	9804      	ldr	r0, [sp, #16]
    24e6:	f000 fb29 	bl	2b3c <_Bfree>
    24ea:	0031      	movs	r1, r6
    24ec:	9804      	ldr	r0, [sp, #16]
    24ee:	f000 fb25 	bl	2b3c <_Bfree>
    24f2:	e632      	b.n	215a <STACK_SIZE+0x15a>
    24f4:	9508      	str	r5, [sp, #32]
    24f6:	002e      	movs	r6, r5
    24f8:	e7e3      	b.n	24c2 <STACK_SIZE+0x4c2>
    24fa:	2300      	movs	r3, #0
    24fc:	9308      	str	r3, [sp, #32]
    24fe:	001e      	movs	r6, r3
    2500:	e7df      	b.n	24c2 <STACK_SIZE+0x4c2>
    2502:	46c0      	nop			; (mov r8, r8)
    2504:	40240000 	.word	0x40240000
    2508:	00000433 	.word	0x00000433
    250c:	9603      	str	r6, [sp, #12]
    250e:	9508      	str	r5, [sp, #32]
    2510:	002e      	movs	r6, r5
    2512:	e531      	b.n	1f78 <_dtoa_r+0x4c4>
    2514:	9b0e      	ldr	r3, [sp, #56]	; 0x38
    2516:	970d      	str	r7, [sp, #52]	; 0x34
    2518:	2b00      	cmp	r3, #0
    251a:	d000      	beq.n	251e <STACK_SIZE+0x51e>
    251c:	e753      	b.n	23c6 <STACK_SIZE+0x3c6>
    251e:	9d0a      	ldr	r5, [sp, #40]	; 0x28
    2520:	9908      	ldr	r1, [sp, #32]
    2522:	9805      	ldr	r0, [sp, #20]
    2524:	f7ff fa42 	bl	19ac <quorem>
    2528:	9b0a      	ldr	r3, [sp, #40]	; 0x28
    252a:	3030      	adds	r0, #48	; 0x30
    252c:	9a0d      	ldr	r2, [sp, #52]	; 0x34
    252e:	7028      	strb	r0, [r5, #0]
    2530:	3501      	adds	r5, #1
    2532:	0004      	movs	r4, r0
    2534:	1aeb      	subs	r3, r5, r3
    2536:	429a      	cmp	r2, r3
    2538:	dc78      	bgt.n	262c <STACK_SIZE+0x62c>
    253a:	1e15      	subs	r5, r2, #0
    253c:	dc00      	bgt.n	2540 <STACK_SIZE+0x540>
    253e:	2501      	movs	r5, #1
    2540:	2700      	movs	r7, #0
    2542:	9b0a      	ldr	r3, [sp, #40]	; 0x28
    2544:	195d      	adds	r5, r3, r5
    2546:	9905      	ldr	r1, [sp, #20]
    2548:	2201      	movs	r2, #1
    254a:	9804      	ldr	r0, [sp, #16]
    254c:	f000 fc7e 	bl	2e4c <__lshift>
    2550:	9908      	ldr	r1, [sp, #32]
    2552:	9005      	str	r0, [sp, #20]
    2554:	f000 fccb 	bl	2eee <__mcmp>
    2558:	2800      	cmp	r0, #0
    255a:	dc2f      	bgt.n	25bc <STACK_SIZE+0x5bc>
    255c:	d101      	bne.n	2562 <STACK_SIZE+0x562>
    255e:	07e3      	lsls	r3, r4, #31
    2560:	d42c      	bmi.n	25bc <STACK_SIZE+0x5bc>
    2562:	1e6b      	subs	r3, r5, #1
    2564:	781a      	ldrb	r2, [r3, #0]
    2566:	2a30      	cmp	r2, #48	; 0x30
    2568:	d1b0      	bne.n	24cc <STACK_SIZE+0x4cc>
    256a:	001d      	movs	r5, r3
    256c:	e7f9      	b.n	2562 <STACK_SIZE+0x562>
    256e:	9b0e      	ldr	r3, [sp, #56]	; 0x38
    2570:	2b00      	cmp	r3, #0
    2572:	db07      	blt.n	2584 <STACK_SIZE+0x584>
    2574:	001d      	movs	r5, r3
    2576:	9b22      	ldr	r3, [sp, #136]	; 0x88
    2578:	431d      	orrs	r5, r3
    257a:	d126      	bne.n	25ca <STACK_SIZE+0x5ca>
    257c:	2301      	movs	r3, #1
    257e:	9a06      	ldr	r2, [sp, #24]
    2580:	4213      	tst	r3, r2
    2582:	d122      	bne.n	25ca <STACK_SIZE+0x5ca>
    2584:	9b0c      	ldr	r3, [sp, #48]	; 0x30
    2586:	2b00      	cmp	r3, #0
    2588:	dc00      	bgt.n	258c <STACK_SIZE+0x58c>
    258a:	e773      	b.n	2474 <STACK_SIZE+0x474>
    258c:	9905      	ldr	r1, [sp, #20]
    258e:	2201      	movs	r2, #1
    2590:	9804      	ldr	r0, [sp, #16]
    2592:	f000 fc5b 	bl	2e4c <__lshift>
    2596:	9908      	ldr	r1, [sp, #32]
    2598:	9005      	str	r0, [sp, #20]
    259a:	f000 fca8 	bl	2eee <__mcmp>
    259e:	2800      	cmp	r0, #0
    25a0:	dc04      	bgt.n	25ac <STACK_SIZE+0x5ac>
    25a2:	d000      	beq.n	25a6 <STACK_SIZE+0x5a6>
    25a4:	e766      	b.n	2474 <STACK_SIZE+0x474>
    25a6:	07e3      	lsls	r3, r4, #31
    25a8:	d400      	bmi.n	25ac <STACK_SIZE+0x5ac>
    25aa:	e763      	b.n	2474 <STACK_SIZE+0x474>
    25ac:	2c39      	cmp	r4, #57	; 0x39
    25ae:	d000      	beq.n	25b2 <STACK_SIZE+0x5b2>
    25b0:	e75e      	b.n	2470 <STACK_SIZE+0x470>
    25b2:	9b0b      	ldr	r3, [sp, #44]	; 0x2c
    25b4:	9a0b      	ldr	r2, [sp, #44]	; 0x2c
    25b6:	1c5d      	adds	r5, r3, #1
    25b8:	2339      	movs	r3, #57	; 0x39
    25ba:	7013      	strb	r3, [r2, #0]
    25bc:	1e6b      	subs	r3, r5, #1
    25be:	781a      	ldrb	r2, [r3, #0]
    25c0:	2a39      	cmp	r2, #57	; 0x39
    25c2:	d03b      	beq.n	263c <STACK_SIZE+0x63c>
    25c4:	3201      	adds	r2, #1
    25c6:	701a      	strb	r2, [r3, #0]
    25c8:	e780      	b.n	24cc <STACK_SIZE+0x4cc>
    25ca:	9b0b      	ldr	r3, [sp, #44]	; 0x2c
    25cc:	3301      	adds	r3, #1
    25ce:	930d      	str	r3, [sp, #52]	; 0x34
    25d0:	9b0c      	ldr	r3, [sp, #48]	; 0x30
    25d2:	2b00      	cmp	r3, #0
    25d4:	dd05      	ble.n	25e2 <STACK_SIZE+0x5e2>
    25d6:	2c39      	cmp	r4, #57	; 0x39
    25d8:	d0eb      	beq.n	25b2 <STACK_SIZE+0x5b2>
    25da:	9d0d      	ldr	r5, [sp, #52]	; 0x34
    25dc:	3401      	adds	r4, #1
    25de:	9b0b      	ldr	r3, [sp, #44]	; 0x2c
    25e0:	e74a      	b.n	2478 <STACK_SIZE+0x478>
    25e2:	9b0b      	ldr	r3, [sp, #44]	; 0x2c
    25e4:	9a0f      	ldr	r2, [sp, #60]	; 0x3c
    25e6:	9d0d      	ldr	r5, [sp, #52]	; 0x34
    25e8:	701c      	strb	r4, [r3, #0]
    25ea:	4293      	cmp	r3, r2
    25ec:	d0ab      	beq.n	2546 <STACK_SIZE+0x546>
    25ee:	2300      	movs	r3, #0
    25f0:	220a      	movs	r2, #10
    25f2:	9905      	ldr	r1, [sp, #20]
    25f4:	9804      	ldr	r0, [sp, #16]
    25f6:	f000 faba 	bl	2b6e <__multadd>
    25fa:	2300      	movs	r3, #0
    25fc:	9005      	str	r0, [sp, #20]
    25fe:	220a      	movs	r2, #10
    2600:	0039      	movs	r1, r7
    2602:	9804      	ldr	r0, [sp, #16]
    2604:	42b7      	cmp	r7, r6
    2606:	d106      	bne.n	2616 <STACK_SIZE+0x616>
    2608:	f000 fab1 	bl	2b6e <__multadd>
    260c:	0007      	movs	r7, r0
    260e:	0006      	movs	r6, r0
    2610:	9b0d      	ldr	r3, [sp, #52]	; 0x34
    2612:	930b      	str	r3, [sp, #44]	; 0x2c
    2614:	e6fc      	b.n	2410 <STACK_SIZE+0x410>
    2616:	f000 faaa 	bl	2b6e <__multadd>
    261a:	0031      	movs	r1, r6
    261c:	0007      	movs	r7, r0
    261e:	2300      	movs	r3, #0
    2620:	220a      	movs	r2, #10
    2622:	9804      	ldr	r0, [sp, #16]
    2624:	f000 faa3 	bl	2b6e <__multadd>
    2628:	0006      	movs	r6, r0
    262a:	e7f1      	b.n	2610 <STACK_SIZE+0x610>
    262c:	2300      	movs	r3, #0
    262e:	220a      	movs	r2, #10
    2630:	9905      	ldr	r1, [sp, #20]
    2632:	9804      	ldr	r0, [sp, #16]
    2634:	f000 fa9b 	bl	2b6e <__multadd>
    2638:	9005      	str	r0, [sp, #20]
    263a:	e771      	b.n	2520 <STACK_SIZE+0x520>
    263c:	9a0a      	ldr	r2, [sp, #40]	; 0x28
    263e:	429a      	cmp	r2, r3
    2640:	d105      	bne.n	264e <STACK_SIZE+0x64e>
    2642:	9b03      	ldr	r3, [sp, #12]
    2644:	3301      	adds	r3, #1
    2646:	9303      	str	r3, [sp, #12]
    2648:	2331      	movs	r3, #49	; 0x31
    264a:	7013      	strb	r3, [r2, #0]
    264c:	e73e      	b.n	24cc <STACK_SIZE+0x4cc>
    264e:	001d      	movs	r5, r3
    2650:	e7b4      	b.n	25bc <STACK_SIZE+0x5bc>
    2652:	4b0a      	ldr	r3, [pc, #40]	; (267c <STACK_SIZE+0x67c>)
    2654:	9a26      	ldr	r2, [sp, #152]	; 0x98
    2656:	930a      	str	r3, [sp, #40]	; 0x28
    2658:	4b09      	ldr	r3, [pc, #36]	; (2680 <STACK_SIZE+0x680>)
    265a:	2a00      	cmp	r2, #0
    265c:	d001      	beq.n	2662 <STACK_SIZE+0x662>
    265e:	9a26      	ldr	r2, [sp, #152]	; 0x98
    2660:	6013      	str	r3, [r2, #0]
    2662:	980a      	ldr	r0, [sp, #40]	; 0x28
    2664:	b01d      	add	sp, #116	; 0x74
    2666:	bdf0      	pop	{r4, r5, r6, r7, pc}
    2668:	9b0d      	ldr	r3, [sp, #52]	; 0x34
    266a:	2b00      	cmp	r3, #0
    266c:	dd00      	ble.n	2670 <STACK_SIZE+0x670>
    266e:	e756      	b.n	251e <STACK_SIZE+0x51e>
    2670:	9b22      	ldr	r3, [sp, #136]	; 0x88
    2672:	2b02      	cmp	r3, #2
    2674:	dc00      	bgt.n	2678 <STACK_SIZE+0x678>
    2676:	e752      	b.n	251e <STACK_SIZE+0x51e>
    2678:	e713      	b.n	24a2 <STACK_SIZE+0x4a2>
    267a:	46c0      	nop			; (mov r8, r8)
    267c:	000056b8 	.word	0x000056b8
    2680:	000056c0 	.word	0x000056c0

00002684 <__sflush_r>:
    2684:	b5f7      	push	{r0, r1, r2, r4, r5, r6, r7, lr}
    2686:	898a      	ldrh	r2, [r1, #12]
    2688:	0005      	movs	r5, r0
    268a:	000c      	movs	r4, r1
    268c:	0713      	lsls	r3, r2, #28
    268e:	d460      	bmi.n	2752 <__sflush_r+0xce>
    2690:	684b      	ldr	r3, [r1, #4]
    2692:	2b00      	cmp	r3, #0
    2694:	dc04      	bgt.n	26a0 <__sflush_r+0x1c>
    2696:	6c0b      	ldr	r3, [r1, #64]	; 0x40
    2698:	2b00      	cmp	r3, #0
    269a:	dc01      	bgt.n	26a0 <__sflush_r+0x1c>
    269c:	2000      	movs	r0, #0
    269e:	bdfe      	pop	{r1, r2, r3, r4, r5, r6, r7, pc}
    26a0:	6ae7      	ldr	r7, [r4, #44]	; 0x2c
    26a2:	2f00      	cmp	r7, #0
    26a4:	d0fa      	beq.n	269c <__sflush_r+0x18>
    26a6:	2300      	movs	r3, #0
    26a8:	682e      	ldr	r6, [r5, #0]
    26aa:	602b      	str	r3, [r5, #0]
    26ac:	2380      	movs	r3, #128	; 0x80
    26ae:	015b      	lsls	r3, r3, #5
    26b0:	401a      	ands	r2, r3
    26b2:	d034      	beq.n	271e <__sflush_r+0x9a>
    26b4:	6d60      	ldr	r0, [r4, #84]	; 0x54
    26b6:	89a3      	ldrh	r3, [r4, #12]
    26b8:	075b      	lsls	r3, r3, #29
    26ba:	d506      	bpl.n	26ca <__sflush_r+0x46>
    26bc:	6863      	ldr	r3, [r4, #4]
    26be:	1ac0      	subs	r0, r0, r3
    26c0:	6b63      	ldr	r3, [r4, #52]	; 0x34
    26c2:	2b00      	cmp	r3, #0
    26c4:	d001      	beq.n	26ca <__sflush_r+0x46>
    26c6:	6c23      	ldr	r3, [r4, #64]	; 0x40
    26c8:	1ac0      	subs	r0, r0, r3
    26ca:	0002      	movs	r2, r0
    26cc:	6a21      	ldr	r1, [r4, #32]
    26ce:	2300      	movs	r3, #0
    26d0:	0028      	movs	r0, r5
    26d2:	6ae7      	ldr	r7, [r4, #44]	; 0x2c
    26d4:	47b8      	blx	r7
    26d6:	89a1      	ldrh	r1, [r4, #12]
    26d8:	1c43      	adds	r3, r0, #1
    26da:	d106      	bne.n	26ea <__sflush_r+0x66>
    26dc:	682b      	ldr	r3, [r5, #0]
    26de:	2b1d      	cmp	r3, #29
    26e0:	d831      	bhi.n	2746 <__sflush_r+0xc2>
    26e2:	4a2c      	ldr	r2, [pc, #176]	; (2794 <__sflush_r+0x110>)
    26e4:	40da      	lsrs	r2, r3
    26e6:	07d3      	lsls	r3, r2, #31
    26e8:	d52d      	bpl.n	2746 <__sflush_r+0xc2>
    26ea:	2300      	movs	r3, #0
    26ec:	6063      	str	r3, [r4, #4]
    26ee:	6923      	ldr	r3, [r4, #16]
    26f0:	6023      	str	r3, [r4, #0]
    26f2:	04cb      	lsls	r3, r1, #19
    26f4:	d505      	bpl.n	2702 <__sflush_r+0x7e>
    26f6:	1c43      	adds	r3, r0, #1
    26f8:	d102      	bne.n	2700 <__sflush_r+0x7c>
    26fa:	682b      	ldr	r3, [r5, #0]
    26fc:	2b00      	cmp	r3, #0
    26fe:	d100      	bne.n	2702 <__sflush_r+0x7e>
    2700:	6560      	str	r0, [r4, #84]	; 0x54
    2702:	6b61      	ldr	r1, [r4, #52]	; 0x34
    2704:	602e      	str	r6, [r5, #0]
    2706:	2900      	cmp	r1, #0
    2708:	d0c8      	beq.n	269c <__sflush_r+0x18>
    270a:	0023      	movs	r3, r4
    270c:	3344      	adds	r3, #68	; 0x44
    270e:	4299      	cmp	r1, r3
    2710:	d002      	beq.n	2718 <__sflush_r+0x94>
    2712:	0028      	movs	r0, r5
    2714:	f000 fcca 	bl	30ac <_free_r>
    2718:	2000      	movs	r0, #0
    271a:	6360      	str	r0, [r4, #52]	; 0x34
    271c:	e7bf      	b.n	269e <__sflush_r+0x1a>
    271e:	2301      	movs	r3, #1
    2720:	6a21      	ldr	r1, [r4, #32]
    2722:	0028      	movs	r0, r5
    2724:	47b8      	blx	r7
    2726:	1c43      	adds	r3, r0, #1
    2728:	d1c5      	bne.n	26b6 <__sflush_r+0x32>
    272a:	682b      	ldr	r3, [r5, #0]
    272c:	2b00      	cmp	r3, #0
    272e:	d0c2      	beq.n	26b6 <__sflush_r+0x32>
    2730:	2b1d      	cmp	r3, #29
    2732:	d001      	beq.n	2738 <__sflush_r+0xb4>
    2734:	2b16      	cmp	r3, #22
    2736:	d101      	bne.n	273c <__sflush_r+0xb8>
    2738:	602e      	str	r6, [r5, #0]
    273a:	e7af      	b.n	269c <__sflush_r+0x18>
    273c:	2340      	movs	r3, #64	; 0x40
    273e:	89a2      	ldrh	r2, [r4, #12]
    2740:	4313      	orrs	r3, r2
    2742:	81a3      	strh	r3, [r4, #12]
    2744:	e7ab      	b.n	269e <__sflush_r+0x1a>
    2746:	2340      	movs	r3, #64	; 0x40
    2748:	430b      	orrs	r3, r1
    274a:	2001      	movs	r0, #1
    274c:	81a3      	strh	r3, [r4, #12]
    274e:	4240      	negs	r0, r0
    2750:	e7a5      	b.n	269e <__sflush_r+0x1a>
    2752:	690f      	ldr	r7, [r1, #16]
    2754:	2f00      	cmp	r7, #0
    2756:	d0a1      	beq.n	269c <__sflush_r+0x18>
    2758:	680b      	ldr	r3, [r1, #0]
    275a:	600f      	str	r7, [r1, #0]
    275c:	1bdb      	subs	r3, r3, r7
    275e:	9301      	str	r3, [sp, #4]
    2760:	2300      	movs	r3, #0
    2762:	0792      	lsls	r2, r2, #30
    2764:	d100      	bne.n	2768 <__sflush_r+0xe4>
    2766:	694b      	ldr	r3, [r1, #20]
    2768:	60a3      	str	r3, [r4, #8]
    276a:	9b01      	ldr	r3, [sp, #4]
    276c:	2b00      	cmp	r3, #0
    276e:	dc00      	bgt.n	2772 <__sflush_r+0xee>
    2770:	e794      	b.n	269c <__sflush_r+0x18>
    2772:	9b01      	ldr	r3, [sp, #4]
    2774:	003a      	movs	r2, r7
    2776:	6a21      	ldr	r1, [r4, #32]
    2778:	0028      	movs	r0, r5
    277a:	6aa6      	ldr	r6, [r4, #40]	; 0x28
    277c:	47b0      	blx	r6
    277e:	2800      	cmp	r0, #0
    2780:	dc03      	bgt.n	278a <__sflush_r+0x106>
    2782:	2340      	movs	r3, #64	; 0x40
    2784:	89a2      	ldrh	r2, [r4, #12]
    2786:	4313      	orrs	r3, r2
    2788:	e7df      	b.n	274a <__sflush_r+0xc6>
    278a:	9b01      	ldr	r3, [sp, #4]
    278c:	183f      	adds	r7, r7, r0
    278e:	1a1b      	subs	r3, r3, r0
    2790:	9301      	str	r3, [sp, #4]
    2792:	e7ea      	b.n	276a <__sflush_r+0xe6>
    2794:	20400001 	.word	0x20400001

00002798 <_fflush_r>:
    2798:	690b      	ldr	r3, [r1, #16]
    279a:	b570      	push	{r4, r5, r6, lr}
    279c:	0005      	movs	r5, r0
    279e:	000c      	movs	r4, r1
    27a0:	2b00      	cmp	r3, #0
    27a2:	d101      	bne.n	27a8 <_fflush_r+0x10>
    27a4:	2000      	movs	r0, #0
    27a6:	bd70      	pop	{r4, r5, r6, pc}
    27a8:	2800      	cmp	r0, #0
    27aa:	d004      	beq.n	27b6 <_fflush_r+0x1e>
    27ac:	6983      	ldr	r3, [r0, #24]
    27ae:	2b00      	cmp	r3, #0
    27b0:	d101      	bne.n	27b6 <_fflush_r+0x1e>
    27b2:	f000 f85f 	bl	2874 <__sinit>
    27b6:	4b0b      	ldr	r3, [pc, #44]	; (27e4 <_fflush_r+0x4c>)
    27b8:	429c      	cmp	r4, r3
    27ba:	d109      	bne.n	27d0 <_fflush_r+0x38>
    27bc:	686c      	ldr	r4, [r5, #4]
    27be:	220c      	movs	r2, #12
    27c0:	5ea3      	ldrsh	r3, [r4, r2]
    27c2:	2b00      	cmp	r3, #0
    27c4:	d0ee      	beq.n	27a4 <_fflush_r+0xc>
    27c6:	0021      	movs	r1, r4
    27c8:	0028      	movs	r0, r5
    27ca:	f7ff ff5b 	bl	2684 <__sflush_r>
    27ce:	e7ea      	b.n	27a6 <_fflush_r+0xe>
    27d0:	4b05      	ldr	r3, [pc, #20]	; (27e8 <_fflush_r+0x50>)
    27d2:	429c      	cmp	r4, r3
    27d4:	d101      	bne.n	27da <_fflush_r+0x42>
    27d6:	68ac      	ldr	r4, [r5, #8]
    27d8:	e7f1      	b.n	27be <_fflush_r+0x26>
    27da:	4b04      	ldr	r3, [pc, #16]	; (27ec <_fflush_r+0x54>)
    27dc:	429c      	cmp	r4, r3
    27de:	d1ee      	bne.n	27be <_fflush_r+0x26>
    27e0:	68ec      	ldr	r4, [r5, #12]
    27e2:	e7ec      	b.n	27be <_fflush_r+0x26>
    27e4:	000056e8 	.word	0x000056e8
    27e8:	00005708 	.word	0x00005708
    27ec:	000056c8 	.word	0x000056c8

000027f0 <_cleanup_r>:
    27f0:	b510      	push	{r4, lr}
    27f2:	4902      	ldr	r1, [pc, #8]	; (27fc <_cleanup_r+0xc>)
    27f4:	f000 f8b2 	bl	295c <_fwalk_reent>
    27f8:	bd10      	pop	{r4, pc}
    27fa:	46c0      	nop			; (mov r8, r8)
    27fc:	00002799 	.word	0x00002799

00002800 <std.isra.0>:
    2800:	2300      	movs	r3, #0
    2802:	b510      	push	{r4, lr}
    2804:	0004      	movs	r4, r0
    2806:	6003      	str	r3, [r0, #0]
    2808:	6043      	str	r3, [r0, #4]
    280a:	6083      	str	r3, [r0, #8]
    280c:	8181      	strh	r1, [r0, #12]
    280e:	6643      	str	r3, [r0, #100]	; 0x64
    2810:	81c2      	strh	r2, [r0, #14]
    2812:	6103      	str	r3, [r0, #16]
    2814:	6143      	str	r3, [r0, #20]
    2816:	6183      	str	r3, [r0, #24]
    2818:	0019      	movs	r1, r3
    281a:	2208      	movs	r2, #8
    281c:	305c      	adds	r0, #92	; 0x5c
    281e:	f7fe faa9 	bl	d74 <memset>
    2822:	4b05      	ldr	r3, [pc, #20]	; (2838 <std.isra.0+0x38>)
    2824:	6224      	str	r4, [r4, #32]
    2826:	6263      	str	r3, [r4, #36]	; 0x24
    2828:	4b04      	ldr	r3, [pc, #16]	; (283c <std.isra.0+0x3c>)
    282a:	62a3      	str	r3, [r4, #40]	; 0x28
    282c:	4b04      	ldr	r3, [pc, #16]	; (2840 <std.isra.0+0x40>)
    282e:	62e3      	str	r3, [r4, #44]	; 0x2c
    2830:	4b04      	ldr	r3, [pc, #16]	; (2844 <std.isra.0+0x44>)
    2832:	6323      	str	r3, [r4, #48]	; 0x30
    2834:	bd10      	pop	{r4, pc}
    2836:	46c0      	nop			; (mov r8, r8)
    2838:	000034a9 	.word	0x000034a9
    283c:	000034d1 	.word	0x000034d1
    2840:	00003509 	.word	0x00003509
    2844:	00003535 	.word	0x00003535

00002848 <__sfmoreglue>:
    2848:	b570      	push	{r4, r5, r6, lr}
    284a:	2568      	movs	r5, #104	; 0x68
    284c:	1e4a      	subs	r2, r1, #1
    284e:	4355      	muls	r5, r2
    2850:	000e      	movs	r6, r1
    2852:	0029      	movs	r1, r5
    2854:	3174      	adds	r1, #116	; 0x74
    2856:	f000 fc73 	bl	3140 <_malloc_r>
    285a:	1e04      	subs	r4, r0, #0
    285c:	d008      	beq.n	2870 <__sfmoreglue+0x28>
    285e:	2100      	movs	r1, #0
    2860:	002a      	movs	r2, r5
    2862:	6001      	str	r1, [r0, #0]
    2864:	6046      	str	r6, [r0, #4]
    2866:	300c      	adds	r0, #12
    2868:	60a0      	str	r0, [r4, #8]
    286a:	3268      	adds	r2, #104	; 0x68
    286c:	f7fe fa82 	bl	d74 <memset>
    2870:	0020      	movs	r0, r4
    2872:	bd70      	pop	{r4, r5, r6, pc}

00002874 <__sinit>:
    2874:	6983      	ldr	r3, [r0, #24]
    2876:	b513      	push	{r0, r1, r4, lr}
    2878:	0004      	movs	r4, r0
    287a:	2b00      	cmp	r3, #0
    287c:	d128      	bne.n	28d0 <__sinit+0x5c>
    287e:	6483      	str	r3, [r0, #72]	; 0x48
    2880:	64c3      	str	r3, [r0, #76]	; 0x4c
    2882:	6503      	str	r3, [r0, #80]	; 0x50
    2884:	4b13      	ldr	r3, [pc, #76]	; (28d4 <__sinit+0x60>)
    2886:	4a14      	ldr	r2, [pc, #80]	; (28d8 <__sinit+0x64>)
    2888:	681b      	ldr	r3, [r3, #0]
    288a:	6282      	str	r2, [r0, #40]	; 0x28
    288c:	9301      	str	r3, [sp, #4]
    288e:	4298      	cmp	r0, r3
    2890:	d101      	bne.n	2896 <__sinit+0x22>
    2892:	2301      	movs	r3, #1
    2894:	6183      	str	r3, [r0, #24]
    2896:	0020      	movs	r0, r4
    2898:	f000 f820 	bl	28dc <__sfp>
    289c:	6060      	str	r0, [r4, #4]
    289e:	0020      	movs	r0, r4
    28a0:	f000 f81c 	bl	28dc <__sfp>
    28a4:	60a0      	str	r0, [r4, #8]
    28a6:	0020      	movs	r0, r4
    28a8:	f000 f818 	bl	28dc <__sfp>
    28ac:	2200      	movs	r2, #0
    28ae:	60e0      	str	r0, [r4, #12]
    28b0:	2104      	movs	r1, #4
    28b2:	6860      	ldr	r0, [r4, #4]
    28b4:	f7ff ffa4 	bl	2800 <std.isra.0>
    28b8:	2201      	movs	r2, #1
    28ba:	2109      	movs	r1, #9
    28bc:	68a0      	ldr	r0, [r4, #8]
    28be:	f7ff ff9f 	bl	2800 <std.isra.0>
    28c2:	2202      	movs	r2, #2
    28c4:	2112      	movs	r1, #18
    28c6:	68e0      	ldr	r0, [r4, #12]
    28c8:	f7ff ff9a 	bl	2800 <std.isra.0>
    28cc:	2301      	movs	r3, #1
    28ce:	61a3      	str	r3, [r4, #24]
    28d0:	bd13      	pop	{r0, r1, r4, pc}
    28d2:	46c0      	nop			; (mov r8, r8)
    28d4:	00005680 	.word	0x00005680
    28d8:	000027f1 	.word	0x000027f1

000028dc <__sfp>:
    28dc:	b5f8      	push	{r3, r4, r5, r6, r7, lr}
    28de:	4b1e      	ldr	r3, [pc, #120]	; (2958 <__sfp+0x7c>)
    28e0:	0007      	movs	r7, r0
    28e2:	681e      	ldr	r6, [r3, #0]
    28e4:	69b3      	ldr	r3, [r6, #24]
    28e6:	2b00      	cmp	r3, #0
    28e8:	d102      	bne.n	28f0 <__sfp+0x14>
    28ea:	0030      	movs	r0, r6
    28ec:	f7ff ffc2 	bl	2874 <__sinit>
    28f0:	3648      	adds	r6, #72	; 0x48
    28f2:	68b4      	ldr	r4, [r6, #8]
    28f4:	6873      	ldr	r3, [r6, #4]
    28f6:	3b01      	subs	r3, #1
    28f8:	d504      	bpl.n	2904 <__sfp+0x28>
    28fa:	6833      	ldr	r3, [r6, #0]
    28fc:	2b00      	cmp	r3, #0
    28fe:	d007      	beq.n	2910 <__sfp+0x34>
    2900:	6836      	ldr	r6, [r6, #0]
    2902:	e7f6      	b.n	28f2 <__sfp+0x16>
    2904:	220c      	movs	r2, #12
    2906:	5ea5      	ldrsh	r5, [r4, r2]
    2908:	2d00      	cmp	r5, #0
    290a:	d00d      	beq.n	2928 <__sfp+0x4c>
    290c:	3468      	adds	r4, #104	; 0x68
    290e:	e7f2      	b.n	28f6 <__sfp+0x1a>
    2910:	2104      	movs	r1, #4
    2912:	0038      	movs	r0, r7
    2914:	f7ff ff98 	bl	2848 <__sfmoreglue>
    2918:	6030      	str	r0, [r6, #0]
    291a:	2800      	cmp	r0, #0
    291c:	d1f0      	bne.n	2900 <__sfp+0x24>
    291e:	230c      	movs	r3, #12
    2920:	0004      	movs	r4, r0
    2922:	603b      	str	r3, [r7, #0]
    2924:	0020      	movs	r0, r4
    2926:	bdf8      	pop	{r3, r4, r5, r6, r7, pc}
    2928:	2301      	movs	r3, #1
    292a:	0020      	movs	r0, r4
    292c:	425b      	negs	r3, r3
    292e:	81e3      	strh	r3, [r4, #14]
    2930:	3302      	adds	r3, #2
    2932:	81a3      	strh	r3, [r4, #12]
    2934:	6665      	str	r5, [r4, #100]	; 0x64
    2936:	6025      	str	r5, [r4, #0]
    2938:	60a5      	str	r5, [r4, #8]
    293a:	6065      	str	r5, [r4, #4]
    293c:	6125      	str	r5, [r4, #16]
    293e:	6165      	str	r5, [r4, #20]
    2940:	61a5      	str	r5, [r4, #24]
    2942:	2208      	movs	r2, #8
    2944:	0029      	movs	r1, r5
    2946:	305c      	adds	r0, #92	; 0x5c
    2948:	f7fe fa14 	bl	d74 <memset>
    294c:	6365      	str	r5, [r4, #52]	; 0x34
    294e:	63a5      	str	r5, [r4, #56]	; 0x38
    2950:	64a5      	str	r5, [r4, #72]	; 0x48
    2952:	64e5      	str	r5, [r4, #76]	; 0x4c
    2954:	e7e6      	b.n	2924 <__sfp+0x48>
    2956:	46c0      	nop			; (mov r8, r8)
    2958:	00005680 	.word	0x00005680

0000295c <_fwalk_reent>:
    295c:	b5f7      	push	{r0, r1, r2, r4, r5, r6, r7, lr}
    295e:	0004      	movs	r4, r0
    2960:	0007      	movs	r7, r0
    2962:	2600      	movs	r6, #0
    2964:	9101      	str	r1, [sp, #4]
    2966:	3448      	adds	r4, #72	; 0x48
    2968:	2c00      	cmp	r4, #0
    296a:	d101      	bne.n	2970 <_fwalk_reent+0x14>
    296c:	0030      	movs	r0, r6
    296e:	bdfe      	pop	{r1, r2, r3, r4, r5, r6, r7, pc}
    2970:	6863      	ldr	r3, [r4, #4]
    2972:	68a5      	ldr	r5, [r4, #8]
    2974:	9300      	str	r3, [sp, #0]
    2976:	9b00      	ldr	r3, [sp, #0]
    2978:	3b01      	subs	r3, #1
    297a:	9300      	str	r3, [sp, #0]
    297c:	d501      	bpl.n	2982 <_fwalk_reent+0x26>
    297e:	6824      	ldr	r4, [r4, #0]
    2980:	e7f2      	b.n	2968 <_fwalk_reent+0xc>
    2982:	89ab      	ldrh	r3, [r5, #12]
    2984:	2b01      	cmp	r3, #1
    2986:	d908      	bls.n	299a <_fwalk_reent+0x3e>
    2988:	220e      	movs	r2, #14
    298a:	5eab      	ldrsh	r3, [r5, r2]
    298c:	3301      	adds	r3, #1
    298e:	d004      	beq.n	299a <_fwalk_reent+0x3e>
    2990:	0029      	movs	r1, r5
    2992:	0038      	movs	r0, r7
    2994:	9b01      	ldr	r3, [sp, #4]
    2996:	4798      	blx	r3
    2998:	4306      	orrs	r6, r0
    299a:	3568      	adds	r5, #104	; 0x68
    299c:	e7eb      	b.n	2976 <_fwalk_reent+0x1a>
	...

000029a0 <_localeconv_r>:
    29a0:	4b03      	ldr	r3, [pc, #12]	; (29b0 <_localeconv_r+0x10>)
    29a2:	681b      	ldr	r3, [r3, #0]
    29a4:	6a18      	ldr	r0, [r3, #32]
    29a6:	2800      	cmp	r0, #0
    29a8:	d100      	bne.n	29ac <_localeconv_r+0xc>
    29aa:	4802      	ldr	r0, [pc, #8]	; (29b4 <_localeconv_r+0x14>)
    29ac:	30f0      	adds	r0, #240	; 0xf0
    29ae:	4770      	bx	lr
    29b0:	20000000 	.word	0x20000000
    29b4:	20000064 	.word	0x20000064

000029b8 <__swhatbuf_r>:
    29b8:	b570      	push	{r4, r5, r6, lr}
    29ba:	000e      	movs	r6, r1
    29bc:	001d      	movs	r5, r3
    29be:	230e      	movs	r3, #14
    29c0:	5ec9      	ldrsh	r1, [r1, r3]
    29c2:	b090      	sub	sp, #64	; 0x40
    29c4:	0014      	movs	r4, r2
    29c6:	2900      	cmp	r1, #0
    29c8:	da07      	bge.n	29da <__swhatbuf_r+0x22>
    29ca:	2300      	movs	r3, #0
    29cc:	602b      	str	r3, [r5, #0]
    29ce:	89b3      	ldrh	r3, [r6, #12]
    29d0:	061b      	lsls	r3, r3, #24
    29d2:	d411      	bmi.n	29f8 <__swhatbuf_r+0x40>
    29d4:	2380      	movs	r3, #128	; 0x80
    29d6:	00db      	lsls	r3, r3, #3
    29d8:	e00f      	b.n	29fa <__swhatbuf_r+0x42>
    29da:	aa01      	add	r2, sp, #4
    29dc:	f000 fdd6 	bl	358c <_fstat_r>
    29e0:	2800      	cmp	r0, #0
    29e2:	dbf2      	blt.n	29ca <__swhatbuf_r+0x12>
    29e4:	22f0      	movs	r2, #240	; 0xf0
    29e6:	9b02      	ldr	r3, [sp, #8]
    29e8:	0212      	lsls	r2, r2, #8
    29ea:	4013      	ands	r3, r2
    29ec:	4a05      	ldr	r2, [pc, #20]	; (2a04 <__swhatbuf_r+0x4c>)
    29ee:	189b      	adds	r3, r3, r2
    29f0:	425a      	negs	r2, r3
    29f2:	4153      	adcs	r3, r2
    29f4:	602b      	str	r3, [r5, #0]
    29f6:	e7ed      	b.n	29d4 <__swhatbuf_r+0x1c>
    29f8:	2340      	movs	r3, #64	; 0x40
    29fa:	2000      	movs	r0, #0
    29fc:	6023      	str	r3, [r4, #0]
    29fe:	b010      	add	sp, #64	; 0x40
    2a00:	bd70      	pop	{r4, r5, r6, pc}
    2a02:	46c0      	nop			; (mov r8, r8)
    2a04:	ffffe000 	.word	0xffffe000

00002a08 <__smakebuf_r>:
    2a08:	b5f7      	push	{r0, r1, r2, r4, r5, r6, r7, lr}
    2a0a:	2602      	movs	r6, #2
    2a0c:	898b      	ldrh	r3, [r1, #12]
    2a0e:	0005      	movs	r5, r0
    2a10:	000c      	movs	r4, r1
    2a12:	4233      	tst	r3, r6
    2a14:	d006      	beq.n	2a24 <__smakebuf_r+0x1c>
    2a16:	0023      	movs	r3, r4
    2a18:	3347      	adds	r3, #71	; 0x47
    2a1a:	6023      	str	r3, [r4, #0]
    2a1c:	6123      	str	r3, [r4, #16]
    2a1e:	2301      	movs	r3, #1
    2a20:	6163      	str	r3, [r4, #20]
    2a22:	bdf7      	pop	{r0, r1, r2, r4, r5, r6, r7, pc}
    2a24:	ab01      	add	r3, sp, #4
    2a26:	466a      	mov	r2, sp
    2a28:	f7ff ffc6 	bl	29b8 <__swhatbuf_r>
    2a2c:	9900      	ldr	r1, [sp, #0]
    2a2e:	0007      	movs	r7, r0
    2a30:	0028      	movs	r0, r5
    2a32:	f000 fb85 	bl	3140 <_malloc_r>
    2a36:	2800      	cmp	r0, #0
    2a38:	d108      	bne.n	2a4c <__smakebuf_r+0x44>
    2a3a:	220c      	movs	r2, #12
    2a3c:	5ea3      	ldrsh	r3, [r4, r2]
    2a3e:	059a      	lsls	r2, r3, #22
    2a40:	d4ef      	bmi.n	2a22 <__smakebuf_r+0x1a>
    2a42:	2203      	movs	r2, #3
    2a44:	4393      	bics	r3, r2
    2a46:	431e      	orrs	r6, r3
    2a48:	81a6      	strh	r6, [r4, #12]
    2a4a:	e7e4      	b.n	2a16 <__smakebuf_r+0xe>
    2a4c:	4b0f      	ldr	r3, [pc, #60]	; (2a8c <__smakebuf_r+0x84>)
    2a4e:	62ab      	str	r3, [r5, #40]	; 0x28
    2a50:	2380      	movs	r3, #128	; 0x80
    2a52:	89a2      	ldrh	r2, [r4, #12]
    2a54:	6020      	str	r0, [r4, #0]
    2a56:	4313      	orrs	r3, r2
    2a58:	81a3      	strh	r3, [r4, #12]
    2a5a:	9b00      	ldr	r3, [sp, #0]
    2a5c:	6120      	str	r0, [r4, #16]
    2a5e:	6163      	str	r3, [r4, #20]
    2a60:	9b01      	ldr	r3, [sp, #4]
    2a62:	2b00      	cmp	r3, #0
    2a64:	d00d      	beq.n	2a82 <__smakebuf_r+0x7a>
    2a66:	230e      	movs	r3, #14
    2a68:	5ee1      	ldrsh	r1, [r4, r3]
    2a6a:	0028      	movs	r0, r5
    2a6c:	f000 fda0 	bl	35b0 <_isatty_r>
    2a70:	2800      	cmp	r0, #0
    2a72:	d006      	beq.n	2a82 <__smakebuf_r+0x7a>
    2a74:	2203      	movs	r2, #3
    2a76:	89a3      	ldrh	r3, [r4, #12]
    2a78:	4393      	bics	r3, r2
    2a7a:	001a      	movs	r2, r3
    2a7c:	2301      	movs	r3, #1
    2a7e:	4313      	orrs	r3, r2
    2a80:	81a3      	strh	r3, [r4, #12]
    2a82:	89a0      	ldrh	r0, [r4, #12]
    2a84:	4338      	orrs	r0, r7
    2a86:	81a0      	strh	r0, [r4, #12]
    2a88:	e7cb      	b.n	2a22 <__smakebuf_r+0x1a>
    2a8a:	46c0      	nop			; (mov r8, r8)
    2a8c:	000027f1 	.word	0x000027f1

00002a90 <malloc>:
    2a90:	b510      	push	{r4, lr}
    2a92:	4b03      	ldr	r3, [pc, #12]	; (2aa0 <malloc+0x10>)
    2a94:	0001      	movs	r1, r0
    2a96:	6818      	ldr	r0, [r3, #0]
    2a98:	f000 fb52 	bl	3140 <_malloc_r>
    2a9c:	bd10      	pop	{r4, pc}
    2a9e:	46c0      	nop			; (mov r8, r8)
    2aa0:	20000000 	.word	0x20000000

00002aa4 <memchr>:
    2aa4:	b2c9      	uxtb	r1, r1
    2aa6:	1882      	adds	r2, r0, r2
    2aa8:	4290      	cmp	r0, r2
    2aaa:	d101      	bne.n	2ab0 <memchr+0xc>
    2aac:	2000      	movs	r0, #0
    2aae:	4770      	bx	lr
    2ab0:	7803      	ldrb	r3, [r0, #0]
    2ab2:	428b      	cmp	r3, r1
    2ab4:	d0fb      	beq.n	2aae <memchr+0xa>
    2ab6:	3001      	adds	r0, #1
    2ab8:	e7f6      	b.n	2aa8 <memchr+0x4>

00002aba <memcpy>:
    2aba:	2300      	movs	r3, #0
    2abc:	b510      	push	{r4, lr}
    2abe:	429a      	cmp	r2, r3
    2ac0:	d100      	bne.n	2ac4 <memcpy+0xa>
    2ac2:	bd10      	pop	{r4, pc}
    2ac4:	5ccc      	ldrb	r4, [r1, r3]
    2ac6:	54c4      	strb	r4, [r0, r3]
    2ac8:	3301      	adds	r3, #1
    2aca:	e7f8      	b.n	2abe <memcpy+0x4>

00002acc <_Balloc>:
    2acc:	b570      	push	{r4, r5, r6, lr}
    2ace:	6a46      	ldr	r6, [r0, #36]	; 0x24
    2ad0:	0004      	movs	r4, r0
    2ad2:	000d      	movs	r5, r1
    2ad4:	2e00      	cmp	r6, #0
    2ad6:	d107      	bne.n	2ae8 <_Balloc+0x1c>
    2ad8:	2010      	movs	r0, #16
    2ada:	f7ff ffd9 	bl	2a90 <malloc>
    2ade:	6260      	str	r0, [r4, #36]	; 0x24
    2ae0:	6046      	str	r6, [r0, #4]
    2ae2:	6086      	str	r6, [r0, #8]
    2ae4:	6006      	str	r6, [r0, #0]
    2ae6:	60c6      	str	r6, [r0, #12]
    2ae8:	6a66      	ldr	r6, [r4, #36]	; 0x24
    2aea:	68f3      	ldr	r3, [r6, #12]
    2aec:	2b00      	cmp	r3, #0
    2aee:	d013      	beq.n	2b18 <_Balloc+0x4c>
    2af0:	6a63      	ldr	r3, [r4, #36]	; 0x24
    2af2:	00aa      	lsls	r2, r5, #2
    2af4:	68db      	ldr	r3, [r3, #12]
    2af6:	189b      	adds	r3, r3, r2
    2af8:	6818      	ldr	r0, [r3, #0]
    2afa:	2800      	cmp	r0, #0
    2afc:	d118      	bne.n	2b30 <_Balloc+0x64>
    2afe:	2101      	movs	r1, #1
    2b00:	000e      	movs	r6, r1
    2b02:	40ae      	lsls	r6, r5
    2b04:	1d72      	adds	r2, r6, #5
    2b06:	0092      	lsls	r2, r2, #2
    2b08:	0020      	movs	r0, r4
    2b0a:	f000 fac1 	bl	3090 <_calloc_r>
    2b0e:	2800      	cmp	r0, #0
    2b10:	d00c      	beq.n	2b2c <_Balloc+0x60>
    2b12:	6045      	str	r5, [r0, #4]
    2b14:	6086      	str	r6, [r0, #8]
    2b16:	e00d      	b.n	2b34 <_Balloc+0x68>
    2b18:	2221      	movs	r2, #33	; 0x21
    2b1a:	2104      	movs	r1, #4
    2b1c:	0020      	movs	r0, r4
    2b1e:	f000 fab7 	bl	3090 <_calloc_r>
    2b22:	6a63      	ldr	r3, [r4, #36]	; 0x24
    2b24:	60f0      	str	r0, [r6, #12]
    2b26:	68db      	ldr	r3, [r3, #12]
    2b28:	2b00      	cmp	r3, #0
    2b2a:	d1e1      	bne.n	2af0 <_Balloc+0x24>
    2b2c:	2000      	movs	r0, #0
    2b2e:	bd70      	pop	{r4, r5, r6, pc}
    2b30:	6802      	ldr	r2, [r0, #0]
    2b32:	601a      	str	r2, [r3, #0]
    2b34:	2300      	movs	r3, #0
    2b36:	6103      	str	r3, [r0, #16]
    2b38:	60c3      	str	r3, [r0, #12]
    2b3a:	e7f8      	b.n	2b2e <_Balloc+0x62>

00002b3c <_Bfree>:
    2b3c:	b570      	push	{r4, r5, r6, lr}
    2b3e:	6a44      	ldr	r4, [r0, #36]	; 0x24
    2b40:	0006      	movs	r6, r0
    2b42:	000d      	movs	r5, r1
    2b44:	2c00      	cmp	r4, #0
    2b46:	d107      	bne.n	2b58 <_Bfree+0x1c>
    2b48:	2010      	movs	r0, #16
    2b4a:	f7ff ffa1 	bl	2a90 <malloc>
    2b4e:	6270      	str	r0, [r6, #36]	; 0x24
    2b50:	6044      	str	r4, [r0, #4]
    2b52:	6084      	str	r4, [r0, #8]
    2b54:	6004      	str	r4, [r0, #0]
    2b56:	60c4      	str	r4, [r0, #12]
    2b58:	2d00      	cmp	r5, #0
    2b5a:	d007      	beq.n	2b6c <_Bfree+0x30>
    2b5c:	6a73      	ldr	r3, [r6, #36]	; 0x24
    2b5e:	686a      	ldr	r2, [r5, #4]
    2b60:	68db      	ldr	r3, [r3, #12]
    2b62:	0092      	lsls	r2, r2, #2
    2b64:	189b      	adds	r3, r3, r2
    2b66:	681a      	ldr	r2, [r3, #0]
    2b68:	602a      	str	r2, [r5, #0]
    2b6a:	601d      	str	r5, [r3, #0]
    2b6c:	bd70      	pop	{r4, r5, r6, pc}

00002b6e <__multadd>:
    2b6e:	b5f7      	push	{r0, r1, r2, r4, r5, r6, r7, lr}
    2b70:	001e      	movs	r6, r3
    2b72:	2314      	movs	r3, #20
    2b74:	469c      	mov	ip, r3
    2b76:	0007      	movs	r7, r0
    2b78:	000c      	movs	r4, r1
    2b7a:	2000      	movs	r0, #0
    2b7c:	690d      	ldr	r5, [r1, #16]
    2b7e:	448c      	add	ip, r1
    2b80:	4663      	mov	r3, ip
    2b82:	8819      	ldrh	r1, [r3, #0]
    2b84:	681b      	ldr	r3, [r3, #0]
    2b86:	4351      	muls	r1, r2
    2b88:	0c1b      	lsrs	r3, r3, #16
    2b8a:	4353      	muls	r3, r2
    2b8c:	1989      	adds	r1, r1, r6
    2b8e:	0c0e      	lsrs	r6, r1, #16
    2b90:	199b      	adds	r3, r3, r6
    2b92:	b289      	uxth	r1, r1
    2b94:	0c1e      	lsrs	r6, r3, #16
    2b96:	041b      	lsls	r3, r3, #16
    2b98:	185b      	adds	r3, r3, r1
    2b9a:	4661      	mov	r1, ip
    2b9c:	3001      	adds	r0, #1
    2b9e:	c108      	stmia	r1!, {r3}
    2ba0:	468c      	mov	ip, r1
    2ba2:	4285      	cmp	r5, r0
    2ba4:	dcec      	bgt.n	2b80 <__multadd+0x12>
    2ba6:	2e00      	cmp	r6, #0
    2ba8:	d01b      	beq.n	2be2 <__multadd+0x74>
    2baa:	68a3      	ldr	r3, [r4, #8]
    2bac:	429d      	cmp	r5, r3
    2bae:	db12      	blt.n	2bd6 <__multadd+0x68>
    2bb0:	6863      	ldr	r3, [r4, #4]
    2bb2:	0038      	movs	r0, r7
    2bb4:	1c59      	adds	r1, r3, #1
    2bb6:	f7ff ff89 	bl	2acc <_Balloc>
    2bba:	0021      	movs	r1, r4
    2bbc:	6923      	ldr	r3, [r4, #16]
    2bbe:	9001      	str	r0, [sp, #4]
    2bc0:	1c9a      	adds	r2, r3, #2
    2bc2:	0092      	lsls	r2, r2, #2
    2bc4:	310c      	adds	r1, #12
    2bc6:	300c      	adds	r0, #12
    2bc8:	f7ff ff77 	bl	2aba <memcpy>
    2bcc:	0021      	movs	r1, r4
    2bce:	0038      	movs	r0, r7
    2bd0:	f7ff ffb4 	bl	2b3c <_Bfree>
    2bd4:	9c01      	ldr	r4, [sp, #4]
    2bd6:	1d2b      	adds	r3, r5, #4
    2bd8:	009b      	lsls	r3, r3, #2
    2bda:	18e3      	adds	r3, r4, r3
    2bdc:	3501      	adds	r5, #1
    2bde:	605e      	str	r6, [r3, #4]
    2be0:	6125      	str	r5, [r4, #16]
    2be2:	0020      	movs	r0, r4
    2be4:	bdfe      	pop	{r1, r2, r3, r4, r5, r6, r7, pc}

00002be6 <__hi0bits>:
    2be6:	0003      	movs	r3, r0
    2be8:	0c02      	lsrs	r2, r0, #16
    2bea:	2000      	movs	r0, #0
    2bec:	4282      	cmp	r2, r0
    2bee:	d101      	bne.n	2bf4 <__hi0bits+0xe>
    2bf0:	041b      	lsls	r3, r3, #16
    2bf2:	3010      	adds	r0, #16
    2bf4:	0e1a      	lsrs	r2, r3, #24
    2bf6:	d101      	bne.n	2bfc <__hi0bits+0x16>
    2bf8:	3008      	adds	r0, #8
    2bfa:	021b      	lsls	r3, r3, #8
    2bfc:	0f1a      	lsrs	r2, r3, #28
    2bfe:	d101      	bne.n	2c04 <__hi0bits+0x1e>
    2c00:	3004      	adds	r0, #4
    2c02:	011b      	lsls	r3, r3, #4
    2c04:	0f9a      	lsrs	r2, r3, #30
    2c06:	d101      	bne.n	2c0c <__hi0bits+0x26>
    2c08:	3002      	adds	r0, #2
    2c0a:	009b      	lsls	r3, r3, #2
    2c0c:	2b00      	cmp	r3, #0
    2c0e:	db03      	blt.n	2c18 <__hi0bits+0x32>
    2c10:	3001      	adds	r0, #1
    2c12:	005b      	lsls	r3, r3, #1
    2c14:	d400      	bmi.n	2c18 <__hi0bits+0x32>
    2c16:	2020      	movs	r0, #32
    2c18:	4770      	bx	lr

00002c1a <__lo0bits>:
    2c1a:	2207      	movs	r2, #7
    2c1c:	6803      	ldr	r3, [r0, #0]
    2c1e:	b510      	push	{r4, lr}
    2c20:	0001      	movs	r1, r0
    2c22:	401a      	ands	r2, r3
    2c24:	d00d      	beq.n	2c42 <__lo0bits+0x28>
    2c26:	2401      	movs	r4, #1
    2c28:	2000      	movs	r0, #0
    2c2a:	4223      	tst	r3, r4
    2c2c:	d105      	bne.n	2c3a <__lo0bits+0x20>
    2c2e:	3002      	adds	r0, #2
    2c30:	4203      	tst	r3, r0
    2c32:	d003      	beq.n	2c3c <__lo0bits+0x22>
    2c34:	40e3      	lsrs	r3, r4
    2c36:	0020      	movs	r0, r4
    2c38:	600b      	str	r3, [r1, #0]
    2c3a:	bd10      	pop	{r4, pc}
    2c3c:	089b      	lsrs	r3, r3, #2
    2c3e:	600b      	str	r3, [r1, #0]
    2c40:	e7fb      	b.n	2c3a <__lo0bits+0x20>
    2c42:	b29c      	uxth	r4, r3
    2c44:	0010      	movs	r0, r2
    2c46:	2c00      	cmp	r4, #0
    2c48:	d101      	bne.n	2c4e <__lo0bits+0x34>
    2c4a:	2010      	movs	r0, #16
    2c4c:	0c1b      	lsrs	r3, r3, #16
    2c4e:	b2da      	uxtb	r2, r3
    2c50:	2a00      	cmp	r2, #0
    2c52:	d101      	bne.n	2c58 <__lo0bits+0x3e>
    2c54:	3008      	adds	r0, #8
    2c56:	0a1b      	lsrs	r3, r3, #8
    2c58:	071a      	lsls	r2, r3, #28
    2c5a:	d101      	bne.n	2c60 <__lo0bits+0x46>
    2c5c:	3004      	adds	r0, #4
    2c5e:	091b      	lsrs	r3, r3, #4
    2c60:	079a      	lsls	r2, r3, #30
    2c62:	d101      	bne.n	2c68 <__lo0bits+0x4e>
    2c64:	3002      	adds	r0, #2
    2c66:	089b      	lsrs	r3, r3, #2
    2c68:	07da      	lsls	r2, r3, #31
    2c6a:	d4e8      	bmi.n	2c3e <__lo0bits+0x24>
    2c6c:	085b      	lsrs	r3, r3, #1
    2c6e:	d001      	beq.n	2c74 <__lo0bits+0x5a>
    2c70:	3001      	adds	r0, #1
    2c72:	e7e4      	b.n	2c3e <__lo0bits+0x24>
    2c74:	2020      	movs	r0, #32
    2c76:	e7e0      	b.n	2c3a <__lo0bits+0x20>

00002c78 <__i2b>:
    2c78:	b510      	push	{r4, lr}
    2c7a:	000c      	movs	r4, r1
    2c7c:	2101      	movs	r1, #1
    2c7e:	f7ff ff25 	bl	2acc <_Balloc>
    2c82:	2301      	movs	r3, #1
    2c84:	6144      	str	r4, [r0, #20]
    2c86:	6103      	str	r3, [r0, #16]
    2c88:	bd10      	pop	{r4, pc}

00002c8a <__multiply>:
    2c8a:	b5f0      	push	{r4, r5, r6, r7, lr}
    2c8c:	690b      	ldr	r3, [r1, #16]
    2c8e:	0015      	movs	r5, r2
    2c90:	6912      	ldr	r2, [r2, #16]
    2c92:	b089      	sub	sp, #36	; 0x24
    2c94:	000c      	movs	r4, r1
    2c96:	4293      	cmp	r3, r2
    2c98:	da01      	bge.n	2c9e <__multiply+0x14>
    2c9a:	002c      	movs	r4, r5
    2c9c:	000d      	movs	r5, r1
    2c9e:	6927      	ldr	r7, [r4, #16]
    2ca0:	692e      	ldr	r6, [r5, #16]
    2ca2:	68a2      	ldr	r2, [r4, #8]
    2ca4:	19bb      	adds	r3, r7, r6
    2ca6:	6861      	ldr	r1, [r4, #4]
    2ca8:	9301      	str	r3, [sp, #4]
    2caa:	4293      	cmp	r3, r2
    2cac:	dd00      	ble.n	2cb0 <__multiply+0x26>
    2cae:	3101      	adds	r1, #1
    2cb0:	f7ff ff0c 	bl	2acc <_Balloc>
    2cb4:	0003      	movs	r3, r0
    2cb6:	3314      	adds	r3, #20
    2cb8:	9300      	str	r3, [sp, #0]
    2cba:	9a00      	ldr	r2, [sp, #0]
    2cbc:	19bb      	adds	r3, r7, r6
    2cbe:	4694      	mov	ip, r2
    2cc0:	009b      	lsls	r3, r3, #2
    2cc2:	449c      	add	ip, r3
    2cc4:	0013      	movs	r3, r2
    2cc6:	2200      	movs	r2, #0
    2cc8:	9004      	str	r0, [sp, #16]
    2cca:	4563      	cmp	r3, ip
    2ccc:	d31c      	bcc.n	2d08 <__multiply+0x7e>
    2cce:	002a      	movs	r2, r5
    2cd0:	3414      	adds	r4, #20
    2cd2:	00bf      	lsls	r7, r7, #2
    2cd4:	19e3      	adds	r3, r4, r7
    2cd6:	3214      	adds	r2, #20
    2cd8:	00b6      	lsls	r6, r6, #2
    2cda:	9305      	str	r3, [sp, #20]
    2cdc:	1993      	adds	r3, r2, r6
    2cde:	9402      	str	r4, [sp, #8]
    2ce0:	9306      	str	r3, [sp, #24]
    2ce2:	9b06      	ldr	r3, [sp, #24]
    2ce4:	429a      	cmp	r2, r3
    2ce6:	d311      	bcc.n	2d0c <__multiply+0x82>
    2ce8:	9b01      	ldr	r3, [sp, #4]
    2cea:	2b00      	cmp	r3, #0
    2cec:	dd06      	ble.n	2cfc <__multiply+0x72>
    2cee:	2304      	movs	r3, #4
    2cf0:	425b      	negs	r3, r3
    2cf2:	449c      	add	ip, r3
    2cf4:	4663      	mov	r3, ip
    2cf6:	681b      	ldr	r3, [r3, #0]
    2cf8:	2b00      	cmp	r3, #0
    2cfa:	d051      	beq.n	2da0 <__multiply+0x116>
    2cfc:	9b04      	ldr	r3, [sp, #16]
    2cfe:	9a01      	ldr	r2, [sp, #4]
    2d00:	0018      	movs	r0, r3
    2d02:	611a      	str	r2, [r3, #16]
    2d04:	b009      	add	sp, #36	; 0x24
    2d06:	bdf0      	pop	{r4, r5, r6, r7, pc}
    2d08:	c304      	stmia	r3!, {r2}
    2d0a:	e7de      	b.n	2cca <__multiply+0x40>
    2d0c:	8814      	ldrh	r4, [r2, #0]
    2d0e:	2c00      	cmp	r4, #0
    2d10:	d01e      	beq.n	2d50 <__multiply+0xc6>
    2d12:	2600      	movs	r6, #0
    2d14:	9d00      	ldr	r5, [sp, #0]
    2d16:	9f02      	ldr	r7, [sp, #8]
    2d18:	cf01      	ldmia	r7!, {r0}
    2d1a:	9507      	str	r5, [sp, #28]
    2d1c:	cd08      	ldmia	r5!, {r3}
    2d1e:	9303      	str	r3, [sp, #12]
    2d20:	b283      	uxth	r3, r0
    2d22:	4363      	muls	r3, r4
    2d24:	0019      	movs	r1, r3
    2d26:	466b      	mov	r3, sp
    2d28:	0c00      	lsrs	r0, r0, #16
    2d2a:	899b      	ldrh	r3, [r3, #12]
    2d2c:	4360      	muls	r0, r4
    2d2e:	18cb      	adds	r3, r1, r3
    2d30:	9903      	ldr	r1, [sp, #12]
    2d32:	199b      	adds	r3, r3, r6
    2d34:	0c09      	lsrs	r1, r1, #16
    2d36:	1841      	adds	r1, r0, r1
    2d38:	0c18      	lsrs	r0, r3, #16
    2d3a:	1809      	adds	r1, r1, r0
    2d3c:	0c0e      	lsrs	r6, r1, #16
    2d3e:	b29b      	uxth	r3, r3
    2d40:	0409      	lsls	r1, r1, #16
    2d42:	430b      	orrs	r3, r1
    2d44:	9907      	ldr	r1, [sp, #28]
    2d46:	600b      	str	r3, [r1, #0]
    2d48:	9b05      	ldr	r3, [sp, #20]
    2d4a:	42bb      	cmp	r3, r7
    2d4c:	d8e4      	bhi.n	2d18 <__multiply+0x8e>
    2d4e:	602e      	str	r6, [r5, #0]
    2d50:	6813      	ldr	r3, [r2, #0]
    2d52:	0c1b      	lsrs	r3, r3, #16
    2d54:	9303      	str	r3, [sp, #12]
    2d56:	d01e      	beq.n	2d96 <__multiply+0x10c>
    2d58:	2600      	movs	r6, #0
    2d5a:	9b00      	ldr	r3, [sp, #0]
    2d5c:	9c02      	ldr	r4, [sp, #8]
    2d5e:	681b      	ldr	r3, [r3, #0]
    2d60:	9800      	ldr	r0, [sp, #0]
    2d62:	0007      	movs	r7, r0
    2d64:	8821      	ldrh	r1, [r4, #0]
    2d66:	9d03      	ldr	r5, [sp, #12]
    2d68:	b29b      	uxth	r3, r3
    2d6a:	4369      	muls	r1, r5
    2d6c:	c820      	ldmia	r0!, {r5}
    2d6e:	0c2d      	lsrs	r5, r5, #16
    2d70:	1949      	adds	r1, r1, r5
    2d72:	198e      	adds	r6, r1, r6
    2d74:	0431      	lsls	r1, r6, #16
    2d76:	430b      	orrs	r3, r1
    2d78:	603b      	str	r3, [r7, #0]
    2d7a:	cc08      	ldmia	r4!, {r3}
    2d7c:	9903      	ldr	r1, [sp, #12]
    2d7e:	0c1b      	lsrs	r3, r3, #16
    2d80:	434b      	muls	r3, r1
    2d82:	6879      	ldr	r1, [r7, #4]
    2d84:	0c36      	lsrs	r6, r6, #16
    2d86:	b289      	uxth	r1, r1
    2d88:	185b      	adds	r3, r3, r1
    2d8a:	9905      	ldr	r1, [sp, #20]
    2d8c:	199b      	adds	r3, r3, r6
    2d8e:	0c1e      	lsrs	r6, r3, #16
    2d90:	42a1      	cmp	r1, r4
    2d92:	d8e6      	bhi.n	2d62 <__multiply+0xd8>
    2d94:	6003      	str	r3, [r0, #0]
    2d96:	9b00      	ldr	r3, [sp, #0]
    2d98:	3204      	adds	r2, #4
    2d9a:	3304      	adds	r3, #4
    2d9c:	9300      	str	r3, [sp, #0]
    2d9e:	e7a0      	b.n	2ce2 <__multiply+0x58>
    2da0:	9b01      	ldr	r3, [sp, #4]
    2da2:	3b01      	subs	r3, #1
    2da4:	9301      	str	r3, [sp, #4]
    2da6:	e79f      	b.n	2ce8 <__multiply+0x5e>

00002da8 <__pow5mult>:
    2da8:	2303      	movs	r3, #3
    2daa:	b5f7      	push	{r0, r1, r2, r4, r5, r6, r7, lr}
    2dac:	4013      	ands	r3, r2
    2dae:	0005      	movs	r5, r0
    2db0:	000e      	movs	r6, r1
    2db2:	0014      	movs	r4, r2
    2db4:	2b00      	cmp	r3, #0
    2db6:	d008      	beq.n	2dca <__pow5mult+0x22>
    2db8:	4922      	ldr	r1, [pc, #136]	; (2e44 <__pow5mult+0x9c>)
    2dba:	3b01      	subs	r3, #1
    2dbc:	009a      	lsls	r2, r3, #2
    2dbe:	5852      	ldr	r2, [r2, r1]
    2dc0:	2300      	movs	r3, #0
    2dc2:	0031      	movs	r1, r6
    2dc4:	f7ff fed3 	bl	2b6e <__multadd>
    2dc8:	0006      	movs	r6, r0
    2dca:	10a3      	asrs	r3, r4, #2
    2dcc:	9301      	str	r3, [sp, #4]
    2dce:	d036      	beq.n	2e3e <__pow5mult+0x96>
    2dd0:	6a6c      	ldr	r4, [r5, #36]	; 0x24
    2dd2:	2c00      	cmp	r4, #0
    2dd4:	d107      	bne.n	2de6 <__pow5mult+0x3e>
    2dd6:	2010      	movs	r0, #16
    2dd8:	f7ff fe5a 	bl	2a90 <malloc>
    2ddc:	6268      	str	r0, [r5, #36]	; 0x24
    2dde:	6044      	str	r4, [r0, #4]
    2de0:	6084      	str	r4, [r0, #8]
    2de2:	6004      	str	r4, [r0, #0]
    2de4:	60c4      	str	r4, [r0, #12]
    2de6:	6a6f      	ldr	r7, [r5, #36]	; 0x24
    2de8:	68bc      	ldr	r4, [r7, #8]
    2dea:	2c00      	cmp	r4, #0
    2dec:	d107      	bne.n	2dfe <__pow5mult+0x56>
    2dee:	4916      	ldr	r1, [pc, #88]	; (2e48 <__pow5mult+0xa0>)
    2df0:	0028      	movs	r0, r5
    2df2:	f7ff ff41 	bl	2c78 <__i2b>
    2df6:	2300      	movs	r3, #0
    2df8:	0004      	movs	r4, r0
    2dfa:	60b8      	str	r0, [r7, #8]
    2dfc:	6003      	str	r3, [r0, #0]
    2dfe:	2201      	movs	r2, #1
    2e00:	9b01      	ldr	r3, [sp, #4]
    2e02:	4213      	tst	r3, r2
    2e04:	d00a      	beq.n	2e1c <__pow5mult+0x74>
    2e06:	0031      	movs	r1, r6
    2e08:	0022      	movs	r2, r4
    2e0a:	0028      	movs	r0, r5
    2e0c:	f7ff ff3d 	bl	2c8a <__multiply>
    2e10:	0007      	movs	r7, r0
    2e12:	0031      	movs	r1, r6
    2e14:	0028      	movs	r0, r5
    2e16:	f7ff fe91 	bl	2b3c <_Bfree>
    2e1a:	003e      	movs	r6, r7
    2e1c:	9b01      	ldr	r3, [sp, #4]
    2e1e:	105b      	asrs	r3, r3, #1
    2e20:	9301      	str	r3, [sp, #4]
    2e22:	d00c      	beq.n	2e3e <__pow5mult+0x96>
    2e24:	6820      	ldr	r0, [r4, #0]
    2e26:	2800      	cmp	r0, #0
    2e28:	d107      	bne.n	2e3a <__pow5mult+0x92>
    2e2a:	0022      	movs	r2, r4
    2e2c:	0021      	movs	r1, r4
    2e2e:	0028      	movs	r0, r5
    2e30:	f7ff ff2b 	bl	2c8a <__multiply>
    2e34:	2300      	movs	r3, #0
    2e36:	6020      	str	r0, [r4, #0]
    2e38:	6003      	str	r3, [r0, #0]
    2e3a:	0004      	movs	r4, r0
    2e3c:	e7df      	b.n	2dfe <__pow5mult+0x56>
    2e3e:	0030      	movs	r0, r6
    2e40:	bdfe      	pop	{r1, r2, r3, r4, r5, r6, r7, pc}
    2e42:	46c0      	nop			; (mov r8, r8)
    2e44:	00005818 	.word	0x00005818
    2e48:	00000271 	.word	0x00000271

00002e4c <__lshift>:
    2e4c:	b5f0      	push	{r4, r5, r6, r7, lr}
    2e4e:	000d      	movs	r5, r1
    2e50:	0017      	movs	r7, r2
    2e52:	692b      	ldr	r3, [r5, #16]
    2e54:	1154      	asrs	r4, r2, #5
    2e56:	b085      	sub	sp, #20
    2e58:	18e3      	adds	r3, r4, r3
    2e5a:	9302      	str	r3, [sp, #8]
    2e5c:	3301      	adds	r3, #1
    2e5e:	9301      	str	r3, [sp, #4]
    2e60:	6849      	ldr	r1, [r1, #4]
    2e62:	68ab      	ldr	r3, [r5, #8]
    2e64:	9003      	str	r0, [sp, #12]
    2e66:	9a01      	ldr	r2, [sp, #4]
    2e68:	4293      	cmp	r3, r2
    2e6a:	db34      	blt.n	2ed6 <__lshift+0x8a>
    2e6c:	9803      	ldr	r0, [sp, #12]
    2e6e:	f7ff fe2d 	bl	2acc <_Balloc>
    2e72:	2300      	movs	r3, #0
    2e74:	0002      	movs	r2, r0
    2e76:	0006      	movs	r6, r0
    2e78:	0019      	movs	r1, r3
    2e7a:	3214      	adds	r2, #20
    2e7c:	42a3      	cmp	r3, r4
    2e7e:	db2d      	blt.n	2edc <__lshift+0x90>
    2e80:	43e3      	mvns	r3, r4
    2e82:	17db      	asrs	r3, r3, #31
    2e84:	401c      	ands	r4, r3
    2e86:	002b      	movs	r3, r5
    2e88:	211f      	movs	r1, #31
    2e8a:	00a4      	lsls	r4, r4, #2
    2e8c:	1914      	adds	r4, r2, r4
    2e8e:	692a      	ldr	r2, [r5, #16]
    2e90:	3314      	adds	r3, #20
    2e92:	0092      	lsls	r2, r2, #2
    2e94:	189a      	adds	r2, r3, r2
    2e96:	400f      	ands	r7, r1
    2e98:	d024      	beq.n	2ee4 <__lshift+0x98>
    2e9a:	3101      	adds	r1, #1
    2e9c:	1bc9      	subs	r1, r1, r7
    2e9e:	468c      	mov	ip, r1
    2ea0:	2100      	movs	r1, #0
    2ea2:	6818      	ldr	r0, [r3, #0]
    2ea4:	40b8      	lsls	r0, r7
    2ea6:	4301      	orrs	r1, r0
    2ea8:	4660      	mov	r0, ip
    2eaa:	6021      	str	r1, [r4, #0]
    2eac:	cb02      	ldmia	r3!, {r1}
    2eae:	3404      	adds	r4, #4
    2eb0:	40c1      	lsrs	r1, r0
    2eb2:	429a      	cmp	r2, r3
    2eb4:	d8f5      	bhi.n	2ea2 <__lshift+0x56>
    2eb6:	6021      	str	r1, [r4, #0]
    2eb8:	2900      	cmp	r1, #0
    2eba:	d002      	beq.n	2ec2 <__lshift+0x76>
    2ebc:	9b02      	ldr	r3, [sp, #8]
    2ebe:	3302      	adds	r3, #2
    2ec0:	9301      	str	r3, [sp, #4]
    2ec2:	9b01      	ldr	r3, [sp, #4]
    2ec4:	9803      	ldr	r0, [sp, #12]
    2ec6:	3b01      	subs	r3, #1
    2ec8:	6133      	str	r3, [r6, #16]
    2eca:	0029      	movs	r1, r5
    2ecc:	f7ff fe36 	bl	2b3c <_Bfree>
    2ed0:	0030      	movs	r0, r6
    2ed2:	b005      	add	sp, #20
    2ed4:	bdf0      	pop	{r4, r5, r6, r7, pc}
    2ed6:	3101      	adds	r1, #1
    2ed8:	005b      	lsls	r3, r3, #1
    2eda:	e7c4      	b.n	2e66 <__lshift+0x1a>
    2edc:	0098      	lsls	r0, r3, #2
    2ede:	5011      	str	r1, [r2, r0]
    2ee0:	3301      	adds	r3, #1
    2ee2:	e7cb      	b.n	2e7c <__lshift+0x30>
    2ee4:	cb02      	ldmia	r3!, {r1}
    2ee6:	c402      	stmia	r4!, {r1}
    2ee8:	429a      	cmp	r2, r3
    2eea:	d8fb      	bhi.n	2ee4 <__lshift+0x98>
    2eec:	e7e9      	b.n	2ec2 <__lshift+0x76>

00002eee <__mcmp>:
    2eee:	690a      	ldr	r2, [r1, #16]
    2ef0:	6903      	ldr	r3, [r0, #16]
    2ef2:	b530      	push	{r4, r5, lr}
    2ef4:	1a9b      	subs	r3, r3, r2
    2ef6:	d10e      	bne.n	2f16 <__mcmp+0x28>
    2ef8:	0092      	lsls	r2, r2, #2
    2efa:	3014      	adds	r0, #20
    2efc:	3114      	adds	r1, #20
    2efe:	1884      	adds	r4, r0, r2
    2f00:	1889      	adds	r1, r1, r2
    2f02:	3c04      	subs	r4, #4
    2f04:	3904      	subs	r1, #4
    2f06:	6822      	ldr	r2, [r4, #0]
    2f08:	680d      	ldr	r5, [r1, #0]
    2f0a:	42aa      	cmp	r2, r5
    2f0c:	d005      	beq.n	2f1a <__mcmp+0x2c>
    2f0e:	42aa      	cmp	r2, r5
    2f10:	4192      	sbcs	r2, r2
    2f12:	2301      	movs	r3, #1
    2f14:	4313      	orrs	r3, r2
    2f16:	0018      	movs	r0, r3
    2f18:	bd30      	pop	{r4, r5, pc}
    2f1a:	42a0      	cmp	r0, r4
    2f1c:	d3f1      	bcc.n	2f02 <__mcmp+0x14>
    2f1e:	e7fa      	b.n	2f16 <__mcmp+0x28>

00002f20 <__mdiff>:
    2f20:	b5f0      	push	{r4, r5, r6, r7, lr}
    2f22:	000d      	movs	r5, r1
    2f24:	b085      	sub	sp, #20
    2f26:	0007      	movs	r7, r0
    2f28:	0011      	movs	r1, r2
    2f2a:	0028      	movs	r0, r5
    2f2c:	0014      	movs	r4, r2
    2f2e:	f7ff ffde 	bl	2eee <__mcmp>
    2f32:	1e06      	subs	r6, r0, #0
    2f34:	d108      	bne.n	2f48 <__mdiff+0x28>
    2f36:	0001      	movs	r1, r0
    2f38:	0038      	movs	r0, r7
    2f3a:	f7ff fdc7 	bl	2acc <_Balloc>
    2f3e:	2301      	movs	r3, #1
    2f40:	6146      	str	r6, [r0, #20]
    2f42:	6103      	str	r3, [r0, #16]
    2f44:	b005      	add	sp, #20
    2f46:	bdf0      	pop	{r4, r5, r6, r7, pc}
    2f48:	2301      	movs	r3, #1
    2f4a:	9301      	str	r3, [sp, #4]
    2f4c:	2800      	cmp	r0, #0
    2f4e:	db04      	blt.n	2f5a <__mdiff+0x3a>
    2f50:	0023      	movs	r3, r4
    2f52:	002c      	movs	r4, r5
    2f54:	001d      	movs	r5, r3
    2f56:	2300      	movs	r3, #0
    2f58:	9301      	str	r3, [sp, #4]
    2f5a:	6861      	ldr	r1, [r4, #4]
    2f5c:	0038      	movs	r0, r7
    2f5e:	f7ff fdb5 	bl	2acc <_Balloc>
    2f62:	002f      	movs	r7, r5
    2f64:	2200      	movs	r2, #0
    2f66:	9b01      	ldr	r3, [sp, #4]
    2f68:	6926      	ldr	r6, [r4, #16]
    2f6a:	60c3      	str	r3, [r0, #12]
    2f6c:	3414      	adds	r4, #20
    2f6e:	00b3      	lsls	r3, r6, #2
    2f70:	18e3      	adds	r3, r4, r3
    2f72:	9302      	str	r3, [sp, #8]
    2f74:	692b      	ldr	r3, [r5, #16]
    2f76:	3714      	adds	r7, #20
    2f78:	009b      	lsls	r3, r3, #2
    2f7a:	18fb      	adds	r3, r7, r3
    2f7c:	9303      	str	r3, [sp, #12]
    2f7e:	0003      	movs	r3, r0
    2f80:	4694      	mov	ip, r2
    2f82:	3314      	adds	r3, #20
    2f84:	cc20      	ldmia	r4!, {r5}
    2f86:	cf04      	ldmia	r7!, {r2}
    2f88:	9201      	str	r2, [sp, #4]
    2f8a:	b2aa      	uxth	r2, r5
    2f8c:	4494      	add	ip, r2
    2f8e:	466a      	mov	r2, sp
    2f90:	4661      	mov	r1, ip
    2f92:	8892      	ldrh	r2, [r2, #4]
    2f94:	0c2d      	lsrs	r5, r5, #16
    2f96:	1a8a      	subs	r2, r1, r2
    2f98:	9901      	ldr	r1, [sp, #4]
    2f9a:	0c09      	lsrs	r1, r1, #16
    2f9c:	1a69      	subs	r1, r5, r1
    2f9e:	1415      	asrs	r5, r2, #16
    2fa0:	1949      	adds	r1, r1, r5
    2fa2:	140d      	asrs	r5, r1, #16
    2fa4:	b292      	uxth	r2, r2
    2fa6:	0409      	lsls	r1, r1, #16
    2fa8:	430a      	orrs	r2, r1
    2faa:	601a      	str	r2, [r3, #0]
    2fac:	9a03      	ldr	r2, [sp, #12]
    2fae:	46ac      	mov	ip, r5
    2fb0:	3304      	adds	r3, #4
    2fb2:	42ba      	cmp	r2, r7
    2fb4:	d8e6      	bhi.n	2f84 <__mdiff+0x64>
    2fb6:	9902      	ldr	r1, [sp, #8]
    2fb8:	001a      	movs	r2, r3
    2fba:	428c      	cmp	r4, r1
    2fbc:	d305      	bcc.n	2fca <__mdiff+0xaa>
    2fbe:	3a04      	subs	r2, #4
    2fc0:	6813      	ldr	r3, [r2, #0]
    2fc2:	2b00      	cmp	r3, #0
    2fc4:	d00e      	beq.n	2fe4 <__mdiff+0xc4>
    2fc6:	6106      	str	r6, [r0, #16]
    2fc8:	e7bc      	b.n	2f44 <__mdiff+0x24>
    2fca:	cc04      	ldmia	r4!, {r2}
    2fcc:	b291      	uxth	r1, r2
    2fce:	4461      	add	r1, ip
    2fd0:	140d      	asrs	r5, r1, #16
    2fd2:	0c12      	lsrs	r2, r2, #16
    2fd4:	1952      	adds	r2, r2, r5
    2fd6:	1415      	asrs	r5, r2, #16
    2fd8:	b289      	uxth	r1, r1
    2fda:	0412      	lsls	r2, r2, #16
    2fdc:	430a      	orrs	r2, r1
    2fde:	46ac      	mov	ip, r5
    2fe0:	c304      	stmia	r3!, {r2}
    2fe2:	e7e8      	b.n	2fb6 <__mdiff+0x96>
    2fe4:	3e01      	subs	r6, #1
    2fe6:	e7ea      	b.n	2fbe <__mdiff+0x9e>

00002fe8 <__d2b>:
    2fe8:	b5f7      	push	{r0, r1, r2, r4, r5, r6, r7, lr}
    2fea:	001d      	movs	r5, r3
    2fec:	2101      	movs	r1, #1
    2fee:	9f08      	ldr	r7, [sp, #32]
    2ff0:	0014      	movs	r4, r2
    2ff2:	f7ff fd6b 	bl	2acc <_Balloc>
    2ff6:	032b      	lsls	r3, r5, #12
    2ff8:	006d      	lsls	r5, r5, #1
    2ffa:	0006      	movs	r6, r0
    2ffc:	0b1b      	lsrs	r3, r3, #12
    2ffe:	0d6d      	lsrs	r5, r5, #21
    3000:	d124      	bne.n	304c <__d2b+0x64>
    3002:	9301      	str	r3, [sp, #4]
    3004:	2c00      	cmp	r4, #0
    3006:	d027      	beq.n	3058 <__d2b+0x70>
    3008:	4668      	mov	r0, sp
    300a:	9400      	str	r4, [sp, #0]
    300c:	f7ff fe05 	bl	2c1a <__lo0bits>
    3010:	9c00      	ldr	r4, [sp, #0]
    3012:	2800      	cmp	r0, #0
    3014:	d01e      	beq.n	3054 <__d2b+0x6c>
    3016:	9b01      	ldr	r3, [sp, #4]
    3018:	2120      	movs	r1, #32
    301a:	001a      	movs	r2, r3
    301c:	1a09      	subs	r1, r1, r0
    301e:	408a      	lsls	r2, r1
    3020:	40c3      	lsrs	r3, r0
    3022:	4322      	orrs	r2, r4
    3024:	6172      	str	r2, [r6, #20]
    3026:	9301      	str	r3, [sp, #4]
    3028:	9c01      	ldr	r4, [sp, #4]
    302a:	61b4      	str	r4, [r6, #24]
    302c:	1e63      	subs	r3, r4, #1
    302e:	419c      	sbcs	r4, r3
    3030:	3401      	adds	r4, #1
    3032:	6134      	str	r4, [r6, #16]
    3034:	2d00      	cmp	r5, #0
    3036:	d018      	beq.n	306a <__d2b+0x82>
    3038:	4b12      	ldr	r3, [pc, #72]	; (3084 <__d2b+0x9c>)
    303a:	18ed      	adds	r5, r5, r3
    303c:	2335      	movs	r3, #53	; 0x35
    303e:	182d      	adds	r5, r5, r0
    3040:	603d      	str	r5, [r7, #0]
    3042:	1a18      	subs	r0, r3, r0
    3044:	9b09      	ldr	r3, [sp, #36]	; 0x24
    3046:	6018      	str	r0, [r3, #0]
    3048:	0030      	movs	r0, r6
    304a:	bdfe      	pop	{r1, r2, r3, r4, r5, r6, r7, pc}
    304c:	2280      	movs	r2, #128	; 0x80
    304e:	0352      	lsls	r2, r2, #13
    3050:	4313      	orrs	r3, r2
    3052:	e7d6      	b.n	3002 <__d2b+0x1a>
    3054:	6174      	str	r4, [r6, #20]
    3056:	e7e7      	b.n	3028 <__d2b+0x40>
    3058:	a801      	add	r0, sp, #4
    305a:	f7ff fdde 	bl	2c1a <__lo0bits>
    305e:	2401      	movs	r4, #1
    3060:	9b01      	ldr	r3, [sp, #4]
    3062:	6134      	str	r4, [r6, #16]
    3064:	6173      	str	r3, [r6, #20]
    3066:	3020      	adds	r0, #32
    3068:	e7e4      	b.n	3034 <__d2b+0x4c>
    306a:	4b07      	ldr	r3, [pc, #28]	; (3088 <__d2b+0xa0>)
    306c:	18c0      	adds	r0, r0, r3
    306e:	4b07      	ldr	r3, [pc, #28]	; (308c <__d2b+0xa4>)
    3070:	6038      	str	r0, [r7, #0]
    3072:	18e3      	adds	r3, r4, r3
    3074:	009b      	lsls	r3, r3, #2
    3076:	18f3      	adds	r3, r6, r3
    3078:	6958      	ldr	r0, [r3, #20]
    307a:	f7ff fdb4 	bl	2be6 <__hi0bits>
    307e:	0164      	lsls	r4, r4, #5
    3080:	1a20      	subs	r0, r4, r0
    3082:	e7df      	b.n	3044 <__d2b+0x5c>
    3084:	fffffbcd 	.word	0xfffffbcd
    3088:	fffffbce 	.word	0xfffffbce
    308c:	3fffffff 	.word	0x3fffffff

00003090 <_calloc_r>:
    3090:	434a      	muls	r2, r1
    3092:	b570      	push	{r4, r5, r6, lr}
    3094:	0011      	movs	r1, r2
    3096:	0014      	movs	r4, r2
    3098:	f000 f852 	bl	3140 <_malloc_r>
    309c:	1e05      	subs	r5, r0, #0
    309e:	d003      	beq.n	30a8 <_calloc_r+0x18>
    30a0:	0022      	movs	r2, r4
    30a2:	2100      	movs	r1, #0
    30a4:	f7fd fe66 	bl	d74 <memset>
    30a8:	0028      	movs	r0, r5
    30aa:	bd70      	pop	{r4, r5, r6, pc}

000030ac <_free_r>:
    30ac:	b570      	push	{r4, r5, r6, lr}
    30ae:	0005      	movs	r5, r0
    30b0:	2900      	cmp	r1, #0
    30b2:	d010      	beq.n	30d6 <_free_r+0x2a>
    30b4:	1f0c      	subs	r4, r1, #4
    30b6:	6823      	ldr	r3, [r4, #0]
    30b8:	2b00      	cmp	r3, #0
    30ba:	da00      	bge.n	30be <_free_r+0x12>
    30bc:	18e4      	adds	r4, r4, r3
    30be:	0028      	movs	r0, r5
    30c0:	f000 faae 	bl	3620 <__malloc_lock>
    30c4:	4a1d      	ldr	r2, [pc, #116]	; (313c <_free_r+0x90>)
    30c6:	6813      	ldr	r3, [r2, #0]
    30c8:	2b00      	cmp	r3, #0
    30ca:	d105      	bne.n	30d8 <_free_r+0x2c>
    30cc:	6063      	str	r3, [r4, #4]
    30ce:	6014      	str	r4, [r2, #0]
    30d0:	0028      	movs	r0, r5
    30d2:	f000 faa6 	bl	3622 <__malloc_unlock>
    30d6:	bd70      	pop	{r4, r5, r6, pc}
    30d8:	42a3      	cmp	r3, r4
    30da:	d909      	bls.n	30f0 <_free_r+0x44>
    30dc:	6821      	ldr	r1, [r4, #0]
    30de:	1860      	adds	r0, r4, r1
    30e0:	4283      	cmp	r3, r0
    30e2:	d1f3      	bne.n	30cc <_free_r+0x20>
    30e4:	6818      	ldr	r0, [r3, #0]
    30e6:	685b      	ldr	r3, [r3, #4]
    30e8:	1841      	adds	r1, r0, r1
    30ea:	6021      	str	r1, [r4, #0]
    30ec:	e7ee      	b.n	30cc <_free_r+0x20>
    30ee:	0013      	movs	r3, r2
    30f0:	685a      	ldr	r2, [r3, #4]
    30f2:	2a00      	cmp	r2, #0
    30f4:	d001      	beq.n	30fa <_free_r+0x4e>
    30f6:	42a2      	cmp	r2, r4
    30f8:	d9f9      	bls.n	30ee <_free_r+0x42>
    30fa:	6819      	ldr	r1, [r3, #0]
    30fc:	1858      	adds	r0, r3, r1
    30fe:	42a0      	cmp	r0, r4
    3100:	d10b      	bne.n	311a <_free_r+0x6e>
    3102:	6820      	ldr	r0, [r4, #0]
    3104:	1809      	adds	r1, r1, r0
    3106:	1858      	adds	r0, r3, r1
    3108:	6019      	str	r1, [r3, #0]
    310a:	4282      	cmp	r2, r0
    310c:	d1e0      	bne.n	30d0 <_free_r+0x24>
    310e:	6810      	ldr	r0, [r2, #0]
    3110:	6852      	ldr	r2, [r2, #4]
    3112:	1841      	adds	r1, r0, r1
    3114:	6019      	str	r1, [r3, #0]
    3116:	605a      	str	r2, [r3, #4]
    3118:	e7da      	b.n	30d0 <_free_r+0x24>
    311a:	42a0      	cmp	r0, r4
    311c:	d902      	bls.n	3124 <_free_r+0x78>
    311e:	230c      	movs	r3, #12
    3120:	602b      	str	r3, [r5, #0]
    3122:	e7d5      	b.n	30d0 <_free_r+0x24>
    3124:	6821      	ldr	r1, [r4, #0]
    3126:	1860      	adds	r0, r4, r1
    3128:	4282      	cmp	r2, r0
    312a:	d103      	bne.n	3134 <_free_r+0x88>
    312c:	6810      	ldr	r0, [r2, #0]
    312e:	6852      	ldr	r2, [r2, #4]
    3130:	1841      	adds	r1, r0, r1
    3132:	6021      	str	r1, [r4, #0]
    3134:	6062      	str	r2, [r4, #4]
    3136:	605c      	str	r4, [r3, #4]
    3138:	e7ca      	b.n	30d0 <_free_r+0x24>
    313a:	46c0      	nop			; (mov r8, r8)
    313c:	200001f8 	.word	0x200001f8

00003140 <_malloc_r>:
    3140:	2303      	movs	r3, #3
    3142:	b570      	push	{r4, r5, r6, lr}
    3144:	1ccd      	adds	r5, r1, #3
    3146:	439d      	bics	r5, r3
    3148:	3508      	adds	r5, #8
    314a:	0006      	movs	r6, r0
    314c:	2d0c      	cmp	r5, #12
    314e:	d21e      	bcs.n	318e <_malloc_r+0x4e>
    3150:	250c      	movs	r5, #12
    3152:	42a9      	cmp	r1, r5
    3154:	d81d      	bhi.n	3192 <_malloc_r+0x52>
    3156:	0030      	movs	r0, r6
    3158:	f000 fa62 	bl	3620 <__malloc_lock>
    315c:	4a25      	ldr	r2, [pc, #148]	; (31f4 <_malloc_r+0xb4>)
    315e:	6814      	ldr	r4, [r2, #0]
    3160:	0021      	movs	r1, r4
    3162:	2900      	cmp	r1, #0
    3164:	d119      	bne.n	319a <_malloc_r+0x5a>
    3166:	4c24      	ldr	r4, [pc, #144]	; (31f8 <_malloc_r+0xb8>)
    3168:	6823      	ldr	r3, [r4, #0]
    316a:	2b00      	cmp	r3, #0
    316c:	d103      	bne.n	3176 <_malloc_r+0x36>
    316e:	0030      	movs	r0, r6
    3170:	f000 f988 	bl	3484 <_sbrk_r>
    3174:	6020      	str	r0, [r4, #0]
    3176:	0029      	movs	r1, r5
    3178:	0030      	movs	r0, r6
    317a:	f000 f983 	bl	3484 <_sbrk_r>
    317e:	1c43      	adds	r3, r0, #1
    3180:	d12c      	bne.n	31dc <_malloc_r+0x9c>
    3182:	230c      	movs	r3, #12
    3184:	0030      	movs	r0, r6
    3186:	6033      	str	r3, [r6, #0]
    3188:	f000 fa4b 	bl	3622 <__malloc_unlock>
    318c:	e003      	b.n	3196 <_malloc_r+0x56>
    318e:	2d00      	cmp	r5, #0
    3190:	dadf      	bge.n	3152 <_malloc_r+0x12>
    3192:	230c      	movs	r3, #12
    3194:	6033      	str	r3, [r6, #0]
    3196:	2000      	movs	r0, #0
    3198:	bd70      	pop	{r4, r5, r6, pc}
    319a:	680b      	ldr	r3, [r1, #0]
    319c:	1b5b      	subs	r3, r3, r5
    319e:	d41a      	bmi.n	31d6 <_malloc_r+0x96>
    31a0:	2b0b      	cmp	r3, #11
    31a2:	d903      	bls.n	31ac <_malloc_r+0x6c>
    31a4:	600b      	str	r3, [r1, #0]
    31a6:	18cc      	adds	r4, r1, r3
    31a8:	6025      	str	r5, [r4, #0]
    31aa:	e003      	b.n	31b4 <_malloc_r+0x74>
    31ac:	428c      	cmp	r4, r1
    31ae:	d10e      	bne.n	31ce <_malloc_r+0x8e>
    31b0:	6863      	ldr	r3, [r4, #4]
    31b2:	6013      	str	r3, [r2, #0]
    31b4:	0030      	movs	r0, r6
    31b6:	f000 fa34 	bl	3622 <__malloc_unlock>
    31ba:	0020      	movs	r0, r4
    31bc:	2207      	movs	r2, #7
    31be:	300b      	adds	r0, #11
    31c0:	1d23      	adds	r3, r4, #4
    31c2:	4390      	bics	r0, r2
    31c4:	1ac3      	subs	r3, r0, r3
    31c6:	d0e7      	beq.n	3198 <_malloc_r+0x58>
    31c8:	425a      	negs	r2, r3
    31ca:	50e2      	str	r2, [r4, r3]
    31cc:	e7e4      	b.n	3198 <_malloc_r+0x58>
    31ce:	684b      	ldr	r3, [r1, #4]
    31d0:	6063      	str	r3, [r4, #4]
    31d2:	000c      	movs	r4, r1
    31d4:	e7ee      	b.n	31b4 <_malloc_r+0x74>
    31d6:	000c      	movs	r4, r1
    31d8:	6849      	ldr	r1, [r1, #4]
    31da:	e7c2      	b.n	3162 <_malloc_r+0x22>
    31dc:	2303      	movs	r3, #3
    31de:	1cc4      	adds	r4, r0, #3
    31e0:	439c      	bics	r4, r3
    31e2:	42a0      	cmp	r0, r4
    31e4:	d0e0      	beq.n	31a8 <_malloc_r+0x68>
    31e6:	1a21      	subs	r1, r4, r0
    31e8:	0030      	movs	r0, r6
    31ea:	f000 f94b 	bl	3484 <_sbrk_r>
    31ee:	1c43      	adds	r3, r0, #1
    31f0:	d1da      	bne.n	31a8 <_malloc_r+0x68>
    31f2:	e7c6      	b.n	3182 <_malloc_r+0x42>
    31f4:	200001f8 	.word	0x200001f8
    31f8:	200001fc 	.word	0x200001fc

000031fc <__sfputc_r>:
    31fc:	6893      	ldr	r3, [r2, #8]
    31fe:	b510      	push	{r4, lr}
    3200:	3b01      	subs	r3, #1
    3202:	6093      	str	r3, [r2, #8]
    3204:	2b00      	cmp	r3, #0
    3206:	da05      	bge.n	3214 <__sfputc_r+0x18>
    3208:	6994      	ldr	r4, [r2, #24]
    320a:	42a3      	cmp	r3, r4
    320c:	db08      	blt.n	3220 <__sfputc_r+0x24>
    320e:	b2cb      	uxtb	r3, r1
    3210:	2b0a      	cmp	r3, #10
    3212:	d005      	beq.n	3220 <__sfputc_r+0x24>
    3214:	6813      	ldr	r3, [r2, #0]
    3216:	1c58      	adds	r0, r3, #1
    3218:	6010      	str	r0, [r2, #0]
    321a:	7019      	strb	r1, [r3, #0]
    321c:	b2c8      	uxtb	r0, r1
    321e:	bd10      	pop	{r4, pc}
    3220:	f7fe faf8 	bl	1814 <__swbuf_r>
    3224:	e7fb      	b.n	321e <__sfputc_r+0x22>

00003226 <__sfputs_r>:
    3226:	b5f8      	push	{r3, r4, r5, r6, r7, lr}
    3228:	0006      	movs	r6, r0
    322a:	000f      	movs	r7, r1
    322c:	0014      	movs	r4, r2
    322e:	18d5      	adds	r5, r2, r3
    3230:	42ac      	cmp	r4, r5
    3232:	d101      	bne.n	3238 <__sfputs_r+0x12>
    3234:	2000      	movs	r0, #0
    3236:	e007      	b.n	3248 <__sfputs_r+0x22>
    3238:	7821      	ldrb	r1, [r4, #0]
    323a:	003a      	movs	r2, r7
    323c:	0030      	movs	r0, r6
    323e:	f7ff ffdd 	bl	31fc <__sfputc_r>
    3242:	3401      	adds	r4, #1
    3244:	1c43      	adds	r3, r0, #1
    3246:	d1f3      	bne.n	3230 <__sfputs_r+0xa>
    3248:	bdf8      	pop	{r3, r4, r5, r6, r7, pc}
	...

0000324c <_vfiprintf_r>:
    324c:	b5f0      	push	{r4, r5, r6, r7, lr}
    324e:	b09f      	sub	sp, #124	; 0x7c
    3250:	0006      	movs	r6, r0
    3252:	000f      	movs	r7, r1
    3254:	0014      	movs	r4, r2
    3256:	9305      	str	r3, [sp, #20]
    3258:	2800      	cmp	r0, #0
    325a:	d004      	beq.n	3266 <_vfiprintf_r+0x1a>
    325c:	6983      	ldr	r3, [r0, #24]
    325e:	2b00      	cmp	r3, #0
    3260:	d101      	bne.n	3266 <_vfiprintf_r+0x1a>
    3262:	f7ff fb07 	bl	2874 <__sinit>
    3266:	4b7f      	ldr	r3, [pc, #508]	; (3464 <_vfiprintf_r+0x218>)
    3268:	429f      	cmp	r7, r3
    326a:	d15c      	bne.n	3326 <_vfiprintf_r+0xda>
    326c:	6877      	ldr	r7, [r6, #4]
    326e:	89bb      	ldrh	r3, [r7, #12]
    3270:	071b      	lsls	r3, r3, #28
    3272:	d562      	bpl.n	333a <_vfiprintf_r+0xee>
    3274:	693b      	ldr	r3, [r7, #16]
    3276:	2b00      	cmp	r3, #0
    3278:	d05f      	beq.n	333a <_vfiprintf_r+0xee>
    327a:	2300      	movs	r3, #0
    327c:	ad06      	add	r5, sp, #24
    327e:	616b      	str	r3, [r5, #20]
    3280:	3320      	adds	r3, #32
    3282:	766b      	strb	r3, [r5, #25]
    3284:	3310      	adds	r3, #16
    3286:	76ab      	strb	r3, [r5, #26]
    3288:	9402      	str	r4, [sp, #8]
    328a:	9c02      	ldr	r4, [sp, #8]
    328c:	7823      	ldrb	r3, [r4, #0]
    328e:	2b00      	cmp	r3, #0
    3290:	d15d      	bne.n	334e <_vfiprintf_r+0x102>
    3292:	9b02      	ldr	r3, [sp, #8]
    3294:	1ae3      	subs	r3, r4, r3
    3296:	9304      	str	r3, [sp, #16]
    3298:	d00d      	beq.n	32b6 <_vfiprintf_r+0x6a>
    329a:	9b04      	ldr	r3, [sp, #16]
    329c:	9a02      	ldr	r2, [sp, #8]
    329e:	0039      	movs	r1, r7
    32a0:	0030      	movs	r0, r6
    32a2:	f7ff ffc0 	bl	3226 <__sfputs_r>
    32a6:	1c43      	adds	r3, r0, #1
    32a8:	d100      	bne.n	32ac <_vfiprintf_r+0x60>
    32aa:	e0cc      	b.n	3446 <_vfiprintf_r+0x1fa>
    32ac:	696a      	ldr	r2, [r5, #20]
    32ae:	9b04      	ldr	r3, [sp, #16]
    32b0:	4694      	mov	ip, r2
    32b2:	4463      	add	r3, ip
    32b4:	616b      	str	r3, [r5, #20]
    32b6:	7823      	ldrb	r3, [r4, #0]
    32b8:	2b00      	cmp	r3, #0
    32ba:	d100      	bne.n	32be <_vfiprintf_r+0x72>
    32bc:	e0c3      	b.n	3446 <_vfiprintf_r+0x1fa>
    32be:	2201      	movs	r2, #1
    32c0:	2300      	movs	r3, #0
    32c2:	4252      	negs	r2, r2
    32c4:	606a      	str	r2, [r5, #4]
    32c6:	a902      	add	r1, sp, #8
    32c8:	3254      	adds	r2, #84	; 0x54
    32ca:	1852      	adds	r2, r2, r1
    32cc:	3401      	adds	r4, #1
    32ce:	602b      	str	r3, [r5, #0]
    32d0:	60eb      	str	r3, [r5, #12]
    32d2:	60ab      	str	r3, [r5, #8]
    32d4:	7013      	strb	r3, [r2, #0]
    32d6:	65ab      	str	r3, [r5, #88]	; 0x58
    32d8:	7821      	ldrb	r1, [r4, #0]
    32da:	2205      	movs	r2, #5
    32dc:	4862      	ldr	r0, [pc, #392]	; (3468 <_vfiprintf_r+0x21c>)
    32de:	f7ff fbe1 	bl	2aa4 <memchr>
    32e2:	1c63      	adds	r3, r4, #1
    32e4:	469c      	mov	ip, r3
    32e6:	2800      	cmp	r0, #0
    32e8:	d135      	bne.n	3356 <_vfiprintf_r+0x10a>
    32ea:	6829      	ldr	r1, [r5, #0]
    32ec:	06cb      	lsls	r3, r1, #27
    32ee:	d504      	bpl.n	32fa <_vfiprintf_r+0xae>
    32f0:	2353      	movs	r3, #83	; 0x53
    32f2:	aa02      	add	r2, sp, #8
    32f4:	3020      	adds	r0, #32
    32f6:	189b      	adds	r3, r3, r2
    32f8:	7018      	strb	r0, [r3, #0]
    32fa:	070b      	lsls	r3, r1, #28
    32fc:	d504      	bpl.n	3308 <_vfiprintf_r+0xbc>
    32fe:	2353      	movs	r3, #83	; 0x53
    3300:	202b      	movs	r0, #43	; 0x2b
    3302:	aa02      	add	r2, sp, #8
    3304:	189b      	adds	r3, r3, r2
    3306:	7018      	strb	r0, [r3, #0]
    3308:	7823      	ldrb	r3, [r4, #0]
    330a:	2b2a      	cmp	r3, #42	; 0x2a
    330c:	d02c      	beq.n	3368 <_vfiprintf_r+0x11c>
    330e:	2000      	movs	r0, #0
    3310:	210a      	movs	r1, #10
    3312:	9b09      	ldr	r3, [sp, #36]	; 0x24
    3314:	7822      	ldrb	r2, [r4, #0]
    3316:	3a30      	subs	r2, #48	; 0x30
    3318:	2a09      	cmp	r2, #9
    331a:	d800      	bhi.n	331e <_vfiprintf_r+0xd2>
    331c:	e06b      	b.n	33f6 <_vfiprintf_r+0x1aa>
    331e:	2800      	cmp	r0, #0
    3320:	d02a      	beq.n	3378 <_vfiprintf_r+0x12c>
    3322:	9309      	str	r3, [sp, #36]	; 0x24
    3324:	e028      	b.n	3378 <_vfiprintf_r+0x12c>
    3326:	4b51      	ldr	r3, [pc, #324]	; (346c <_vfiprintf_r+0x220>)
    3328:	429f      	cmp	r7, r3
    332a:	d101      	bne.n	3330 <_vfiprintf_r+0xe4>
    332c:	68b7      	ldr	r7, [r6, #8]
    332e:	e79e      	b.n	326e <_vfiprintf_r+0x22>
    3330:	4b4f      	ldr	r3, [pc, #316]	; (3470 <_vfiprintf_r+0x224>)
    3332:	429f      	cmp	r7, r3
    3334:	d19b      	bne.n	326e <_vfiprintf_r+0x22>
    3336:	68f7      	ldr	r7, [r6, #12]
    3338:	e799      	b.n	326e <_vfiprintf_r+0x22>
    333a:	0039      	movs	r1, r7
    333c:	0030      	movs	r0, r6
    333e:	f7fe fabf 	bl	18c0 <__swsetup_r>
    3342:	2800      	cmp	r0, #0
    3344:	d099      	beq.n	327a <_vfiprintf_r+0x2e>
    3346:	2001      	movs	r0, #1
    3348:	4240      	negs	r0, r0
    334a:	b01f      	add	sp, #124	; 0x7c
    334c:	bdf0      	pop	{r4, r5, r6, r7, pc}
    334e:	2b25      	cmp	r3, #37	; 0x25
    3350:	d09f      	beq.n	3292 <_vfiprintf_r+0x46>
    3352:	3401      	adds	r4, #1
    3354:	e79a      	b.n	328c <_vfiprintf_r+0x40>
    3356:	4b44      	ldr	r3, [pc, #272]	; (3468 <_vfiprintf_r+0x21c>)
    3358:	6829      	ldr	r1, [r5, #0]
    335a:	1ac0      	subs	r0, r0, r3
    335c:	2301      	movs	r3, #1
    335e:	4083      	lsls	r3, r0
    3360:	430b      	orrs	r3, r1
    3362:	602b      	str	r3, [r5, #0]
    3364:	4664      	mov	r4, ip
    3366:	e7b7      	b.n	32d8 <_vfiprintf_r+0x8c>
    3368:	9b05      	ldr	r3, [sp, #20]
    336a:	1d18      	adds	r0, r3, #4
    336c:	681b      	ldr	r3, [r3, #0]
    336e:	9005      	str	r0, [sp, #20]
    3370:	2b00      	cmp	r3, #0
    3372:	db3a      	blt.n	33ea <_vfiprintf_r+0x19e>
    3374:	9309      	str	r3, [sp, #36]	; 0x24
    3376:	4664      	mov	r4, ip
    3378:	7823      	ldrb	r3, [r4, #0]
    337a:	2b2e      	cmp	r3, #46	; 0x2e
    337c:	d10b      	bne.n	3396 <_vfiprintf_r+0x14a>
    337e:	7863      	ldrb	r3, [r4, #1]
    3380:	1c62      	adds	r2, r4, #1
    3382:	2b2a      	cmp	r3, #42	; 0x2a
    3384:	d13f      	bne.n	3406 <_vfiprintf_r+0x1ba>
    3386:	9b05      	ldr	r3, [sp, #20]
    3388:	3402      	adds	r4, #2
    338a:	1d1a      	adds	r2, r3, #4
    338c:	681b      	ldr	r3, [r3, #0]
    338e:	9205      	str	r2, [sp, #20]
    3390:	2b00      	cmp	r3, #0
    3392:	db35      	blt.n	3400 <_vfiprintf_r+0x1b4>
    3394:	9307      	str	r3, [sp, #28]
    3396:	7821      	ldrb	r1, [r4, #0]
    3398:	2203      	movs	r2, #3
    339a:	4836      	ldr	r0, [pc, #216]	; (3474 <_vfiprintf_r+0x228>)
    339c:	f7ff fb82 	bl	2aa4 <memchr>
    33a0:	2800      	cmp	r0, #0
    33a2:	d007      	beq.n	33b4 <_vfiprintf_r+0x168>
    33a4:	4b33      	ldr	r3, [pc, #204]	; (3474 <_vfiprintf_r+0x228>)
    33a6:	682a      	ldr	r2, [r5, #0]
    33a8:	1ac0      	subs	r0, r0, r3
    33aa:	2340      	movs	r3, #64	; 0x40
    33ac:	4083      	lsls	r3, r0
    33ae:	4313      	orrs	r3, r2
    33b0:	602b      	str	r3, [r5, #0]
    33b2:	3401      	adds	r4, #1
    33b4:	7821      	ldrb	r1, [r4, #0]
    33b6:	1c63      	adds	r3, r4, #1
    33b8:	2206      	movs	r2, #6
    33ba:	482f      	ldr	r0, [pc, #188]	; (3478 <_vfiprintf_r+0x22c>)
    33bc:	9302      	str	r3, [sp, #8]
    33be:	7629      	strb	r1, [r5, #24]
    33c0:	f7ff fb70 	bl	2aa4 <memchr>
    33c4:	2800      	cmp	r0, #0
    33c6:	d044      	beq.n	3452 <_vfiprintf_r+0x206>
    33c8:	4b2c      	ldr	r3, [pc, #176]	; (347c <_vfiprintf_r+0x230>)
    33ca:	2b00      	cmp	r3, #0
    33cc:	d12f      	bne.n	342e <_vfiprintf_r+0x1e2>
    33ce:	6829      	ldr	r1, [r5, #0]
    33d0:	9b05      	ldr	r3, [sp, #20]
    33d2:	2207      	movs	r2, #7
    33d4:	05c9      	lsls	r1, r1, #23
    33d6:	d528      	bpl.n	342a <_vfiprintf_r+0x1de>
    33d8:	189b      	adds	r3, r3, r2
    33da:	4393      	bics	r3, r2
    33dc:	3308      	adds	r3, #8
    33de:	9305      	str	r3, [sp, #20]
    33e0:	696b      	ldr	r3, [r5, #20]
    33e2:	9a03      	ldr	r2, [sp, #12]
    33e4:	189b      	adds	r3, r3, r2
    33e6:	616b      	str	r3, [r5, #20]
    33e8:	e74f      	b.n	328a <_vfiprintf_r+0x3e>
    33ea:	425b      	negs	r3, r3
    33ec:	60eb      	str	r3, [r5, #12]
    33ee:	2302      	movs	r3, #2
    33f0:	430b      	orrs	r3, r1
    33f2:	602b      	str	r3, [r5, #0]
    33f4:	e7bf      	b.n	3376 <_vfiprintf_r+0x12a>
    33f6:	434b      	muls	r3, r1
    33f8:	3401      	adds	r4, #1
    33fa:	189b      	adds	r3, r3, r2
    33fc:	2001      	movs	r0, #1
    33fe:	e789      	b.n	3314 <_vfiprintf_r+0xc8>
    3400:	2301      	movs	r3, #1
    3402:	425b      	negs	r3, r3
    3404:	e7c6      	b.n	3394 <_vfiprintf_r+0x148>
    3406:	2300      	movs	r3, #0
    3408:	0014      	movs	r4, r2
    340a:	200a      	movs	r0, #10
    340c:	001a      	movs	r2, r3
    340e:	606b      	str	r3, [r5, #4]
    3410:	7821      	ldrb	r1, [r4, #0]
    3412:	3930      	subs	r1, #48	; 0x30
    3414:	2909      	cmp	r1, #9
    3416:	d903      	bls.n	3420 <_vfiprintf_r+0x1d4>
    3418:	2b00      	cmp	r3, #0
    341a:	d0bc      	beq.n	3396 <_vfiprintf_r+0x14a>
    341c:	9207      	str	r2, [sp, #28]
    341e:	e7ba      	b.n	3396 <_vfiprintf_r+0x14a>
    3420:	4342      	muls	r2, r0
    3422:	3401      	adds	r4, #1
    3424:	1852      	adds	r2, r2, r1
    3426:	2301      	movs	r3, #1
    3428:	e7f2      	b.n	3410 <_vfiprintf_r+0x1c4>
    342a:	3307      	adds	r3, #7
    342c:	e7d5      	b.n	33da <_vfiprintf_r+0x18e>
    342e:	ab05      	add	r3, sp, #20
    3430:	9300      	str	r3, [sp, #0]
    3432:	003a      	movs	r2, r7
    3434:	4b12      	ldr	r3, [pc, #72]	; (3480 <_vfiprintf_r+0x234>)
    3436:	0029      	movs	r1, r5
    3438:	0030      	movs	r0, r6
    343a:	f7fd fd3f 	bl	ebc <_printf_float>
    343e:	9003      	str	r0, [sp, #12]
    3440:	9b03      	ldr	r3, [sp, #12]
    3442:	3301      	adds	r3, #1
    3444:	d1cc      	bne.n	33e0 <_vfiprintf_r+0x194>
    3446:	89bb      	ldrh	r3, [r7, #12]
    3448:	065b      	lsls	r3, r3, #25
    344a:	d500      	bpl.n	344e <_vfiprintf_r+0x202>
    344c:	e77b      	b.n	3346 <_vfiprintf_r+0xfa>
    344e:	980b      	ldr	r0, [sp, #44]	; 0x2c
    3450:	e77b      	b.n	334a <_vfiprintf_r+0xfe>
    3452:	ab05      	add	r3, sp, #20
    3454:	9300      	str	r3, [sp, #0]
    3456:	003a      	movs	r2, r7
    3458:	4b09      	ldr	r3, [pc, #36]	; (3480 <_vfiprintf_r+0x234>)
    345a:	0029      	movs	r1, r5
    345c:	0030      	movs	r0, r6
    345e:	f7fd ffe7 	bl	1430 <_printf_i>
    3462:	e7ec      	b.n	343e <_vfiprintf_r+0x1f2>
    3464:	000056e8 	.word	0x000056e8
    3468:	00005824 	.word	0x00005824
    346c:	00005708 	.word	0x00005708
    3470:	000056c8 	.word	0x000056c8
    3474:	0000582a 	.word	0x0000582a
    3478:	0000582e 	.word	0x0000582e
    347c:	00000ebd 	.word	0x00000ebd
    3480:	00003227 	.word	0x00003227

00003484 <_sbrk_r>:
    3484:	2300      	movs	r3, #0
    3486:	b570      	push	{r4, r5, r6, lr}
    3488:	4c06      	ldr	r4, [pc, #24]	; (34a4 <_sbrk_r+0x20>)
    348a:	0005      	movs	r5, r0
    348c:	0008      	movs	r0, r1
    348e:	6023      	str	r3, [r4, #0]
    3490:	f7fd f92a 	bl	6e8 <_sbrk>
    3494:	1c43      	adds	r3, r0, #1
    3496:	d103      	bne.n	34a0 <_sbrk_r+0x1c>
    3498:	6823      	ldr	r3, [r4, #0]
    349a:	2b00      	cmp	r3, #0
    349c:	d000      	beq.n	34a0 <_sbrk_r+0x1c>
    349e:	602b      	str	r3, [r5, #0]
    34a0:	bd70      	pop	{r4, r5, r6, pc}
    34a2:	46c0      	nop			; (mov r8, r8)
    34a4:	20000210 	.word	0x20000210

000034a8 <__sread>:
    34a8:	b570      	push	{r4, r5, r6, lr}
    34aa:	000c      	movs	r4, r1
    34ac:	250e      	movs	r5, #14
    34ae:	5f49      	ldrsh	r1, [r1, r5]
    34b0:	f000 f8b8 	bl	3624 <_read_r>
    34b4:	2800      	cmp	r0, #0
    34b6:	db03      	blt.n	34c0 <__sread+0x18>
    34b8:	6d63      	ldr	r3, [r4, #84]	; 0x54
    34ba:	181b      	adds	r3, r3, r0
    34bc:	6563      	str	r3, [r4, #84]	; 0x54
    34be:	bd70      	pop	{r4, r5, r6, pc}
    34c0:	89a3      	ldrh	r3, [r4, #12]
    34c2:	4a02      	ldr	r2, [pc, #8]	; (34cc <__sread+0x24>)
    34c4:	4013      	ands	r3, r2
    34c6:	81a3      	strh	r3, [r4, #12]
    34c8:	e7f9      	b.n	34be <__sread+0x16>
    34ca:	46c0      	nop			; (mov r8, r8)
    34cc:	ffffefff 	.word	0xffffefff

000034d0 <__swrite>:
    34d0:	b5f8      	push	{r3, r4, r5, r6, r7, lr}
    34d2:	001f      	movs	r7, r3
    34d4:	898b      	ldrh	r3, [r1, #12]
    34d6:	0005      	movs	r5, r0
    34d8:	000c      	movs	r4, r1
    34da:	0016      	movs	r6, r2
    34dc:	05db      	lsls	r3, r3, #23
    34de:	d505      	bpl.n	34ec <__swrite+0x1c>
    34e0:	230e      	movs	r3, #14
    34e2:	5ec9      	ldrsh	r1, [r1, r3]
    34e4:	2200      	movs	r2, #0
    34e6:	2302      	movs	r3, #2
    34e8:	f000 f874 	bl	35d4 <_lseek_r>
    34ec:	89a3      	ldrh	r3, [r4, #12]
    34ee:	4a05      	ldr	r2, [pc, #20]	; (3504 <__swrite+0x34>)
    34f0:	0028      	movs	r0, r5
    34f2:	4013      	ands	r3, r2
    34f4:	81a3      	strh	r3, [r4, #12]
    34f6:	0032      	movs	r2, r6
    34f8:	230e      	movs	r3, #14
    34fa:	5ee1      	ldrsh	r1, [r4, r3]
    34fc:	003b      	movs	r3, r7
    34fe:	f000 f81f 	bl	3540 <_write_r>
    3502:	bdf8      	pop	{r3, r4, r5, r6, r7, pc}
    3504:	ffffefff 	.word	0xffffefff

00003508 <__sseek>:
    3508:	b570      	push	{r4, r5, r6, lr}
    350a:	000c      	movs	r4, r1
    350c:	250e      	movs	r5, #14
    350e:	5f49      	ldrsh	r1, [r1, r5]
    3510:	f000 f860 	bl	35d4 <_lseek_r>
    3514:	89a3      	ldrh	r3, [r4, #12]
    3516:	1c42      	adds	r2, r0, #1
    3518:	d103      	bne.n	3522 <__sseek+0x1a>
    351a:	4a05      	ldr	r2, [pc, #20]	; (3530 <__sseek+0x28>)
    351c:	4013      	ands	r3, r2
    351e:	81a3      	strh	r3, [r4, #12]
    3520:	bd70      	pop	{r4, r5, r6, pc}
    3522:	2280      	movs	r2, #128	; 0x80
    3524:	0152      	lsls	r2, r2, #5
    3526:	4313      	orrs	r3, r2
    3528:	81a3      	strh	r3, [r4, #12]
    352a:	6560      	str	r0, [r4, #84]	; 0x54
    352c:	e7f8      	b.n	3520 <__sseek+0x18>
    352e:	46c0      	nop			; (mov r8, r8)
    3530:	ffffefff 	.word	0xffffefff

00003534 <__sclose>:
    3534:	b510      	push	{r4, lr}
    3536:	230e      	movs	r3, #14
    3538:	5ec9      	ldrsh	r1, [r1, r3]
    353a:	f000 f815 	bl	3568 <_close_r>
    353e:	bd10      	pop	{r4, pc}

00003540 <_write_r>:
    3540:	b570      	push	{r4, r5, r6, lr}
    3542:	0005      	movs	r5, r0
    3544:	0008      	movs	r0, r1
    3546:	0011      	movs	r1, r2
    3548:	2200      	movs	r2, #0
    354a:	4c06      	ldr	r4, [pc, #24]	; (3564 <_write_r+0x24>)
    354c:	6022      	str	r2, [r4, #0]
    354e:	001a      	movs	r2, r3
    3550:	f7fd fb8e 	bl	c70 <_write>
    3554:	1c43      	adds	r3, r0, #1
    3556:	d103      	bne.n	3560 <_write_r+0x20>
    3558:	6823      	ldr	r3, [r4, #0]
    355a:	2b00      	cmp	r3, #0
    355c:	d000      	beq.n	3560 <_write_r+0x20>
    355e:	602b      	str	r3, [r5, #0]
    3560:	bd70      	pop	{r4, r5, r6, pc}
    3562:	46c0      	nop			; (mov r8, r8)
    3564:	20000210 	.word	0x20000210

00003568 <_close_r>:
    3568:	2300      	movs	r3, #0
    356a:	b570      	push	{r4, r5, r6, lr}
    356c:	4c06      	ldr	r4, [pc, #24]	; (3588 <_close_r+0x20>)
    356e:	0005      	movs	r5, r0
    3570:	0008      	movs	r0, r1
    3572:	6023      	str	r3, [r4, #0]
    3574:	f7fd f8ca 	bl	70c <_close>
    3578:	1c43      	adds	r3, r0, #1
    357a:	d103      	bne.n	3584 <_close_r+0x1c>
    357c:	6823      	ldr	r3, [r4, #0]
    357e:	2b00      	cmp	r3, #0
    3580:	d000      	beq.n	3584 <_close_r+0x1c>
    3582:	602b      	str	r3, [r5, #0]
    3584:	bd70      	pop	{r4, r5, r6, pc}
    3586:	46c0      	nop			; (mov r8, r8)
    3588:	20000210 	.word	0x20000210

0000358c <_fstat_r>:
    358c:	2300      	movs	r3, #0
    358e:	b570      	push	{r4, r5, r6, lr}
    3590:	4c06      	ldr	r4, [pc, #24]	; (35ac <_fstat_r+0x20>)
    3592:	0005      	movs	r5, r0
    3594:	0008      	movs	r0, r1
    3596:	0011      	movs	r1, r2
    3598:	6023      	str	r3, [r4, #0]
    359a:	f7fd f8ba 	bl	712 <_fstat>
    359e:	1c43      	adds	r3, r0, #1
    35a0:	d103      	bne.n	35aa <_fstat_r+0x1e>
    35a2:	6823      	ldr	r3, [r4, #0]
    35a4:	2b00      	cmp	r3, #0
    35a6:	d000      	beq.n	35aa <_fstat_r+0x1e>
    35a8:	602b      	str	r3, [r5, #0]
    35aa:	bd70      	pop	{r4, r5, r6, pc}
    35ac:	20000210 	.word	0x20000210

000035b0 <_isatty_r>:
    35b0:	2300      	movs	r3, #0
    35b2:	b570      	push	{r4, r5, r6, lr}
    35b4:	4c06      	ldr	r4, [pc, #24]	; (35d0 <_isatty_r+0x20>)
    35b6:	0005      	movs	r5, r0
    35b8:	0008      	movs	r0, r1
    35ba:	6023      	str	r3, [r4, #0]
    35bc:	f7fd f8ae 	bl	71c <_isatty>
    35c0:	1c43      	adds	r3, r0, #1
    35c2:	d103      	bne.n	35cc <_isatty_r+0x1c>
    35c4:	6823      	ldr	r3, [r4, #0]
    35c6:	2b00      	cmp	r3, #0
    35c8:	d000      	beq.n	35cc <_isatty_r+0x1c>
    35ca:	602b      	str	r3, [r5, #0]
    35cc:	bd70      	pop	{r4, r5, r6, pc}
    35ce:	46c0      	nop			; (mov r8, r8)
    35d0:	20000210 	.word	0x20000210

000035d4 <_lseek_r>:
    35d4:	b570      	push	{r4, r5, r6, lr}
    35d6:	0005      	movs	r5, r0
    35d8:	0008      	movs	r0, r1
    35da:	0011      	movs	r1, r2
    35dc:	2200      	movs	r2, #0
    35de:	4c06      	ldr	r4, [pc, #24]	; (35f8 <_lseek_r+0x24>)
    35e0:	6022      	str	r2, [r4, #0]
    35e2:	001a      	movs	r2, r3
    35e4:	f7fd f89c 	bl	720 <_lseek>
    35e8:	1c43      	adds	r3, r0, #1
    35ea:	d103      	bne.n	35f4 <_lseek_r+0x20>
    35ec:	6823      	ldr	r3, [r4, #0]
    35ee:	2b00      	cmp	r3, #0
    35f0:	d000      	beq.n	35f4 <_lseek_r+0x20>
    35f2:	602b      	str	r3, [r5, #0]
    35f4:	bd70      	pop	{r4, r5, r6, pc}
    35f6:	46c0      	nop			; (mov r8, r8)
    35f8:	20000210 	.word	0x20000210

000035fc <__ascii_mbtowc>:
    35fc:	b082      	sub	sp, #8
    35fe:	2900      	cmp	r1, #0
    3600:	d100      	bne.n	3604 <__ascii_mbtowc+0x8>
    3602:	a901      	add	r1, sp, #4
    3604:	1e10      	subs	r0, r2, #0
    3606:	d006      	beq.n	3616 <__ascii_mbtowc+0x1a>
    3608:	2b00      	cmp	r3, #0
    360a:	d006      	beq.n	361a <__ascii_mbtowc+0x1e>
    360c:	7813      	ldrb	r3, [r2, #0]
    360e:	600b      	str	r3, [r1, #0]
    3610:	7810      	ldrb	r0, [r2, #0]
    3612:	1e43      	subs	r3, r0, #1
    3614:	4198      	sbcs	r0, r3
    3616:	b002      	add	sp, #8
    3618:	4770      	bx	lr
    361a:	2002      	movs	r0, #2
    361c:	4240      	negs	r0, r0
    361e:	e7fa      	b.n	3616 <__ascii_mbtowc+0x1a>

00003620 <__malloc_lock>:
    3620:	4770      	bx	lr

00003622 <__malloc_unlock>:
    3622:	4770      	bx	lr

00003624 <_read_r>:
    3624:	b570      	push	{r4, r5, r6, lr}
    3626:	0005      	movs	r5, r0
    3628:	0008      	movs	r0, r1
    362a:	0011      	movs	r1, r2
    362c:	2200      	movs	r2, #0
    362e:	4c06      	ldr	r4, [pc, #24]	; (3648 <_read_r+0x24>)
    3630:	6022      	str	r2, [r4, #0]
    3632:	001a      	movs	r2, r3
    3634:	f7fd fb08 	bl	c48 <_read>
    3638:	1c43      	adds	r3, r0, #1
    363a:	d103      	bne.n	3644 <_read_r+0x20>
    363c:	6823      	ldr	r3, [r4, #0]
    363e:	2b00      	cmp	r3, #0
    3640:	d000      	beq.n	3644 <_read_r+0x20>
    3642:	602b      	str	r3, [r5, #0]
    3644:	bd70      	pop	{r4, r5, r6, pc}
    3646:	46c0      	nop			; (mov r8, r8)
    3648:	20000210 	.word	0x20000210

0000364c <__ascii_wctomb>:
    364c:	1e0b      	subs	r3, r1, #0
    364e:	d004      	beq.n	365a <__ascii_wctomb+0xe>
    3650:	2aff      	cmp	r2, #255	; 0xff
    3652:	d904      	bls.n	365e <__ascii_wctomb+0x12>
    3654:	238a      	movs	r3, #138	; 0x8a
    3656:	6003      	str	r3, [r0, #0]
    3658:	3b8b      	subs	r3, #139	; 0x8b
    365a:	0018      	movs	r0, r3
    365c:	4770      	bx	lr
    365e:	700a      	strb	r2, [r1, #0]
    3660:	2301      	movs	r3, #1
    3662:	e7fa      	b.n	365a <__ascii_wctomb+0xe>

00003664 <__gnu_thumb1_case_uqi>:
    3664:	b402      	push	{r1}
    3666:	4671      	mov	r1, lr
    3668:	0849      	lsrs	r1, r1, #1
    366a:	0049      	lsls	r1, r1, #1
    366c:	5c09      	ldrb	r1, [r1, r0]
    366e:	0049      	lsls	r1, r1, #1
    3670:	448e      	add	lr, r1
    3672:	bc02      	pop	{r1}
    3674:	4770      	bx	lr
    3676:	46c0      	nop			; (mov r8, r8)

00003678 <__udivsi3>:
    3678:	2200      	movs	r2, #0
    367a:	0843      	lsrs	r3, r0, #1
    367c:	428b      	cmp	r3, r1
    367e:	d374      	bcc.n	376a <__udivsi3+0xf2>
    3680:	0903      	lsrs	r3, r0, #4
    3682:	428b      	cmp	r3, r1
    3684:	d35f      	bcc.n	3746 <__udivsi3+0xce>
    3686:	0a03      	lsrs	r3, r0, #8
    3688:	428b      	cmp	r3, r1
    368a:	d344      	bcc.n	3716 <__udivsi3+0x9e>
    368c:	0b03      	lsrs	r3, r0, #12
    368e:	428b      	cmp	r3, r1
    3690:	d328      	bcc.n	36e4 <__udivsi3+0x6c>
    3692:	0c03      	lsrs	r3, r0, #16
    3694:	428b      	cmp	r3, r1
    3696:	d30d      	bcc.n	36b4 <__udivsi3+0x3c>
    3698:	22ff      	movs	r2, #255	; 0xff
    369a:	0209      	lsls	r1, r1, #8
    369c:	ba12      	rev	r2, r2
    369e:	0c03      	lsrs	r3, r0, #16
    36a0:	428b      	cmp	r3, r1
    36a2:	d302      	bcc.n	36aa <__udivsi3+0x32>
    36a4:	1212      	asrs	r2, r2, #8
    36a6:	0209      	lsls	r1, r1, #8
    36a8:	d065      	beq.n	3776 <__udivsi3+0xfe>
    36aa:	0b03      	lsrs	r3, r0, #12
    36ac:	428b      	cmp	r3, r1
    36ae:	d319      	bcc.n	36e4 <__udivsi3+0x6c>
    36b0:	e000      	b.n	36b4 <__udivsi3+0x3c>
    36b2:	0a09      	lsrs	r1, r1, #8
    36b4:	0bc3      	lsrs	r3, r0, #15
    36b6:	428b      	cmp	r3, r1
    36b8:	d301      	bcc.n	36be <__udivsi3+0x46>
    36ba:	03cb      	lsls	r3, r1, #15
    36bc:	1ac0      	subs	r0, r0, r3
    36be:	4152      	adcs	r2, r2
    36c0:	0b83      	lsrs	r3, r0, #14
    36c2:	428b      	cmp	r3, r1
    36c4:	d301      	bcc.n	36ca <__udivsi3+0x52>
    36c6:	038b      	lsls	r3, r1, #14
    36c8:	1ac0      	subs	r0, r0, r3
    36ca:	4152      	adcs	r2, r2
    36cc:	0b43      	lsrs	r3, r0, #13
    36ce:	428b      	cmp	r3, r1
    36d0:	d301      	bcc.n	36d6 <__udivsi3+0x5e>
    36d2:	034b      	lsls	r3, r1, #13
    36d4:	1ac0      	subs	r0, r0, r3
    36d6:	4152      	adcs	r2, r2
    36d8:	0b03      	lsrs	r3, r0, #12
    36da:	428b      	cmp	r3, r1
    36dc:	d301      	bcc.n	36e2 <__udivsi3+0x6a>
    36de:	030b      	lsls	r3, r1, #12
    36e0:	1ac0      	subs	r0, r0, r3
    36e2:	4152      	adcs	r2, r2
    36e4:	0ac3      	lsrs	r3, r0, #11
    36e6:	428b      	cmp	r3, r1
    36e8:	d301      	bcc.n	36ee <__udivsi3+0x76>
    36ea:	02cb      	lsls	r3, r1, #11
    36ec:	1ac0      	subs	r0, r0, r3
    36ee:	4152      	adcs	r2, r2
    36f0:	0a83      	lsrs	r3, r0, #10
    36f2:	428b      	cmp	r3, r1
    36f4:	d301      	bcc.n	36fa <__udivsi3+0x82>
    36f6:	028b      	lsls	r3, r1, #10
    36f8:	1ac0      	subs	r0, r0, r3
    36fa:	4152      	adcs	r2, r2
    36fc:	0a43      	lsrs	r3, r0, #9
    36fe:	428b      	cmp	r3, r1
    3700:	d301      	bcc.n	3706 <__udivsi3+0x8e>
    3702:	024b      	lsls	r3, r1, #9
    3704:	1ac0      	subs	r0, r0, r3
    3706:	4152      	adcs	r2, r2
    3708:	0a03      	lsrs	r3, r0, #8
    370a:	428b      	cmp	r3, r1
    370c:	d301      	bcc.n	3712 <__udivsi3+0x9a>
    370e:	020b      	lsls	r3, r1, #8
    3710:	1ac0      	subs	r0, r0, r3
    3712:	4152      	adcs	r2, r2
    3714:	d2cd      	bcs.n	36b2 <__udivsi3+0x3a>
    3716:	09c3      	lsrs	r3, r0, #7
    3718:	428b      	cmp	r3, r1
    371a:	d301      	bcc.n	3720 <__udivsi3+0xa8>
    371c:	01cb      	lsls	r3, r1, #7
    371e:	1ac0      	subs	r0, r0, r3
    3720:	4152      	adcs	r2, r2
    3722:	0983      	lsrs	r3, r0, #6
    3724:	428b      	cmp	r3, r1
    3726:	d301      	bcc.n	372c <__udivsi3+0xb4>
    3728:	018b      	lsls	r3, r1, #6
    372a:	1ac0      	subs	r0, r0, r3
    372c:	4152      	adcs	r2, r2
    372e:	0943      	lsrs	r3, r0, #5
    3730:	428b      	cmp	r3, r1
    3732:	d301      	bcc.n	3738 <__udivsi3+0xc0>
    3734:	014b      	lsls	r3, r1, #5
    3736:	1ac0      	subs	r0, r0, r3
    3738:	4152      	adcs	r2, r2
    373a:	0903      	lsrs	r3, r0, #4
    373c:	428b      	cmp	r3, r1
    373e:	d301      	bcc.n	3744 <__udivsi3+0xcc>
    3740:	010b      	lsls	r3, r1, #4
    3742:	1ac0      	subs	r0, r0, r3
    3744:	4152      	adcs	r2, r2
    3746:	08c3      	lsrs	r3, r0, #3
    3748:	428b      	cmp	r3, r1
    374a:	d301      	bcc.n	3750 <__udivsi3+0xd8>
    374c:	00cb      	lsls	r3, r1, #3
    374e:	1ac0      	subs	r0, r0, r3
    3750:	4152      	adcs	r2, r2
    3752:	0883      	lsrs	r3, r0, #2
    3754:	428b      	cmp	r3, r1
    3756:	d301      	bcc.n	375c <__udivsi3+0xe4>
    3758:	008b      	lsls	r3, r1, #2
    375a:	1ac0      	subs	r0, r0, r3
    375c:	4152      	adcs	r2, r2
    375e:	0843      	lsrs	r3, r0, #1
    3760:	428b      	cmp	r3, r1
    3762:	d301      	bcc.n	3768 <__udivsi3+0xf0>
    3764:	004b      	lsls	r3, r1, #1
    3766:	1ac0      	subs	r0, r0, r3
    3768:	4152      	adcs	r2, r2
    376a:	1a41      	subs	r1, r0, r1
    376c:	d200      	bcs.n	3770 <__udivsi3+0xf8>
    376e:	4601      	mov	r1, r0
    3770:	4152      	adcs	r2, r2
    3772:	4610      	mov	r0, r2
    3774:	4770      	bx	lr
    3776:	e7ff      	b.n	3778 <__udivsi3+0x100>
    3778:	b501      	push	{r0, lr}
    377a:	2000      	movs	r0, #0
    377c:	f000 f8f0 	bl	3960 <__aeabi_idiv0>
    3780:	bd02      	pop	{r1, pc}
    3782:	46c0      	nop			; (mov r8, r8)

00003784 <__aeabi_uidivmod>:
    3784:	2900      	cmp	r1, #0
    3786:	d0f7      	beq.n	3778 <__udivsi3+0x100>
    3788:	e776      	b.n	3678 <__udivsi3>
    378a:	4770      	bx	lr

0000378c <__divsi3>:
    378c:	4603      	mov	r3, r0
    378e:	430b      	orrs	r3, r1
    3790:	d47f      	bmi.n	3892 <__divsi3+0x106>
    3792:	2200      	movs	r2, #0
    3794:	0843      	lsrs	r3, r0, #1
    3796:	428b      	cmp	r3, r1
    3798:	d374      	bcc.n	3884 <__divsi3+0xf8>
    379a:	0903      	lsrs	r3, r0, #4
    379c:	428b      	cmp	r3, r1
    379e:	d35f      	bcc.n	3860 <__divsi3+0xd4>
    37a0:	0a03      	lsrs	r3, r0, #8
    37a2:	428b      	cmp	r3, r1
    37a4:	d344      	bcc.n	3830 <__divsi3+0xa4>
    37a6:	0b03      	lsrs	r3, r0, #12
    37a8:	428b      	cmp	r3, r1
    37aa:	d328      	bcc.n	37fe <__divsi3+0x72>
    37ac:	0c03      	lsrs	r3, r0, #16
    37ae:	428b      	cmp	r3, r1
    37b0:	d30d      	bcc.n	37ce <__divsi3+0x42>
    37b2:	22ff      	movs	r2, #255	; 0xff
    37b4:	0209      	lsls	r1, r1, #8
    37b6:	ba12      	rev	r2, r2
    37b8:	0c03      	lsrs	r3, r0, #16
    37ba:	428b      	cmp	r3, r1
    37bc:	d302      	bcc.n	37c4 <__divsi3+0x38>
    37be:	1212      	asrs	r2, r2, #8
    37c0:	0209      	lsls	r1, r1, #8
    37c2:	d065      	beq.n	3890 <__divsi3+0x104>
    37c4:	0b03      	lsrs	r3, r0, #12
    37c6:	428b      	cmp	r3, r1
    37c8:	d319      	bcc.n	37fe <__divsi3+0x72>
    37ca:	e000      	b.n	37ce <__divsi3+0x42>
    37cc:	0a09      	lsrs	r1, r1, #8
    37ce:	0bc3      	lsrs	r3, r0, #15
    37d0:	428b      	cmp	r3, r1
    37d2:	d301      	bcc.n	37d8 <__divsi3+0x4c>
    37d4:	03cb      	lsls	r3, r1, #15
    37d6:	1ac0      	subs	r0, r0, r3
    37d8:	4152      	adcs	r2, r2
    37da:	0b83      	lsrs	r3, r0, #14
    37dc:	428b      	cmp	r3, r1
    37de:	d301      	bcc.n	37e4 <__divsi3+0x58>
    37e0:	038b      	lsls	r3, r1, #14
    37e2:	1ac0      	subs	r0, r0, r3
    37e4:	4152      	adcs	r2, r2
    37e6:	0b43      	lsrs	r3, r0, #13
    37e8:	428b      	cmp	r3, r1
    37ea:	d301      	bcc.n	37f0 <__divsi3+0x64>
    37ec:	034b      	lsls	r3, r1, #13
    37ee:	1ac0      	subs	r0, r0, r3
    37f0:	4152      	adcs	r2, r2
    37f2:	0b03      	lsrs	r3, r0, #12
    37f4:	428b      	cmp	r3, r1
    37f6:	d301      	bcc.n	37fc <__divsi3+0x70>
    37f8:	030b      	lsls	r3, r1, #12
    37fa:	1ac0      	subs	r0, r0, r3
    37fc:	4152      	adcs	r2, r2
    37fe:	0ac3      	lsrs	r3, r0, #11
    3800:	428b      	cmp	r3, r1
    3802:	d301      	bcc.n	3808 <__divsi3+0x7c>
    3804:	02cb      	lsls	r3, r1, #11
    3806:	1ac0      	subs	r0, r0, r3
    3808:	4152      	adcs	r2, r2
    380a:	0a83      	lsrs	r3, r0, #10
    380c:	428b      	cmp	r3, r1
    380e:	d301      	bcc.n	3814 <__divsi3+0x88>
    3810:	028b      	lsls	r3, r1, #10
    3812:	1ac0      	subs	r0, r0, r3
    3814:	4152      	adcs	r2, r2
    3816:	0a43      	lsrs	r3, r0, #9
    3818:	428b      	cmp	r3, r1
    381a:	d301      	bcc.n	3820 <__divsi3+0x94>
    381c:	024b      	lsls	r3, r1, #9
    381e:	1ac0      	subs	r0, r0, r3
    3820:	4152      	adcs	r2, r2
    3822:	0a03      	lsrs	r3, r0, #8
    3824:	428b      	cmp	r3, r1
    3826:	d301      	bcc.n	382c <__divsi3+0xa0>
    3828:	020b      	lsls	r3, r1, #8
    382a:	1ac0      	subs	r0, r0, r3
    382c:	4152      	adcs	r2, r2
    382e:	d2cd      	bcs.n	37cc <__divsi3+0x40>
    3830:	09c3      	lsrs	r3, r0, #7
    3832:	428b      	cmp	r3, r1
    3834:	d301      	bcc.n	383a <__divsi3+0xae>
    3836:	01cb      	lsls	r3, r1, #7
    3838:	1ac0      	subs	r0, r0, r3
    383a:	4152      	adcs	r2, r2
    383c:	0983      	lsrs	r3, r0, #6
    383e:	428b      	cmp	r3, r1
    3840:	d301      	bcc.n	3846 <__divsi3+0xba>
    3842:	018b      	lsls	r3, r1, #6
    3844:	1ac0      	subs	r0, r0, r3
    3846:	4152      	adcs	r2, r2
    3848:	0943      	lsrs	r3, r0, #5
    384a:	428b      	cmp	r3, r1
    384c:	d301      	bcc.n	3852 <__divsi3+0xc6>
    384e:	014b      	lsls	r3, r1, #5
    3850:	1ac0      	subs	r0, r0, r3
    3852:	4152      	adcs	r2, r2
    3854:	0903      	lsrs	r3, r0, #4
    3856:	428b      	cmp	r3, r1
    3858:	d301      	bcc.n	385e <__divsi3+0xd2>
    385a:	010b      	lsls	r3, r1, #4
    385c:	1ac0      	subs	r0, r0, r3
    385e:	4152      	adcs	r2, r2
    3860:	08c3      	lsrs	r3, r0, #3
    3862:	428b      	cmp	r3, r1
    3864:	d301      	bcc.n	386a <__divsi3+0xde>
    3866:	00cb      	lsls	r3, r1, #3
    3868:	1ac0      	subs	r0, r0, r3
    386a:	4152      	adcs	r2, r2
    386c:	0883      	lsrs	r3, r0, #2
    386e:	428b      	cmp	r3, r1
    3870:	d301      	bcc.n	3876 <__divsi3+0xea>
    3872:	008b      	lsls	r3, r1, #2
    3874:	1ac0      	subs	r0, r0, r3
    3876:	4152      	adcs	r2, r2
    3878:	0843      	lsrs	r3, r0, #1
    387a:	428b      	cmp	r3, r1
    387c:	d301      	bcc.n	3882 <__divsi3+0xf6>
    387e:	004b      	lsls	r3, r1, #1
    3880:	1ac0      	subs	r0, r0, r3
    3882:	4152      	adcs	r2, r2
    3884:	1a41      	subs	r1, r0, r1
    3886:	d200      	bcs.n	388a <__divsi3+0xfe>
    3888:	4601      	mov	r1, r0
    388a:	4152      	adcs	r2, r2
    388c:	4610      	mov	r0, r2
    388e:	4770      	bx	lr
    3890:	e05d      	b.n	394e <__divsi3+0x1c2>
    3892:	0fca      	lsrs	r2, r1, #31
    3894:	d000      	beq.n	3898 <__divsi3+0x10c>
    3896:	4249      	negs	r1, r1
    3898:	1003      	asrs	r3, r0, #32
    389a:	d300      	bcc.n	389e <__divsi3+0x112>
    389c:	4240      	negs	r0, r0
    389e:	4053      	eors	r3, r2
    38a0:	2200      	movs	r2, #0
    38a2:	469c      	mov	ip, r3
    38a4:	0903      	lsrs	r3, r0, #4
    38a6:	428b      	cmp	r3, r1
    38a8:	d32d      	bcc.n	3906 <__divsi3+0x17a>
    38aa:	0a03      	lsrs	r3, r0, #8
    38ac:	428b      	cmp	r3, r1
    38ae:	d312      	bcc.n	38d6 <__divsi3+0x14a>
    38b0:	22fc      	movs	r2, #252	; 0xfc
    38b2:	0189      	lsls	r1, r1, #6
    38b4:	ba12      	rev	r2, r2
    38b6:	0a03      	lsrs	r3, r0, #8
    38b8:	428b      	cmp	r3, r1
    38ba:	d30c      	bcc.n	38d6 <__divsi3+0x14a>
    38bc:	0189      	lsls	r1, r1, #6
    38be:	1192      	asrs	r2, r2, #6
    38c0:	428b      	cmp	r3, r1
    38c2:	d308      	bcc.n	38d6 <__divsi3+0x14a>
    38c4:	0189      	lsls	r1, r1, #6
    38c6:	1192      	asrs	r2, r2, #6
    38c8:	428b      	cmp	r3, r1
    38ca:	d304      	bcc.n	38d6 <__divsi3+0x14a>
    38cc:	0189      	lsls	r1, r1, #6
    38ce:	d03a      	beq.n	3946 <__divsi3+0x1ba>
    38d0:	1192      	asrs	r2, r2, #6
    38d2:	e000      	b.n	38d6 <__divsi3+0x14a>
    38d4:	0989      	lsrs	r1, r1, #6
    38d6:	09c3      	lsrs	r3, r0, #7
    38d8:	428b      	cmp	r3, r1
    38da:	d301      	bcc.n	38e0 <__divsi3+0x154>
    38dc:	01cb      	lsls	r3, r1, #7
    38de:	1ac0      	subs	r0, r0, r3
    38e0:	4152      	adcs	r2, r2
    38e2:	0983      	lsrs	r3, r0, #6
    38e4:	428b      	cmp	r3, r1
    38e6:	d301      	bcc.n	38ec <__divsi3+0x160>
    38e8:	018b      	lsls	r3, r1, #6
    38ea:	1ac0      	subs	r0, r0, r3
    38ec:	4152      	adcs	r2, r2
    38ee:	0943      	lsrs	r3, r0, #5
    38f0:	428b      	cmp	r3, r1
    38f2:	d301      	bcc.n	38f8 <__divsi3+0x16c>
    38f4:	014b      	lsls	r3, r1, #5
    38f6:	1ac0      	subs	r0, r0, r3
    38f8:	4152      	adcs	r2, r2
    38fa:	0903      	lsrs	r3, r0, #4
    38fc:	428b      	cmp	r3, r1
    38fe:	d301      	bcc.n	3904 <__divsi3+0x178>
    3900:	010b      	lsls	r3, r1, #4
    3902:	1ac0      	subs	r0, r0, r3
    3904:	4152      	adcs	r2, r2
    3906:	08c3      	lsrs	r3, r0, #3
    3908:	428b      	cmp	r3, r1
    390a:	d301      	bcc.n	3910 <__divsi3+0x184>
    390c:	00cb      	lsls	r3, r1, #3
    390e:	1ac0      	subs	r0, r0, r3
    3910:	4152      	adcs	r2, r2
    3912:	0883      	lsrs	r3, r0, #2
    3914:	428b      	cmp	r3, r1
    3916:	d301      	bcc.n	391c <__divsi3+0x190>
    3918:	008b      	lsls	r3, r1, #2
    391a:	1ac0      	subs	r0, r0, r3
    391c:	4152      	adcs	r2, r2
    391e:	d2d9      	bcs.n	38d4 <__divsi3+0x148>
    3920:	0843      	lsrs	r3, r0, #1
    3922:	428b      	cmp	r3, r1
    3924:	d301      	bcc.n	392a <__divsi3+0x19e>
    3926:	004b      	lsls	r3, r1, #1
    3928:	1ac0      	subs	r0, r0, r3
    392a:	4152      	adcs	r2, r2
    392c:	1a41      	subs	r1, r0, r1
    392e:	d200      	bcs.n	3932 <__divsi3+0x1a6>
    3930:	4601      	mov	r1, r0
    3932:	4663      	mov	r3, ip
    3934:	4152      	adcs	r2, r2
    3936:	105b      	asrs	r3, r3, #1
    3938:	4610      	mov	r0, r2
    393a:	d301      	bcc.n	3940 <__divsi3+0x1b4>
    393c:	4240      	negs	r0, r0
    393e:	2b00      	cmp	r3, #0
    3940:	d500      	bpl.n	3944 <__divsi3+0x1b8>
    3942:	4249      	negs	r1, r1
    3944:	4770      	bx	lr
    3946:	4663      	mov	r3, ip
    3948:	105b      	asrs	r3, r3, #1
    394a:	d300      	bcc.n	394e <__divsi3+0x1c2>
    394c:	4240      	negs	r0, r0
    394e:	b501      	push	{r0, lr}
    3950:	2000      	movs	r0, #0
    3952:	f000 f805 	bl	3960 <__aeabi_idiv0>
    3956:	bd02      	pop	{r1, pc}

00003958 <__aeabi_idivmod>:
    3958:	2900      	cmp	r1, #0
    395a:	d0f8      	beq.n	394e <__divsi3+0x1c2>
    395c:	e716      	b.n	378c <__divsi3>
    395e:	4770      	bx	lr

00003960 <__aeabi_idiv0>:
    3960:	4770      	bx	lr
    3962:	46c0      	nop			; (mov r8, r8)

00003964 <__aeabi_cdrcmple>:
    3964:	4684      	mov	ip, r0
    3966:	1c10      	adds	r0, r2, #0
    3968:	4662      	mov	r2, ip
    396a:	468c      	mov	ip, r1
    396c:	1c19      	adds	r1, r3, #0
    396e:	4663      	mov	r3, ip
    3970:	e000      	b.n	3974 <__aeabi_cdcmpeq>
    3972:	46c0      	nop			; (mov r8, r8)

00003974 <__aeabi_cdcmpeq>:
    3974:	b51f      	push	{r0, r1, r2, r3, r4, lr}
    3976:	f000 ff15 	bl	47a4 <__ledf2>
    397a:	2800      	cmp	r0, #0
    397c:	d401      	bmi.n	3982 <__aeabi_cdcmpeq+0xe>
    397e:	2100      	movs	r1, #0
    3980:	42c8      	cmn	r0, r1
    3982:	bd1f      	pop	{r0, r1, r2, r3, r4, pc}

00003984 <__aeabi_dcmpeq>:
    3984:	b510      	push	{r4, lr}
    3986:	f000 fe6f 	bl	4668 <__eqdf2>
    398a:	4240      	negs	r0, r0
    398c:	3001      	adds	r0, #1
    398e:	bd10      	pop	{r4, pc}

00003990 <__aeabi_dcmplt>:
    3990:	b510      	push	{r4, lr}
    3992:	f000 ff07 	bl	47a4 <__ledf2>
    3996:	2800      	cmp	r0, #0
    3998:	db01      	blt.n	399e <__aeabi_dcmplt+0xe>
    399a:	2000      	movs	r0, #0
    399c:	bd10      	pop	{r4, pc}
    399e:	2001      	movs	r0, #1
    39a0:	bd10      	pop	{r4, pc}
    39a2:	46c0      	nop			; (mov r8, r8)

000039a4 <__aeabi_dcmple>:
    39a4:	b510      	push	{r4, lr}
    39a6:	f000 fefd 	bl	47a4 <__ledf2>
    39aa:	2800      	cmp	r0, #0
    39ac:	dd01      	ble.n	39b2 <__aeabi_dcmple+0xe>
    39ae:	2000      	movs	r0, #0
    39b0:	bd10      	pop	{r4, pc}
    39b2:	2001      	movs	r0, #1
    39b4:	bd10      	pop	{r4, pc}
    39b6:	46c0      	nop			; (mov r8, r8)

000039b8 <__aeabi_dcmpgt>:
    39b8:	b510      	push	{r4, lr}
    39ba:	f000 fe8f 	bl	46dc <__gedf2>
    39be:	2800      	cmp	r0, #0
    39c0:	dc01      	bgt.n	39c6 <__aeabi_dcmpgt+0xe>
    39c2:	2000      	movs	r0, #0
    39c4:	bd10      	pop	{r4, pc}
    39c6:	2001      	movs	r0, #1
    39c8:	bd10      	pop	{r4, pc}
    39ca:	46c0      	nop			; (mov r8, r8)

000039cc <__aeabi_dcmpge>:
    39cc:	b510      	push	{r4, lr}
    39ce:	f000 fe85 	bl	46dc <__gedf2>
    39d2:	2800      	cmp	r0, #0
    39d4:	da01      	bge.n	39da <__aeabi_dcmpge+0xe>
    39d6:	2000      	movs	r0, #0
    39d8:	bd10      	pop	{r4, pc}
    39da:	2001      	movs	r0, #1
    39dc:	bd10      	pop	{r4, pc}
    39de:	46c0      	nop			; (mov r8, r8)

000039e0 <__aeabi_dadd>:
    39e0:	b5f8      	push	{r3, r4, r5, r6, r7, lr}
    39e2:	4645      	mov	r5, r8
    39e4:	46de      	mov	lr, fp
    39e6:	4657      	mov	r7, sl
    39e8:	464e      	mov	r6, r9
    39ea:	030c      	lsls	r4, r1, #12
    39ec:	b5e0      	push	{r5, r6, r7, lr}
    39ee:	004e      	lsls	r6, r1, #1
    39f0:	0fc9      	lsrs	r1, r1, #31
    39f2:	4688      	mov	r8, r1
    39f4:	000d      	movs	r5, r1
    39f6:	0a61      	lsrs	r1, r4, #9
    39f8:	0f44      	lsrs	r4, r0, #29
    39fa:	430c      	orrs	r4, r1
    39fc:	00c7      	lsls	r7, r0, #3
    39fe:	0319      	lsls	r1, r3, #12
    3a00:	0058      	lsls	r0, r3, #1
    3a02:	0fdb      	lsrs	r3, r3, #31
    3a04:	469b      	mov	fp, r3
    3a06:	0a4b      	lsrs	r3, r1, #9
    3a08:	0f51      	lsrs	r1, r2, #29
    3a0a:	430b      	orrs	r3, r1
    3a0c:	0d76      	lsrs	r6, r6, #21
    3a0e:	0d40      	lsrs	r0, r0, #21
    3a10:	0019      	movs	r1, r3
    3a12:	00d2      	lsls	r2, r2, #3
    3a14:	45d8      	cmp	r8, fp
    3a16:	d100      	bne.n	3a1a <__aeabi_dadd+0x3a>
    3a18:	e0ae      	b.n	3b78 <__aeabi_dadd+0x198>
    3a1a:	1a35      	subs	r5, r6, r0
    3a1c:	2d00      	cmp	r5, #0
    3a1e:	dc00      	bgt.n	3a22 <__aeabi_dadd+0x42>
    3a20:	e0f6      	b.n	3c10 <__aeabi_dadd+0x230>
    3a22:	2800      	cmp	r0, #0
    3a24:	d10f      	bne.n	3a46 <__aeabi_dadd+0x66>
    3a26:	4313      	orrs	r3, r2
    3a28:	d100      	bne.n	3a2c <__aeabi_dadd+0x4c>
    3a2a:	e0db      	b.n	3be4 <__aeabi_dadd+0x204>
    3a2c:	1e6b      	subs	r3, r5, #1
    3a2e:	2b00      	cmp	r3, #0
    3a30:	d000      	beq.n	3a34 <__aeabi_dadd+0x54>
    3a32:	e137      	b.n	3ca4 <__aeabi_dadd+0x2c4>
    3a34:	1aba      	subs	r2, r7, r2
    3a36:	4297      	cmp	r7, r2
    3a38:	41bf      	sbcs	r7, r7
    3a3a:	1a64      	subs	r4, r4, r1
    3a3c:	427f      	negs	r7, r7
    3a3e:	1be4      	subs	r4, r4, r7
    3a40:	2601      	movs	r6, #1
    3a42:	0017      	movs	r7, r2
    3a44:	e024      	b.n	3a90 <__aeabi_dadd+0xb0>
    3a46:	4bc6      	ldr	r3, [pc, #792]	; (3d60 <__aeabi_dadd+0x380>)
    3a48:	429e      	cmp	r6, r3
    3a4a:	d04d      	beq.n	3ae8 <__aeabi_dadd+0x108>
    3a4c:	2380      	movs	r3, #128	; 0x80
    3a4e:	041b      	lsls	r3, r3, #16
    3a50:	4319      	orrs	r1, r3
    3a52:	2d38      	cmp	r5, #56	; 0x38
    3a54:	dd00      	ble.n	3a58 <__aeabi_dadd+0x78>
    3a56:	e107      	b.n	3c68 <__aeabi_dadd+0x288>
    3a58:	2d1f      	cmp	r5, #31
    3a5a:	dd00      	ble.n	3a5e <__aeabi_dadd+0x7e>
    3a5c:	e138      	b.n	3cd0 <__aeabi_dadd+0x2f0>
    3a5e:	2020      	movs	r0, #32
    3a60:	1b43      	subs	r3, r0, r5
    3a62:	469a      	mov	sl, r3
    3a64:	000b      	movs	r3, r1
    3a66:	4650      	mov	r0, sl
    3a68:	4083      	lsls	r3, r0
    3a6a:	4699      	mov	r9, r3
    3a6c:	0013      	movs	r3, r2
    3a6e:	4648      	mov	r0, r9
    3a70:	40eb      	lsrs	r3, r5
    3a72:	4318      	orrs	r0, r3
    3a74:	0003      	movs	r3, r0
    3a76:	4650      	mov	r0, sl
    3a78:	4082      	lsls	r2, r0
    3a7a:	1e50      	subs	r0, r2, #1
    3a7c:	4182      	sbcs	r2, r0
    3a7e:	40e9      	lsrs	r1, r5
    3a80:	431a      	orrs	r2, r3
    3a82:	1aba      	subs	r2, r7, r2
    3a84:	1a61      	subs	r1, r4, r1
    3a86:	4297      	cmp	r7, r2
    3a88:	41a4      	sbcs	r4, r4
    3a8a:	0017      	movs	r7, r2
    3a8c:	4264      	negs	r4, r4
    3a8e:	1b0c      	subs	r4, r1, r4
    3a90:	0223      	lsls	r3, r4, #8
    3a92:	d562      	bpl.n	3b5a <__aeabi_dadd+0x17a>
    3a94:	0264      	lsls	r4, r4, #9
    3a96:	0a65      	lsrs	r5, r4, #9
    3a98:	2d00      	cmp	r5, #0
    3a9a:	d100      	bne.n	3a9e <__aeabi_dadd+0xbe>
    3a9c:	e0df      	b.n	3c5e <__aeabi_dadd+0x27e>
    3a9e:	0028      	movs	r0, r5
    3aa0:	f001 fd46 	bl	5530 <__clzsi2>
    3aa4:	0003      	movs	r3, r0
    3aa6:	3b08      	subs	r3, #8
    3aa8:	2b1f      	cmp	r3, #31
    3aaa:	dd00      	ble.n	3aae <__aeabi_dadd+0xce>
    3aac:	e0d2      	b.n	3c54 <__aeabi_dadd+0x274>
    3aae:	2220      	movs	r2, #32
    3ab0:	003c      	movs	r4, r7
    3ab2:	1ad2      	subs	r2, r2, r3
    3ab4:	409d      	lsls	r5, r3
    3ab6:	40d4      	lsrs	r4, r2
    3ab8:	409f      	lsls	r7, r3
    3aba:	4325      	orrs	r5, r4
    3abc:	429e      	cmp	r6, r3
    3abe:	dd00      	ble.n	3ac2 <__aeabi_dadd+0xe2>
    3ac0:	e0c4      	b.n	3c4c <__aeabi_dadd+0x26c>
    3ac2:	1b9e      	subs	r6, r3, r6
    3ac4:	1c73      	adds	r3, r6, #1
    3ac6:	2b1f      	cmp	r3, #31
    3ac8:	dd00      	ble.n	3acc <__aeabi_dadd+0xec>
    3aca:	e0f1      	b.n	3cb0 <__aeabi_dadd+0x2d0>
    3acc:	2220      	movs	r2, #32
    3ace:	0038      	movs	r0, r7
    3ad0:	0029      	movs	r1, r5
    3ad2:	1ad2      	subs	r2, r2, r3
    3ad4:	40d8      	lsrs	r0, r3
    3ad6:	4091      	lsls	r1, r2
    3ad8:	4097      	lsls	r7, r2
    3ada:	002c      	movs	r4, r5
    3adc:	4301      	orrs	r1, r0
    3ade:	1e78      	subs	r0, r7, #1
    3ae0:	4187      	sbcs	r7, r0
    3ae2:	40dc      	lsrs	r4, r3
    3ae4:	2600      	movs	r6, #0
    3ae6:	430f      	orrs	r7, r1
    3ae8:	077b      	lsls	r3, r7, #29
    3aea:	d009      	beq.n	3b00 <__aeabi_dadd+0x120>
    3aec:	230f      	movs	r3, #15
    3aee:	403b      	ands	r3, r7
    3af0:	2b04      	cmp	r3, #4
    3af2:	d005      	beq.n	3b00 <__aeabi_dadd+0x120>
    3af4:	1d3b      	adds	r3, r7, #4
    3af6:	42bb      	cmp	r3, r7
    3af8:	41bf      	sbcs	r7, r7
    3afa:	427f      	negs	r7, r7
    3afc:	19e4      	adds	r4, r4, r7
    3afe:	001f      	movs	r7, r3
    3b00:	0223      	lsls	r3, r4, #8
    3b02:	d52c      	bpl.n	3b5e <__aeabi_dadd+0x17e>
    3b04:	4b96      	ldr	r3, [pc, #600]	; (3d60 <__aeabi_dadd+0x380>)
    3b06:	3601      	adds	r6, #1
    3b08:	429e      	cmp	r6, r3
    3b0a:	d100      	bne.n	3b0e <__aeabi_dadd+0x12e>
    3b0c:	e09a      	b.n	3c44 <__aeabi_dadd+0x264>
    3b0e:	4645      	mov	r5, r8
    3b10:	4b94      	ldr	r3, [pc, #592]	; (3d64 <__aeabi_dadd+0x384>)
    3b12:	08ff      	lsrs	r7, r7, #3
    3b14:	401c      	ands	r4, r3
    3b16:	0760      	lsls	r0, r4, #29
    3b18:	0576      	lsls	r6, r6, #21
    3b1a:	0264      	lsls	r4, r4, #9
    3b1c:	4307      	orrs	r7, r0
    3b1e:	0b24      	lsrs	r4, r4, #12
    3b20:	0d76      	lsrs	r6, r6, #21
    3b22:	2100      	movs	r1, #0
    3b24:	0324      	lsls	r4, r4, #12
    3b26:	0b23      	lsrs	r3, r4, #12
    3b28:	0d0c      	lsrs	r4, r1, #20
    3b2a:	4a8f      	ldr	r2, [pc, #572]	; (3d68 <__aeabi_dadd+0x388>)
    3b2c:	0524      	lsls	r4, r4, #20
    3b2e:	431c      	orrs	r4, r3
    3b30:	4014      	ands	r4, r2
    3b32:	0533      	lsls	r3, r6, #20
    3b34:	4323      	orrs	r3, r4
    3b36:	005b      	lsls	r3, r3, #1
    3b38:	07ed      	lsls	r5, r5, #31
    3b3a:	085b      	lsrs	r3, r3, #1
    3b3c:	432b      	orrs	r3, r5
    3b3e:	0038      	movs	r0, r7
    3b40:	0019      	movs	r1, r3
    3b42:	bc3c      	pop	{r2, r3, r4, r5}
    3b44:	4690      	mov	r8, r2
    3b46:	4699      	mov	r9, r3
    3b48:	46a2      	mov	sl, r4
    3b4a:	46ab      	mov	fp, r5
    3b4c:	bdf8      	pop	{r3, r4, r5, r6, r7, pc}
    3b4e:	4664      	mov	r4, ip
    3b50:	4304      	orrs	r4, r0
    3b52:	d100      	bne.n	3b56 <__aeabi_dadd+0x176>
    3b54:	e211      	b.n	3f7a <__aeabi_dadd+0x59a>
    3b56:	0004      	movs	r4, r0
    3b58:	4667      	mov	r7, ip
    3b5a:	077b      	lsls	r3, r7, #29
    3b5c:	d1c6      	bne.n	3aec <__aeabi_dadd+0x10c>
    3b5e:	4645      	mov	r5, r8
    3b60:	0760      	lsls	r0, r4, #29
    3b62:	08ff      	lsrs	r7, r7, #3
    3b64:	4307      	orrs	r7, r0
    3b66:	08e4      	lsrs	r4, r4, #3
    3b68:	4b7d      	ldr	r3, [pc, #500]	; (3d60 <__aeabi_dadd+0x380>)
    3b6a:	429e      	cmp	r6, r3
    3b6c:	d030      	beq.n	3bd0 <__aeabi_dadd+0x1f0>
    3b6e:	0324      	lsls	r4, r4, #12
    3b70:	0576      	lsls	r6, r6, #21
    3b72:	0b24      	lsrs	r4, r4, #12
    3b74:	0d76      	lsrs	r6, r6, #21
    3b76:	e7d4      	b.n	3b22 <__aeabi_dadd+0x142>
    3b78:	1a33      	subs	r3, r6, r0
    3b7a:	469a      	mov	sl, r3
    3b7c:	2b00      	cmp	r3, #0
    3b7e:	dd78      	ble.n	3c72 <__aeabi_dadd+0x292>
    3b80:	2800      	cmp	r0, #0
    3b82:	d031      	beq.n	3be8 <__aeabi_dadd+0x208>
    3b84:	4876      	ldr	r0, [pc, #472]	; (3d60 <__aeabi_dadd+0x380>)
    3b86:	4286      	cmp	r6, r0
    3b88:	d0ae      	beq.n	3ae8 <__aeabi_dadd+0x108>
    3b8a:	2080      	movs	r0, #128	; 0x80
    3b8c:	0400      	lsls	r0, r0, #16
    3b8e:	4301      	orrs	r1, r0
    3b90:	4653      	mov	r3, sl
    3b92:	2b38      	cmp	r3, #56	; 0x38
    3b94:	dc00      	bgt.n	3b98 <__aeabi_dadd+0x1b8>
    3b96:	e0e9      	b.n	3d6c <__aeabi_dadd+0x38c>
    3b98:	430a      	orrs	r2, r1
    3b9a:	1e51      	subs	r1, r2, #1
    3b9c:	418a      	sbcs	r2, r1
    3b9e:	2100      	movs	r1, #0
    3ba0:	19d2      	adds	r2, r2, r7
    3ba2:	42ba      	cmp	r2, r7
    3ba4:	41bf      	sbcs	r7, r7
    3ba6:	1909      	adds	r1, r1, r4
    3ba8:	427c      	negs	r4, r7
    3baa:	0017      	movs	r7, r2
    3bac:	190c      	adds	r4, r1, r4
    3bae:	0223      	lsls	r3, r4, #8
    3bb0:	d5d3      	bpl.n	3b5a <__aeabi_dadd+0x17a>
    3bb2:	4b6b      	ldr	r3, [pc, #428]	; (3d60 <__aeabi_dadd+0x380>)
    3bb4:	3601      	adds	r6, #1
    3bb6:	429e      	cmp	r6, r3
    3bb8:	d100      	bne.n	3bbc <__aeabi_dadd+0x1dc>
    3bba:	e13a      	b.n	3e32 <__aeabi_dadd+0x452>
    3bbc:	2001      	movs	r0, #1
    3bbe:	4b69      	ldr	r3, [pc, #420]	; (3d64 <__aeabi_dadd+0x384>)
    3bc0:	401c      	ands	r4, r3
    3bc2:	087b      	lsrs	r3, r7, #1
    3bc4:	4007      	ands	r7, r0
    3bc6:	431f      	orrs	r7, r3
    3bc8:	07e0      	lsls	r0, r4, #31
    3bca:	4307      	orrs	r7, r0
    3bcc:	0864      	lsrs	r4, r4, #1
    3bce:	e78b      	b.n	3ae8 <__aeabi_dadd+0x108>
    3bd0:	0023      	movs	r3, r4
    3bd2:	433b      	orrs	r3, r7
    3bd4:	d100      	bne.n	3bd8 <__aeabi_dadd+0x1f8>
    3bd6:	e1cb      	b.n	3f70 <__aeabi_dadd+0x590>
    3bd8:	2280      	movs	r2, #128	; 0x80
    3bda:	0312      	lsls	r2, r2, #12
    3bdc:	4314      	orrs	r4, r2
    3bde:	0324      	lsls	r4, r4, #12
    3be0:	0b24      	lsrs	r4, r4, #12
    3be2:	e79e      	b.n	3b22 <__aeabi_dadd+0x142>
    3be4:	002e      	movs	r6, r5
    3be6:	e77f      	b.n	3ae8 <__aeabi_dadd+0x108>
    3be8:	0008      	movs	r0, r1
    3bea:	4310      	orrs	r0, r2
    3bec:	d100      	bne.n	3bf0 <__aeabi_dadd+0x210>
    3bee:	e0b4      	b.n	3d5a <__aeabi_dadd+0x37a>
    3bf0:	1e58      	subs	r0, r3, #1
    3bf2:	2800      	cmp	r0, #0
    3bf4:	d000      	beq.n	3bf8 <__aeabi_dadd+0x218>
    3bf6:	e0de      	b.n	3db6 <__aeabi_dadd+0x3d6>
    3bf8:	18ba      	adds	r2, r7, r2
    3bfa:	42ba      	cmp	r2, r7
    3bfc:	419b      	sbcs	r3, r3
    3bfe:	1864      	adds	r4, r4, r1
    3c00:	425b      	negs	r3, r3
    3c02:	18e4      	adds	r4, r4, r3
    3c04:	0017      	movs	r7, r2
    3c06:	2601      	movs	r6, #1
    3c08:	0223      	lsls	r3, r4, #8
    3c0a:	d5a6      	bpl.n	3b5a <__aeabi_dadd+0x17a>
    3c0c:	2602      	movs	r6, #2
    3c0e:	e7d5      	b.n	3bbc <__aeabi_dadd+0x1dc>
    3c10:	2d00      	cmp	r5, #0
    3c12:	d16e      	bne.n	3cf2 <__aeabi_dadd+0x312>
    3c14:	1c70      	adds	r0, r6, #1
    3c16:	0540      	lsls	r0, r0, #21
    3c18:	0d40      	lsrs	r0, r0, #21
    3c1a:	2801      	cmp	r0, #1
    3c1c:	dc00      	bgt.n	3c20 <__aeabi_dadd+0x240>
    3c1e:	e0f9      	b.n	3e14 <__aeabi_dadd+0x434>
    3c20:	1ab8      	subs	r0, r7, r2
    3c22:	4684      	mov	ip, r0
    3c24:	4287      	cmp	r7, r0
    3c26:	4180      	sbcs	r0, r0
    3c28:	1ae5      	subs	r5, r4, r3
    3c2a:	4240      	negs	r0, r0
    3c2c:	1a2d      	subs	r5, r5, r0
    3c2e:	0228      	lsls	r0, r5, #8
    3c30:	d400      	bmi.n	3c34 <__aeabi_dadd+0x254>
    3c32:	e089      	b.n	3d48 <__aeabi_dadd+0x368>
    3c34:	1bd7      	subs	r7, r2, r7
    3c36:	42ba      	cmp	r2, r7
    3c38:	4192      	sbcs	r2, r2
    3c3a:	1b1c      	subs	r4, r3, r4
    3c3c:	4252      	negs	r2, r2
    3c3e:	1aa5      	subs	r5, r4, r2
    3c40:	46d8      	mov	r8, fp
    3c42:	e729      	b.n	3a98 <__aeabi_dadd+0xb8>
    3c44:	4645      	mov	r5, r8
    3c46:	2400      	movs	r4, #0
    3c48:	2700      	movs	r7, #0
    3c4a:	e76a      	b.n	3b22 <__aeabi_dadd+0x142>
    3c4c:	4c45      	ldr	r4, [pc, #276]	; (3d64 <__aeabi_dadd+0x384>)
    3c4e:	1af6      	subs	r6, r6, r3
    3c50:	402c      	ands	r4, r5
    3c52:	e749      	b.n	3ae8 <__aeabi_dadd+0x108>
    3c54:	003d      	movs	r5, r7
    3c56:	3828      	subs	r0, #40	; 0x28
    3c58:	4085      	lsls	r5, r0
    3c5a:	2700      	movs	r7, #0
    3c5c:	e72e      	b.n	3abc <__aeabi_dadd+0xdc>
    3c5e:	0038      	movs	r0, r7
    3c60:	f001 fc66 	bl	5530 <__clzsi2>
    3c64:	3020      	adds	r0, #32
    3c66:	e71d      	b.n	3aa4 <__aeabi_dadd+0xc4>
    3c68:	430a      	orrs	r2, r1
    3c6a:	1e51      	subs	r1, r2, #1
    3c6c:	418a      	sbcs	r2, r1
    3c6e:	2100      	movs	r1, #0
    3c70:	e707      	b.n	3a82 <__aeabi_dadd+0xa2>
    3c72:	2b00      	cmp	r3, #0
    3c74:	d000      	beq.n	3c78 <__aeabi_dadd+0x298>
    3c76:	e0f3      	b.n	3e60 <__aeabi_dadd+0x480>
    3c78:	1c70      	adds	r0, r6, #1
    3c7a:	0543      	lsls	r3, r0, #21
    3c7c:	0d5b      	lsrs	r3, r3, #21
    3c7e:	2b01      	cmp	r3, #1
    3c80:	dc00      	bgt.n	3c84 <__aeabi_dadd+0x2a4>
    3c82:	e0ad      	b.n	3de0 <__aeabi_dadd+0x400>
    3c84:	4b36      	ldr	r3, [pc, #216]	; (3d60 <__aeabi_dadd+0x380>)
    3c86:	4298      	cmp	r0, r3
    3c88:	d100      	bne.n	3c8c <__aeabi_dadd+0x2ac>
    3c8a:	e0d1      	b.n	3e30 <__aeabi_dadd+0x450>
    3c8c:	18ba      	adds	r2, r7, r2
    3c8e:	42ba      	cmp	r2, r7
    3c90:	41bf      	sbcs	r7, r7
    3c92:	1864      	adds	r4, r4, r1
    3c94:	427f      	negs	r7, r7
    3c96:	19e4      	adds	r4, r4, r7
    3c98:	07e7      	lsls	r7, r4, #31
    3c9a:	0852      	lsrs	r2, r2, #1
    3c9c:	4317      	orrs	r7, r2
    3c9e:	0864      	lsrs	r4, r4, #1
    3ca0:	0006      	movs	r6, r0
    3ca2:	e721      	b.n	3ae8 <__aeabi_dadd+0x108>
    3ca4:	482e      	ldr	r0, [pc, #184]	; (3d60 <__aeabi_dadd+0x380>)
    3ca6:	4285      	cmp	r5, r0
    3ca8:	d100      	bne.n	3cac <__aeabi_dadd+0x2cc>
    3caa:	e093      	b.n	3dd4 <__aeabi_dadd+0x3f4>
    3cac:	001d      	movs	r5, r3
    3cae:	e6d0      	b.n	3a52 <__aeabi_dadd+0x72>
    3cb0:	0029      	movs	r1, r5
    3cb2:	3e1f      	subs	r6, #31
    3cb4:	40f1      	lsrs	r1, r6
    3cb6:	2b20      	cmp	r3, #32
    3cb8:	d100      	bne.n	3cbc <__aeabi_dadd+0x2dc>
    3cba:	e08d      	b.n	3dd8 <__aeabi_dadd+0x3f8>
    3cbc:	2240      	movs	r2, #64	; 0x40
    3cbe:	1ad3      	subs	r3, r2, r3
    3cc0:	409d      	lsls	r5, r3
    3cc2:	432f      	orrs	r7, r5
    3cc4:	1e7d      	subs	r5, r7, #1
    3cc6:	41af      	sbcs	r7, r5
    3cc8:	2400      	movs	r4, #0
    3cca:	430f      	orrs	r7, r1
    3ccc:	2600      	movs	r6, #0
    3cce:	e744      	b.n	3b5a <__aeabi_dadd+0x17a>
    3cd0:	002b      	movs	r3, r5
    3cd2:	0008      	movs	r0, r1
    3cd4:	3b20      	subs	r3, #32
    3cd6:	40d8      	lsrs	r0, r3
    3cd8:	0003      	movs	r3, r0
    3cda:	2d20      	cmp	r5, #32
    3cdc:	d100      	bne.n	3ce0 <__aeabi_dadd+0x300>
    3cde:	e07d      	b.n	3ddc <__aeabi_dadd+0x3fc>
    3ce0:	2040      	movs	r0, #64	; 0x40
    3ce2:	1b45      	subs	r5, r0, r5
    3ce4:	40a9      	lsls	r1, r5
    3ce6:	430a      	orrs	r2, r1
    3ce8:	1e51      	subs	r1, r2, #1
    3cea:	418a      	sbcs	r2, r1
    3cec:	2100      	movs	r1, #0
    3cee:	431a      	orrs	r2, r3
    3cf0:	e6c7      	b.n	3a82 <__aeabi_dadd+0xa2>
    3cf2:	2e00      	cmp	r6, #0
    3cf4:	d050      	beq.n	3d98 <__aeabi_dadd+0x3b8>
    3cf6:	4e1a      	ldr	r6, [pc, #104]	; (3d60 <__aeabi_dadd+0x380>)
    3cf8:	42b0      	cmp	r0, r6
    3cfa:	d057      	beq.n	3dac <__aeabi_dadd+0x3cc>
    3cfc:	2680      	movs	r6, #128	; 0x80
    3cfe:	426b      	negs	r3, r5
    3d00:	4699      	mov	r9, r3
    3d02:	0436      	lsls	r6, r6, #16
    3d04:	4334      	orrs	r4, r6
    3d06:	464b      	mov	r3, r9
    3d08:	2b38      	cmp	r3, #56	; 0x38
    3d0a:	dd00      	ble.n	3d0e <__aeabi_dadd+0x32e>
    3d0c:	e0d6      	b.n	3ebc <__aeabi_dadd+0x4dc>
    3d0e:	2b1f      	cmp	r3, #31
    3d10:	dd00      	ble.n	3d14 <__aeabi_dadd+0x334>
    3d12:	e135      	b.n	3f80 <__aeabi_dadd+0x5a0>
    3d14:	2620      	movs	r6, #32
    3d16:	1af5      	subs	r5, r6, r3
    3d18:	0026      	movs	r6, r4
    3d1a:	40ae      	lsls	r6, r5
    3d1c:	46b2      	mov	sl, r6
    3d1e:	003e      	movs	r6, r7
    3d20:	40de      	lsrs	r6, r3
    3d22:	46ac      	mov	ip, r5
    3d24:	0035      	movs	r5, r6
    3d26:	4656      	mov	r6, sl
    3d28:	432e      	orrs	r6, r5
    3d2a:	4665      	mov	r5, ip
    3d2c:	40af      	lsls	r7, r5
    3d2e:	1e7d      	subs	r5, r7, #1
    3d30:	41af      	sbcs	r7, r5
    3d32:	40dc      	lsrs	r4, r3
    3d34:	4337      	orrs	r7, r6
    3d36:	1bd7      	subs	r7, r2, r7
    3d38:	42ba      	cmp	r2, r7
    3d3a:	4192      	sbcs	r2, r2
    3d3c:	1b0c      	subs	r4, r1, r4
    3d3e:	4252      	negs	r2, r2
    3d40:	1aa4      	subs	r4, r4, r2
    3d42:	0006      	movs	r6, r0
    3d44:	46d8      	mov	r8, fp
    3d46:	e6a3      	b.n	3a90 <__aeabi_dadd+0xb0>
    3d48:	4664      	mov	r4, ip
    3d4a:	4667      	mov	r7, ip
    3d4c:	432c      	orrs	r4, r5
    3d4e:	d000      	beq.n	3d52 <__aeabi_dadd+0x372>
    3d50:	e6a2      	b.n	3a98 <__aeabi_dadd+0xb8>
    3d52:	2500      	movs	r5, #0
    3d54:	2600      	movs	r6, #0
    3d56:	2700      	movs	r7, #0
    3d58:	e706      	b.n	3b68 <__aeabi_dadd+0x188>
    3d5a:	001e      	movs	r6, r3
    3d5c:	e6c4      	b.n	3ae8 <__aeabi_dadd+0x108>
    3d5e:	46c0      	nop			; (mov r8, r8)
    3d60:	000007ff 	.word	0x000007ff
    3d64:	ff7fffff 	.word	0xff7fffff
    3d68:	800fffff 	.word	0x800fffff
    3d6c:	2b1f      	cmp	r3, #31
    3d6e:	dc63      	bgt.n	3e38 <__aeabi_dadd+0x458>
    3d70:	2020      	movs	r0, #32
    3d72:	1ac3      	subs	r3, r0, r3
    3d74:	0008      	movs	r0, r1
    3d76:	4098      	lsls	r0, r3
    3d78:	469c      	mov	ip, r3
    3d7a:	4683      	mov	fp, r0
    3d7c:	4653      	mov	r3, sl
    3d7e:	0010      	movs	r0, r2
    3d80:	40d8      	lsrs	r0, r3
    3d82:	0003      	movs	r3, r0
    3d84:	4658      	mov	r0, fp
    3d86:	4318      	orrs	r0, r3
    3d88:	4663      	mov	r3, ip
    3d8a:	409a      	lsls	r2, r3
    3d8c:	1e53      	subs	r3, r2, #1
    3d8e:	419a      	sbcs	r2, r3
    3d90:	4653      	mov	r3, sl
    3d92:	4302      	orrs	r2, r0
    3d94:	40d9      	lsrs	r1, r3
    3d96:	e703      	b.n	3ba0 <__aeabi_dadd+0x1c0>
    3d98:	0026      	movs	r6, r4
    3d9a:	433e      	orrs	r6, r7
    3d9c:	d006      	beq.n	3dac <__aeabi_dadd+0x3cc>
    3d9e:	43eb      	mvns	r3, r5
    3da0:	4699      	mov	r9, r3
    3da2:	2b00      	cmp	r3, #0
    3da4:	d0c7      	beq.n	3d36 <__aeabi_dadd+0x356>
    3da6:	4e94      	ldr	r6, [pc, #592]	; (3ff8 <__aeabi_dadd+0x618>)
    3da8:	42b0      	cmp	r0, r6
    3daa:	d1ac      	bne.n	3d06 <__aeabi_dadd+0x326>
    3dac:	000c      	movs	r4, r1
    3dae:	0017      	movs	r7, r2
    3db0:	0006      	movs	r6, r0
    3db2:	46d8      	mov	r8, fp
    3db4:	e698      	b.n	3ae8 <__aeabi_dadd+0x108>
    3db6:	4b90      	ldr	r3, [pc, #576]	; (3ff8 <__aeabi_dadd+0x618>)
    3db8:	459a      	cmp	sl, r3
    3dba:	d00b      	beq.n	3dd4 <__aeabi_dadd+0x3f4>
    3dbc:	4682      	mov	sl, r0
    3dbe:	e6e7      	b.n	3b90 <__aeabi_dadd+0x1b0>
    3dc0:	2800      	cmp	r0, #0
    3dc2:	d000      	beq.n	3dc6 <__aeabi_dadd+0x3e6>
    3dc4:	e09e      	b.n	3f04 <__aeabi_dadd+0x524>
    3dc6:	0018      	movs	r0, r3
    3dc8:	4310      	orrs	r0, r2
    3dca:	d100      	bne.n	3dce <__aeabi_dadd+0x3ee>
    3dcc:	e0e9      	b.n	3fa2 <__aeabi_dadd+0x5c2>
    3dce:	001c      	movs	r4, r3
    3dd0:	0017      	movs	r7, r2
    3dd2:	46d8      	mov	r8, fp
    3dd4:	4e88      	ldr	r6, [pc, #544]	; (3ff8 <__aeabi_dadd+0x618>)
    3dd6:	e687      	b.n	3ae8 <__aeabi_dadd+0x108>
    3dd8:	2500      	movs	r5, #0
    3dda:	e772      	b.n	3cc2 <__aeabi_dadd+0x2e2>
    3ddc:	2100      	movs	r1, #0
    3dde:	e782      	b.n	3ce6 <__aeabi_dadd+0x306>
    3de0:	0023      	movs	r3, r4
    3de2:	433b      	orrs	r3, r7
    3de4:	2e00      	cmp	r6, #0
    3de6:	d000      	beq.n	3dea <__aeabi_dadd+0x40a>
    3de8:	e0ab      	b.n	3f42 <__aeabi_dadd+0x562>
    3dea:	2b00      	cmp	r3, #0
    3dec:	d100      	bne.n	3df0 <__aeabi_dadd+0x410>
    3dee:	e0e7      	b.n	3fc0 <__aeabi_dadd+0x5e0>
    3df0:	000b      	movs	r3, r1
    3df2:	4313      	orrs	r3, r2
    3df4:	d100      	bne.n	3df8 <__aeabi_dadd+0x418>
    3df6:	e677      	b.n	3ae8 <__aeabi_dadd+0x108>
    3df8:	18ba      	adds	r2, r7, r2
    3dfa:	42ba      	cmp	r2, r7
    3dfc:	41bf      	sbcs	r7, r7
    3dfe:	1864      	adds	r4, r4, r1
    3e00:	427f      	negs	r7, r7
    3e02:	19e4      	adds	r4, r4, r7
    3e04:	0223      	lsls	r3, r4, #8
    3e06:	d400      	bmi.n	3e0a <__aeabi_dadd+0x42a>
    3e08:	e0f2      	b.n	3ff0 <__aeabi_dadd+0x610>
    3e0a:	4b7c      	ldr	r3, [pc, #496]	; (3ffc <__aeabi_dadd+0x61c>)
    3e0c:	0017      	movs	r7, r2
    3e0e:	401c      	ands	r4, r3
    3e10:	0006      	movs	r6, r0
    3e12:	e669      	b.n	3ae8 <__aeabi_dadd+0x108>
    3e14:	0020      	movs	r0, r4
    3e16:	4338      	orrs	r0, r7
    3e18:	2e00      	cmp	r6, #0
    3e1a:	d1d1      	bne.n	3dc0 <__aeabi_dadd+0x3e0>
    3e1c:	2800      	cmp	r0, #0
    3e1e:	d15b      	bne.n	3ed8 <__aeabi_dadd+0x4f8>
    3e20:	001c      	movs	r4, r3
    3e22:	4314      	orrs	r4, r2
    3e24:	d100      	bne.n	3e28 <__aeabi_dadd+0x448>
    3e26:	e0a8      	b.n	3f7a <__aeabi_dadd+0x59a>
    3e28:	001c      	movs	r4, r3
    3e2a:	0017      	movs	r7, r2
    3e2c:	46d8      	mov	r8, fp
    3e2e:	e65b      	b.n	3ae8 <__aeabi_dadd+0x108>
    3e30:	0006      	movs	r6, r0
    3e32:	2400      	movs	r4, #0
    3e34:	2700      	movs	r7, #0
    3e36:	e697      	b.n	3b68 <__aeabi_dadd+0x188>
    3e38:	4650      	mov	r0, sl
    3e3a:	000b      	movs	r3, r1
    3e3c:	3820      	subs	r0, #32
    3e3e:	40c3      	lsrs	r3, r0
    3e40:	4699      	mov	r9, r3
    3e42:	4653      	mov	r3, sl
    3e44:	2b20      	cmp	r3, #32
    3e46:	d100      	bne.n	3e4a <__aeabi_dadd+0x46a>
    3e48:	e095      	b.n	3f76 <__aeabi_dadd+0x596>
    3e4a:	2340      	movs	r3, #64	; 0x40
    3e4c:	4650      	mov	r0, sl
    3e4e:	1a1b      	subs	r3, r3, r0
    3e50:	4099      	lsls	r1, r3
    3e52:	430a      	orrs	r2, r1
    3e54:	1e51      	subs	r1, r2, #1
    3e56:	418a      	sbcs	r2, r1
    3e58:	464b      	mov	r3, r9
    3e5a:	2100      	movs	r1, #0
    3e5c:	431a      	orrs	r2, r3
    3e5e:	e69f      	b.n	3ba0 <__aeabi_dadd+0x1c0>
    3e60:	2e00      	cmp	r6, #0
    3e62:	d130      	bne.n	3ec6 <__aeabi_dadd+0x4e6>
    3e64:	0026      	movs	r6, r4
    3e66:	433e      	orrs	r6, r7
    3e68:	d067      	beq.n	3f3a <__aeabi_dadd+0x55a>
    3e6a:	43db      	mvns	r3, r3
    3e6c:	469a      	mov	sl, r3
    3e6e:	2b00      	cmp	r3, #0
    3e70:	d01c      	beq.n	3eac <__aeabi_dadd+0x4cc>
    3e72:	4e61      	ldr	r6, [pc, #388]	; (3ff8 <__aeabi_dadd+0x618>)
    3e74:	42b0      	cmp	r0, r6
    3e76:	d060      	beq.n	3f3a <__aeabi_dadd+0x55a>
    3e78:	4653      	mov	r3, sl
    3e7a:	2b38      	cmp	r3, #56	; 0x38
    3e7c:	dd00      	ble.n	3e80 <__aeabi_dadd+0x4a0>
    3e7e:	e096      	b.n	3fae <__aeabi_dadd+0x5ce>
    3e80:	2b1f      	cmp	r3, #31
    3e82:	dd00      	ble.n	3e86 <__aeabi_dadd+0x4a6>
    3e84:	e09f      	b.n	3fc6 <__aeabi_dadd+0x5e6>
    3e86:	2620      	movs	r6, #32
    3e88:	1af3      	subs	r3, r6, r3
    3e8a:	0026      	movs	r6, r4
    3e8c:	409e      	lsls	r6, r3
    3e8e:	469c      	mov	ip, r3
    3e90:	46b3      	mov	fp, r6
    3e92:	4653      	mov	r3, sl
    3e94:	003e      	movs	r6, r7
    3e96:	40de      	lsrs	r6, r3
    3e98:	0033      	movs	r3, r6
    3e9a:	465e      	mov	r6, fp
    3e9c:	431e      	orrs	r6, r3
    3e9e:	4663      	mov	r3, ip
    3ea0:	409f      	lsls	r7, r3
    3ea2:	1e7b      	subs	r3, r7, #1
    3ea4:	419f      	sbcs	r7, r3
    3ea6:	4653      	mov	r3, sl
    3ea8:	40dc      	lsrs	r4, r3
    3eaa:	4337      	orrs	r7, r6
    3eac:	18bf      	adds	r7, r7, r2
    3eae:	4297      	cmp	r7, r2
    3eb0:	4192      	sbcs	r2, r2
    3eb2:	1864      	adds	r4, r4, r1
    3eb4:	4252      	negs	r2, r2
    3eb6:	18a4      	adds	r4, r4, r2
    3eb8:	0006      	movs	r6, r0
    3eba:	e678      	b.n	3bae <__aeabi_dadd+0x1ce>
    3ebc:	4327      	orrs	r7, r4
    3ebe:	1e7c      	subs	r4, r7, #1
    3ec0:	41a7      	sbcs	r7, r4
    3ec2:	2400      	movs	r4, #0
    3ec4:	e737      	b.n	3d36 <__aeabi_dadd+0x356>
    3ec6:	4e4c      	ldr	r6, [pc, #304]	; (3ff8 <__aeabi_dadd+0x618>)
    3ec8:	42b0      	cmp	r0, r6
    3eca:	d036      	beq.n	3f3a <__aeabi_dadd+0x55a>
    3ecc:	2680      	movs	r6, #128	; 0x80
    3ece:	425b      	negs	r3, r3
    3ed0:	0436      	lsls	r6, r6, #16
    3ed2:	469a      	mov	sl, r3
    3ed4:	4334      	orrs	r4, r6
    3ed6:	e7cf      	b.n	3e78 <__aeabi_dadd+0x498>
    3ed8:	0018      	movs	r0, r3
    3eda:	4310      	orrs	r0, r2
    3edc:	d100      	bne.n	3ee0 <__aeabi_dadd+0x500>
    3ede:	e603      	b.n	3ae8 <__aeabi_dadd+0x108>
    3ee0:	1ab8      	subs	r0, r7, r2
    3ee2:	4684      	mov	ip, r0
    3ee4:	4567      	cmp	r7, ip
    3ee6:	41ad      	sbcs	r5, r5
    3ee8:	1ae0      	subs	r0, r4, r3
    3eea:	426d      	negs	r5, r5
    3eec:	1b40      	subs	r0, r0, r5
    3eee:	0205      	lsls	r5, r0, #8
    3ef0:	d400      	bmi.n	3ef4 <__aeabi_dadd+0x514>
    3ef2:	e62c      	b.n	3b4e <__aeabi_dadd+0x16e>
    3ef4:	1bd7      	subs	r7, r2, r7
    3ef6:	42ba      	cmp	r2, r7
    3ef8:	4192      	sbcs	r2, r2
    3efa:	1b1c      	subs	r4, r3, r4
    3efc:	4252      	negs	r2, r2
    3efe:	1aa4      	subs	r4, r4, r2
    3f00:	46d8      	mov	r8, fp
    3f02:	e5f1      	b.n	3ae8 <__aeabi_dadd+0x108>
    3f04:	0018      	movs	r0, r3
    3f06:	4310      	orrs	r0, r2
    3f08:	d100      	bne.n	3f0c <__aeabi_dadd+0x52c>
    3f0a:	e763      	b.n	3dd4 <__aeabi_dadd+0x3f4>
    3f0c:	08f8      	lsrs	r0, r7, #3
    3f0e:	0767      	lsls	r7, r4, #29
    3f10:	4307      	orrs	r7, r0
    3f12:	2080      	movs	r0, #128	; 0x80
    3f14:	08e4      	lsrs	r4, r4, #3
    3f16:	0300      	lsls	r0, r0, #12
    3f18:	4204      	tst	r4, r0
    3f1a:	d008      	beq.n	3f2e <__aeabi_dadd+0x54e>
    3f1c:	08dd      	lsrs	r5, r3, #3
    3f1e:	4205      	tst	r5, r0
    3f20:	d105      	bne.n	3f2e <__aeabi_dadd+0x54e>
    3f22:	08d2      	lsrs	r2, r2, #3
    3f24:	0759      	lsls	r1, r3, #29
    3f26:	4311      	orrs	r1, r2
    3f28:	000f      	movs	r7, r1
    3f2a:	002c      	movs	r4, r5
    3f2c:	46d8      	mov	r8, fp
    3f2e:	0f7b      	lsrs	r3, r7, #29
    3f30:	00e4      	lsls	r4, r4, #3
    3f32:	431c      	orrs	r4, r3
    3f34:	00ff      	lsls	r7, r7, #3
    3f36:	4e30      	ldr	r6, [pc, #192]	; (3ff8 <__aeabi_dadd+0x618>)
    3f38:	e5d6      	b.n	3ae8 <__aeabi_dadd+0x108>
    3f3a:	000c      	movs	r4, r1
    3f3c:	0017      	movs	r7, r2
    3f3e:	0006      	movs	r6, r0
    3f40:	e5d2      	b.n	3ae8 <__aeabi_dadd+0x108>
    3f42:	2b00      	cmp	r3, #0
    3f44:	d038      	beq.n	3fb8 <__aeabi_dadd+0x5d8>
    3f46:	000b      	movs	r3, r1
    3f48:	4313      	orrs	r3, r2
    3f4a:	d100      	bne.n	3f4e <__aeabi_dadd+0x56e>
    3f4c:	e742      	b.n	3dd4 <__aeabi_dadd+0x3f4>
    3f4e:	08f8      	lsrs	r0, r7, #3
    3f50:	0767      	lsls	r7, r4, #29
    3f52:	4307      	orrs	r7, r0
    3f54:	2080      	movs	r0, #128	; 0x80
    3f56:	08e4      	lsrs	r4, r4, #3
    3f58:	0300      	lsls	r0, r0, #12
    3f5a:	4204      	tst	r4, r0
    3f5c:	d0e7      	beq.n	3f2e <__aeabi_dadd+0x54e>
    3f5e:	08cb      	lsrs	r3, r1, #3
    3f60:	4203      	tst	r3, r0
    3f62:	d1e4      	bne.n	3f2e <__aeabi_dadd+0x54e>
    3f64:	08d2      	lsrs	r2, r2, #3
    3f66:	0749      	lsls	r1, r1, #29
    3f68:	4311      	orrs	r1, r2
    3f6a:	000f      	movs	r7, r1
    3f6c:	001c      	movs	r4, r3
    3f6e:	e7de      	b.n	3f2e <__aeabi_dadd+0x54e>
    3f70:	2700      	movs	r7, #0
    3f72:	2400      	movs	r4, #0
    3f74:	e5d5      	b.n	3b22 <__aeabi_dadd+0x142>
    3f76:	2100      	movs	r1, #0
    3f78:	e76b      	b.n	3e52 <__aeabi_dadd+0x472>
    3f7a:	2500      	movs	r5, #0
    3f7c:	2700      	movs	r7, #0
    3f7e:	e5f3      	b.n	3b68 <__aeabi_dadd+0x188>
    3f80:	464e      	mov	r6, r9
    3f82:	0025      	movs	r5, r4
    3f84:	3e20      	subs	r6, #32
    3f86:	40f5      	lsrs	r5, r6
    3f88:	464b      	mov	r3, r9
    3f8a:	002e      	movs	r6, r5
    3f8c:	2b20      	cmp	r3, #32
    3f8e:	d02d      	beq.n	3fec <__aeabi_dadd+0x60c>
    3f90:	2540      	movs	r5, #64	; 0x40
    3f92:	1aed      	subs	r5, r5, r3
    3f94:	40ac      	lsls	r4, r5
    3f96:	4327      	orrs	r7, r4
    3f98:	1e7c      	subs	r4, r7, #1
    3f9a:	41a7      	sbcs	r7, r4
    3f9c:	2400      	movs	r4, #0
    3f9e:	4337      	orrs	r7, r6
    3fa0:	e6c9      	b.n	3d36 <__aeabi_dadd+0x356>
    3fa2:	2480      	movs	r4, #128	; 0x80
    3fa4:	2500      	movs	r5, #0
    3fa6:	0324      	lsls	r4, r4, #12
    3fa8:	4e13      	ldr	r6, [pc, #76]	; (3ff8 <__aeabi_dadd+0x618>)
    3faa:	2700      	movs	r7, #0
    3fac:	e5dc      	b.n	3b68 <__aeabi_dadd+0x188>
    3fae:	4327      	orrs	r7, r4
    3fb0:	1e7c      	subs	r4, r7, #1
    3fb2:	41a7      	sbcs	r7, r4
    3fb4:	2400      	movs	r4, #0
    3fb6:	e779      	b.n	3eac <__aeabi_dadd+0x4cc>
    3fb8:	000c      	movs	r4, r1
    3fba:	0017      	movs	r7, r2
    3fbc:	4e0e      	ldr	r6, [pc, #56]	; (3ff8 <__aeabi_dadd+0x618>)
    3fbe:	e593      	b.n	3ae8 <__aeabi_dadd+0x108>
    3fc0:	000c      	movs	r4, r1
    3fc2:	0017      	movs	r7, r2
    3fc4:	e590      	b.n	3ae8 <__aeabi_dadd+0x108>
    3fc6:	4656      	mov	r6, sl
    3fc8:	0023      	movs	r3, r4
    3fca:	3e20      	subs	r6, #32
    3fcc:	40f3      	lsrs	r3, r6
    3fce:	4699      	mov	r9, r3
    3fd0:	4653      	mov	r3, sl
    3fd2:	2b20      	cmp	r3, #32
    3fd4:	d00e      	beq.n	3ff4 <__aeabi_dadd+0x614>
    3fd6:	2340      	movs	r3, #64	; 0x40
    3fd8:	4656      	mov	r6, sl
    3fda:	1b9b      	subs	r3, r3, r6
    3fdc:	409c      	lsls	r4, r3
    3fde:	4327      	orrs	r7, r4
    3fe0:	1e7c      	subs	r4, r7, #1
    3fe2:	41a7      	sbcs	r7, r4
    3fe4:	464b      	mov	r3, r9
    3fe6:	2400      	movs	r4, #0
    3fe8:	431f      	orrs	r7, r3
    3fea:	e75f      	b.n	3eac <__aeabi_dadd+0x4cc>
    3fec:	2400      	movs	r4, #0
    3fee:	e7d2      	b.n	3f96 <__aeabi_dadd+0x5b6>
    3ff0:	0017      	movs	r7, r2
    3ff2:	e5b2      	b.n	3b5a <__aeabi_dadd+0x17a>
    3ff4:	2400      	movs	r4, #0
    3ff6:	e7f2      	b.n	3fde <__aeabi_dadd+0x5fe>
    3ff8:	000007ff 	.word	0x000007ff
    3ffc:	ff7fffff 	.word	0xff7fffff

00004000 <__aeabi_ddiv>:
    4000:	b5f0      	push	{r4, r5, r6, r7, lr}
    4002:	4657      	mov	r7, sl
    4004:	4645      	mov	r5, r8
    4006:	46de      	mov	lr, fp
    4008:	464e      	mov	r6, r9
    400a:	b5e0      	push	{r5, r6, r7, lr}
    400c:	004c      	lsls	r4, r1, #1
    400e:	030e      	lsls	r6, r1, #12
    4010:	b087      	sub	sp, #28
    4012:	4683      	mov	fp, r0
    4014:	4692      	mov	sl, r2
    4016:	001d      	movs	r5, r3
    4018:	4680      	mov	r8, r0
    401a:	0b36      	lsrs	r6, r6, #12
    401c:	0d64      	lsrs	r4, r4, #21
    401e:	0fcf      	lsrs	r7, r1, #31
    4020:	2c00      	cmp	r4, #0
    4022:	d04f      	beq.n	40c4 <__aeabi_ddiv+0xc4>
    4024:	4b6f      	ldr	r3, [pc, #444]	; (41e4 <__aeabi_ddiv+0x1e4>)
    4026:	429c      	cmp	r4, r3
    4028:	d035      	beq.n	4096 <__aeabi_ddiv+0x96>
    402a:	2380      	movs	r3, #128	; 0x80
    402c:	0f42      	lsrs	r2, r0, #29
    402e:	041b      	lsls	r3, r3, #16
    4030:	00f6      	lsls	r6, r6, #3
    4032:	4313      	orrs	r3, r2
    4034:	4333      	orrs	r3, r6
    4036:	4699      	mov	r9, r3
    4038:	00c3      	lsls	r3, r0, #3
    403a:	4698      	mov	r8, r3
    403c:	4b6a      	ldr	r3, [pc, #424]	; (41e8 <__aeabi_ddiv+0x1e8>)
    403e:	2600      	movs	r6, #0
    4040:	469c      	mov	ip, r3
    4042:	2300      	movs	r3, #0
    4044:	4464      	add	r4, ip
    4046:	9303      	str	r3, [sp, #12]
    4048:	032b      	lsls	r3, r5, #12
    404a:	0b1b      	lsrs	r3, r3, #12
    404c:	469b      	mov	fp, r3
    404e:	006b      	lsls	r3, r5, #1
    4050:	0fed      	lsrs	r5, r5, #31
    4052:	4650      	mov	r0, sl
    4054:	0d5b      	lsrs	r3, r3, #21
    4056:	9501      	str	r5, [sp, #4]
    4058:	d05e      	beq.n	4118 <__aeabi_ddiv+0x118>
    405a:	4a62      	ldr	r2, [pc, #392]	; (41e4 <__aeabi_ddiv+0x1e4>)
    405c:	4293      	cmp	r3, r2
    405e:	d053      	beq.n	4108 <__aeabi_ddiv+0x108>
    4060:	465a      	mov	r2, fp
    4062:	00d1      	lsls	r1, r2, #3
    4064:	2280      	movs	r2, #128	; 0x80
    4066:	0f40      	lsrs	r0, r0, #29
    4068:	0412      	lsls	r2, r2, #16
    406a:	4302      	orrs	r2, r0
    406c:	430a      	orrs	r2, r1
    406e:	4693      	mov	fp, r2
    4070:	4652      	mov	r2, sl
    4072:	00d1      	lsls	r1, r2, #3
    4074:	4a5c      	ldr	r2, [pc, #368]	; (41e8 <__aeabi_ddiv+0x1e8>)
    4076:	4694      	mov	ip, r2
    4078:	2200      	movs	r2, #0
    407a:	4463      	add	r3, ip
    407c:	0038      	movs	r0, r7
    407e:	4068      	eors	r0, r5
    4080:	4684      	mov	ip, r0
    4082:	9002      	str	r0, [sp, #8]
    4084:	1ae4      	subs	r4, r4, r3
    4086:	4316      	orrs	r6, r2
    4088:	2e0f      	cmp	r6, #15
    408a:	d900      	bls.n	408e <__aeabi_ddiv+0x8e>
    408c:	e0b4      	b.n	41f8 <__aeabi_ddiv+0x1f8>
    408e:	4b57      	ldr	r3, [pc, #348]	; (41ec <__aeabi_ddiv+0x1ec>)
    4090:	00b6      	lsls	r6, r6, #2
    4092:	599b      	ldr	r3, [r3, r6]
    4094:	469f      	mov	pc, r3
    4096:	0003      	movs	r3, r0
    4098:	4333      	orrs	r3, r6
    409a:	4699      	mov	r9, r3
    409c:	d16c      	bne.n	4178 <__aeabi_ddiv+0x178>
    409e:	2300      	movs	r3, #0
    40a0:	4698      	mov	r8, r3
    40a2:	3302      	adds	r3, #2
    40a4:	2608      	movs	r6, #8
    40a6:	9303      	str	r3, [sp, #12]
    40a8:	e7ce      	b.n	4048 <__aeabi_ddiv+0x48>
    40aa:	46cb      	mov	fp, r9
    40ac:	4641      	mov	r1, r8
    40ae:	9a03      	ldr	r2, [sp, #12]
    40b0:	9701      	str	r7, [sp, #4]
    40b2:	2a02      	cmp	r2, #2
    40b4:	d165      	bne.n	4182 <__aeabi_ddiv+0x182>
    40b6:	9b01      	ldr	r3, [sp, #4]
    40b8:	4c4a      	ldr	r4, [pc, #296]	; (41e4 <__aeabi_ddiv+0x1e4>)
    40ba:	469c      	mov	ip, r3
    40bc:	2300      	movs	r3, #0
    40be:	2200      	movs	r2, #0
    40c0:	4698      	mov	r8, r3
    40c2:	e06b      	b.n	419c <__aeabi_ddiv+0x19c>
    40c4:	0003      	movs	r3, r0
    40c6:	4333      	orrs	r3, r6
    40c8:	4699      	mov	r9, r3
    40ca:	d04e      	beq.n	416a <__aeabi_ddiv+0x16a>
    40cc:	2e00      	cmp	r6, #0
    40ce:	d100      	bne.n	40d2 <__aeabi_ddiv+0xd2>
    40d0:	e1bc      	b.n	444c <__aeabi_ddiv+0x44c>
    40d2:	0030      	movs	r0, r6
    40d4:	f001 fa2c 	bl	5530 <__clzsi2>
    40d8:	0003      	movs	r3, r0
    40da:	3b0b      	subs	r3, #11
    40dc:	2b1c      	cmp	r3, #28
    40de:	dd00      	ble.n	40e2 <__aeabi_ddiv+0xe2>
    40e0:	e1ac      	b.n	443c <__aeabi_ddiv+0x43c>
    40e2:	221d      	movs	r2, #29
    40e4:	1ad3      	subs	r3, r2, r3
    40e6:	465a      	mov	r2, fp
    40e8:	0001      	movs	r1, r0
    40ea:	40da      	lsrs	r2, r3
    40ec:	3908      	subs	r1, #8
    40ee:	408e      	lsls	r6, r1
    40f0:	0013      	movs	r3, r2
    40f2:	4333      	orrs	r3, r6
    40f4:	4699      	mov	r9, r3
    40f6:	465b      	mov	r3, fp
    40f8:	408b      	lsls	r3, r1
    40fa:	4698      	mov	r8, r3
    40fc:	2300      	movs	r3, #0
    40fe:	4c3c      	ldr	r4, [pc, #240]	; (41f0 <__aeabi_ddiv+0x1f0>)
    4100:	2600      	movs	r6, #0
    4102:	1a24      	subs	r4, r4, r0
    4104:	9303      	str	r3, [sp, #12]
    4106:	e79f      	b.n	4048 <__aeabi_ddiv+0x48>
    4108:	4651      	mov	r1, sl
    410a:	465a      	mov	r2, fp
    410c:	4311      	orrs	r1, r2
    410e:	d129      	bne.n	4164 <__aeabi_ddiv+0x164>
    4110:	2200      	movs	r2, #0
    4112:	4693      	mov	fp, r2
    4114:	3202      	adds	r2, #2
    4116:	e7b1      	b.n	407c <__aeabi_ddiv+0x7c>
    4118:	4659      	mov	r1, fp
    411a:	4301      	orrs	r1, r0
    411c:	d01e      	beq.n	415c <__aeabi_ddiv+0x15c>
    411e:	465b      	mov	r3, fp
    4120:	2b00      	cmp	r3, #0
    4122:	d100      	bne.n	4126 <__aeabi_ddiv+0x126>
    4124:	e19e      	b.n	4464 <__aeabi_ddiv+0x464>
    4126:	4658      	mov	r0, fp
    4128:	f001 fa02 	bl	5530 <__clzsi2>
    412c:	0003      	movs	r3, r0
    412e:	3b0b      	subs	r3, #11
    4130:	2b1c      	cmp	r3, #28
    4132:	dd00      	ble.n	4136 <__aeabi_ddiv+0x136>
    4134:	e18f      	b.n	4456 <__aeabi_ddiv+0x456>
    4136:	0002      	movs	r2, r0
    4138:	4659      	mov	r1, fp
    413a:	3a08      	subs	r2, #8
    413c:	4091      	lsls	r1, r2
    413e:	468b      	mov	fp, r1
    4140:	211d      	movs	r1, #29
    4142:	1acb      	subs	r3, r1, r3
    4144:	4651      	mov	r1, sl
    4146:	40d9      	lsrs	r1, r3
    4148:	000b      	movs	r3, r1
    414a:	4659      	mov	r1, fp
    414c:	430b      	orrs	r3, r1
    414e:	4651      	mov	r1, sl
    4150:	469b      	mov	fp, r3
    4152:	4091      	lsls	r1, r2
    4154:	4b26      	ldr	r3, [pc, #152]	; (41f0 <__aeabi_ddiv+0x1f0>)
    4156:	2200      	movs	r2, #0
    4158:	1a1b      	subs	r3, r3, r0
    415a:	e78f      	b.n	407c <__aeabi_ddiv+0x7c>
    415c:	2300      	movs	r3, #0
    415e:	2201      	movs	r2, #1
    4160:	469b      	mov	fp, r3
    4162:	e78b      	b.n	407c <__aeabi_ddiv+0x7c>
    4164:	4651      	mov	r1, sl
    4166:	2203      	movs	r2, #3
    4168:	e788      	b.n	407c <__aeabi_ddiv+0x7c>
    416a:	2300      	movs	r3, #0
    416c:	4698      	mov	r8, r3
    416e:	3301      	adds	r3, #1
    4170:	2604      	movs	r6, #4
    4172:	2400      	movs	r4, #0
    4174:	9303      	str	r3, [sp, #12]
    4176:	e767      	b.n	4048 <__aeabi_ddiv+0x48>
    4178:	2303      	movs	r3, #3
    417a:	46b1      	mov	r9, r6
    417c:	9303      	str	r3, [sp, #12]
    417e:	260c      	movs	r6, #12
    4180:	e762      	b.n	4048 <__aeabi_ddiv+0x48>
    4182:	2a03      	cmp	r2, #3
    4184:	d100      	bne.n	4188 <__aeabi_ddiv+0x188>
    4186:	e25c      	b.n	4642 <__aeabi_ddiv+0x642>
    4188:	9b01      	ldr	r3, [sp, #4]
    418a:	2a01      	cmp	r2, #1
    418c:	d000      	beq.n	4190 <__aeabi_ddiv+0x190>
    418e:	e1e4      	b.n	455a <__aeabi_ddiv+0x55a>
    4190:	4013      	ands	r3, r2
    4192:	469c      	mov	ip, r3
    4194:	2300      	movs	r3, #0
    4196:	2400      	movs	r4, #0
    4198:	2200      	movs	r2, #0
    419a:	4698      	mov	r8, r3
    419c:	2100      	movs	r1, #0
    419e:	0312      	lsls	r2, r2, #12
    41a0:	0b13      	lsrs	r3, r2, #12
    41a2:	0d0a      	lsrs	r2, r1, #20
    41a4:	0512      	lsls	r2, r2, #20
    41a6:	431a      	orrs	r2, r3
    41a8:	0523      	lsls	r3, r4, #20
    41aa:	4c12      	ldr	r4, [pc, #72]	; (41f4 <__aeabi_ddiv+0x1f4>)
    41ac:	4640      	mov	r0, r8
    41ae:	4022      	ands	r2, r4
    41b0:	4313      	orrs	r3, r2
    41b2:	4662      	mov	r2, ip
    41b4:	005b      	lsls	r3, r3, #1
    41b6:	07d2      	lsls	r2, r2, #31
    41b8:	085b      	lsrs	r3, r3, #1
    41ba:	4313      	orrs	r3, r2
    41bc:	0019      	movs	r1, r3
    41be:	b007      	add	sp, #28
    41c0:	bc3c      	pop	{r2, r3, r4, r5}
    41c2:	4690      	mov	r8, r2
    41c4:	4699      	mov	r9, r3
    41c6:	46a2      	mov	sl, r4
    41c8:	46ab      	mov	fp, r5
    41ca:	bdf0      	pop	{r4, r5, r6, r7, pc}
    41cc:	2300      	movs	r3, #0
    41ce:	2280      	movs	r2, #128	; 0x80
    41d0:	469c      	mov	ip, r3
    41d2:	0312      	lsls	r2, r2, #12
    41d4:	4698      	mov	r8, r3
    41d6:	4c03      	ldr	r4, [pc, #12]	; (41e4 <__aeabi_ddiv+0x1e4>)
    41d8:	e7e0      	b.n	419c <__aeabi_ddiv+0x19c>
    41da:	2300      	movs	r3, #0
    41dc:	4c01      	ldr	r4, [pc, #4]	; (41e4 <__aeabi_ddiv+0x1e4>)
    41de:	2200      	movs	r2, #0
    41e0:	4698      	mov	r8, r3
    41e2:	e7db      	b.n	419c <__aeabi_ddiv+0x19c>
    41e4:	000007ff 	.word	0x000007ff
    41e8:	fffffc01 	.word	0xfffffc01
    41ec:	00005940 	.word	0x00005940
    41f0:	fffffc0d 	.word	0xfffffc0d
    41f4:	800fffff 	.word	0x800fffff
    41f8:	45d9      	cmp	r9, fp
    41fa:	d900      	bls.n	41fe <__aeabi_ddiv+0x1fe>
    41fc:	e139      	b.n	4472 <__aeabi_ddiv+0x472>
    41fe:	d100      	bne.n	4202 <__aeabi_ddiv+0x202>
    4200:	e134      	b.n	446c <__aeabi_ddiv+0x46c>
    4202:	2300      	movs	r3, #0
    4204:	4646      	mov	r6, r8
    4206:	464d      	mov	r5, r9
    4208:	469a      	mov	sl, r3
    420a:	3c01      	subs	r4, #1
    420c:	465b      	mov	r3, fp
    420e:	0e0a      	lsrs	r2, r1, #24
    4210:	021b      	lsls	r3, r3, #8
    4212:	431a      	orrs	r2, r3
    4214:	020b      	lsls	r3, r1, #8
    4216:	0c17      	lsrs	r7, r2, #16
    4218:	9303      	str	r3, [sp, #12]
    421a:	0413      	lsls	r3, r2, #16
    421c:	0c1b      	lsrs	r3, r3, #16
    421e:	0039      	movs	r1, r7
    4220:	0028      	movs	r0, r5
    4222:	4690      	mov	r8, r2
    4224:	9301      	str	r3, [sp, #4]
    4226:	f7ff fa27 	bl	3678 <__udivsi3>
    422a:	0002      	movs	r2, r0
    422c:	9b01      	ldr	r3, [sp, #4]
    422e:	4683      	mov	fp, r0
    4230:	435a      	muls	r2, r3
    4232:	0028      	movs	r0, r5
    4234:	0039      	movs	r1, r7
    4236:	4691      	mov	r9, r2
    4238:	f7ff faa4 	bl	3784 <__aeabi_uidivmod>
    423c:	0c35      	lsrs	r5, r6, #16
    423e:	0409      	lsls	r1, r1, #16
    4240:	430d      	orrs	r5, r1
    4242:	45a9      	cmp	r9, r5
    4244:	d90d      	bls.n	4262 <__aeabi_ddiv+0x262>
    4246:	465b      	mov	r3, fp
    4248:	4445      	add	r5, r8
    424a:	3b01      	subs	r3, #1
    424c:	45a8      	cmp	r8, r5
    424e:	d900      	bls.n	4252 <__aeabi_ddiv+0x252>
    4250:	e13a      	b.n	44c8 <__aeabi_ddiv+0x4c8>
    4252:	45a9      	cmp	r9, r5
    4254:	d800      	bhi.n	4258 <__aeabi_ddiv+0x258>
    4256:	e137      	b.n	44c8 <__aeabi_ddiv+0x4c8>
    4258:	2302      	movs	r3, #2
    425a:	425b      	negs	r3, r3
    425c:	469c      	mov	ip, r3
    425e:	4445      	add	r5, r8
    4260:	44e3      	add	fp, ip
    4262:	464b      	mov	r3, r9
    4264:	1aeb      	subs	r3, r5, r3
    4266:	0039      	movs	r1, r7
    4268:	0018      	movs	r0, r3
    426a:	9304      	str	r3, [sp, #16]
    426c:	f7ff fa04 	bl	3678 <__udivsi3>
    4270:	9b01      	ldr	r3, [sp, #4]
    4272:	0005      	movs	r5, r0
    4274:	4343      	muls	r3, r0
    4276:	0039      	movs	r1, r7
    4278:	9804      	ldr	r0, [sp, #16]
    427a:	4699      	mov	r9, r3
    427c:	f7ff fa82 	bl	3784 <__aeabi_uidivmod>
    4280:	0433      	lsls	r3, r6, #16
    4282:	0409      	lsls	r1, r1, #16
    4284:	0c1b      	lsrs	r3, r3, #16
    4286:	430b      	orrs	r3, r1
    4288:	4599      	cmp	r9, r3
    428a:	d909      	bls.n	42a0 <__aeabi_ddiv+0x2a0>
    428c:	4443      	add	r3, r8
    428e:	1e6a      	subs	r2, r5, #1
    4290:	4598      	cmp	r8, r3
    4292:	d900      	bls.n	4296 <__aeabi_ddiv+0x296>
    4294:	e11a      	b.n	44cc <__aeabi_ddiv+0x4cc>
    4296:	4599      	cmp	r9, r3
    4298:	d800      	bhi.n	429c <__aeabi_ddiv+0x29c>
    429a:	e117      	b.n	44cc <__aeabi_ddiv+0x4cc>
    429c:	3d02      	subs	r5, #2
    429e:	4443      	add	r3, r8
    42a0:	464a      	mov	r2, r9
    42a2:	1a9b      	subs	r3, r3, r2
    42a4:	465a      	mov	r2, fp
    42a6:	0412      	lsls	r2, r2, #16
    42a8:	432a      	orrs	r2, r5
    42aa:	9903      	ldr	r1, [sp, #12]
    42ac:	4693      	mov	fp, r2
    42ae:	0c10      	lsrs	r0, r2, #16
    42b0:	0c0a      	lsrs	r2, r1, #16
    42b2:	4691      	mov	r9, r2
    42b4:	0409      	lsls	r1, r1, #16
    42b6:	465a      	mov	r2, fp
    42b8:	0c09      	lsrs	r1, r1, #16
    42ba:	464e      	mov	r6, r9
    42bc:	000d      	movs	r5, r1
    42be:	0412      	lsls	r2, r2, #16
    42c0:	0c12      	lsrs	r2, r2, #16
    42c2:	4345      	muls	r5, r0
    42c4:	9105      	str	r1, [sp, #20]
    42c6:	4351      	muls	r1, r2
    42c8:	4372      	muls	r2, r6
    42ca:	4370      	muls	r0, r6
    42cc:	1952      	adds	r2, r2, r5
    42ce:	0c0e      	lsrs	r6, r1, #16
    42d0:	18b2      	adds	r2, r6, r2
    42d2:	4295      	cmp	r5, r2
    42d4:	d903      	bls.n	42de <__aeabi_ddiv+0x2de>
    42d6:	2580      	movs	r5, #128	; 0x80
    42d8:	026d      	lsls	r5, r5, #9
    42da:	46ac      	mov	ip, r5
    42dc:	4460      	add	r0, ip
    42de:	0c15      	lsrs	r5, r2, #16
    42e0:	0409      	lsls	r1, r1, #16
    42e2:	0412      	lsls	r2, r2, #16
    42e4:	0c09      	lsrs	r1, r1, #16
    42e6:	1828      	adds	r0, r5, r0
    42e8:	1852      	adds	r2, r2, r1
    42ea:	4283      	cmp	r3, r0
    42ec:	d200      	bcs.n	42f0 <__aeabi_ddiv+0x2f0>
    42ee:	e0ce      	b.n	448e <__aeabi_ddiv+0x48e>
    42f0:	d100      	bne.n	42f4 <__aeabi_ddiv+0x2f4>
    42f2:	e0c8      	b.n	4486 <__aeabi_ddiv+0x486>
    42f4:	1a1d      	subs	r5, r3, r0
    42f6:	4653      	mov	r3, sl
    42f8:	1a9e      	subs	r6, r3, r2
    42fa:	45b2      	cmp	sl, r6
    42fc:	4192      	sbcs	r2, r2
    42fe:	4252      	negs	r2, r2
    4300:	1aab      	subs	r3, r5, r2
    4302:	469a      	mov	sl, r3
    4304:	4598      	cmp	r8, r3
    4306:	d100      	bne.n	430a <__aeabi_ddiv+0x30a>
    4308:	e117      	b.n	453a <__aeabi_ddiv+0x53a>
    430a:	0039      	movs	r1, r7
    430c:	0018      	movs	r0, r3
    430e:	f7ff f9b3 	bl	3678 <__udivsi3>
    4312:	9b01      	ldr	r3, [sp, #4]
    4314:	0005      	movs	r5, r0
    4316:	4343      	muls	r3, r0
    4318:	0039      	movs	r1, r7
    431a:	4650      	mov	r0, sl
    431c:	9304      	str	r3, [sp, #16]
    431e:	f7ff fa31 	bl	3784 <__aeabi_uidivmod>
    4322:	9804      	ldr	r0, [sp, #16]
    4324:	040b      	lsls	r3, r1, #16
    4326:	0c31      	lsrs	r1, r6, #16
    4328:	4319      	orrs	r1, r3
    432a:	4288      	cmp	r0, r1
    432c:	d909      	bls.n	4342 <__aeabi_ddiv+0x342>
    432e:	4441      	add	r1, r8
    4330:	1e6b      	subs	r3, r5, #1
    4332:	4588      	cmp	r8, r1
    4334:	d900      	bls.n	4338 <__aeabi_ddiv+0x338>
    4336:	e107      	b.n	4548 <__aeabi_ddiv+0x548>
    4338:	4288      	cmp	r0, r1
    433a:	d800      	bhi.n	433e <__aeabi_ddiv+0x33e>
    433c:	e104      	b.n	4548 <__aeabi_ddiv+0x548>
    433e:	3d02      	subs	r5, #2
    4340:	4441      	add	r1, r8
    4342:	9b04      	ldr	r3, [sp, #16]
    4344:	1acb      	subs	r3, r1, r3
    4346:	0018      	movs	r0, r3
    4348:	0039      	movs	r1, r7
    434a:	9304      	str	r3, [sp, #16]
    434c:	f7ff f994 	bl	3678 <__udivsi3>
    4350:	9b01      	ldr	r3, [sp, #4]
    4352:	4682      	mov	sl, r0
    4354:	4343      	muls	r3, r0
    4356:	0039      	movs	r1, r7
    4358:	9804      	ldr	r0, [sp, #16]
    435a:	9301      	str	r3, [sp, #4]
    435c:	f7ff fa12 	bl	3784 <__aeabi_uidivmod>
    4360:	9801      	ldr	r0, [sp, #4]
    4362:	040b      	lsls	r3, r1, #16
    4364:	0431      	lsls	r1, r6, #16
    4366:	0c09      	lsrs	r1, r1, #16
    4368:	4319      	orrs	r1, r3
    436a:	4288      	cmp	r0, r1
    436c:	d90d      	bls.n	438a <__aeabi_ddiv+0x38a>
    436e:	4653      	mov	r3, sl
    4370:	4441      	add	r1, r8
    4372:	3b01      	subs	r3, #1
    4374:	4588      	cmp	r8, r1
    4376:	d900      	bls.n	437a <__aeabi_ddiv+0x37a>
    4378:	e0e8      	b.n	454c <__aeabi_ddiv+0x54c>
    437a:	4288      	cmp	r0, r1
    437c:	d800      	bhi.n	4380 <__aeabi_ddiv+0x380>
    437e:	e0e5      	b.n	454c <__aeabi_ddiv+0x54c>
    4380:	2302      	movs	r3, #2
    4382:	425b      	negs	r3, r3
    4384:	469c      	mov	ip, r3
    4386:	4441      	add	r1, r8
    4388:	44e2      	add	sl, ip
    438a:	9b01      	ldr	r3, [sp, #4]
    438c:	042d      	lsls	r5, r5, #16
    438e:	1ace      	subs	r6, r1, r3
    4390:	4651      	mov	r1, sl
    4392:	4329      	orrs	r1, r5
    4394:	9d05      	ldr	r5, [sp, #20]
    4396:	464f      	mov	r7, r9
    4398:	002a      	movs	r2, r5
    439a:	040b      	lsls	r3, r1, #16
    439c:	0c08      	lsrs	r0, r1, #16
    439e:	0c1b      	lsrs	r3, r3, #16
    43a0:	435a      	muls	r2, r3
    43a2:	4345      	muls	r5, r0
    43a4:	437b      	muls	r3, r7
    43a6:	4378      	muls	r0, r7
    43a8:	195b      	adds	r3, r3, r5
    43aa:	0c17      	lsrs	r7, r2, #16
    43ac:	18fb      	adds	r3, r7, r3
    43ae:	429d      	cmp	r5, r3
    43b0:	d903      	bls.n	43ba <__aeabi_ddiv+0x3ba>
    43b2:	2580      	movs	r5, #128	; 0x80
    43b4:	026d      	lsls	r5, r5, #9
    43b6:	46ac      	mov	ip, r5
    43b8:	4460      	add	r0, ip
    43ba:	0c1d      	lsrs	r5, r3, #16
    43bc:	0412      	lsls	r2, r2, #16
    43be:	041b      	lsls	r3, r3, #16
    43c0:	0c12      	lsrs	r2, r2, #16
    43c2:	1828      	adds	r0, r5, r0
    43c4:	189b      	adds	r3, r3, r2
    43c6:	4286      	cmp	r6, r0
    43c8:	d200      	bcs.n	43cc <__aeabi_ddiv+0x3cc>
    43ca:	e093      	b.n	44f4 <__aeabi_ddiv+0x4f4>
    43cc:	d100      	bne.n	43d0 <__aeabi_ddiv+0x3d0>
    43ce:	e08e      	b.n	44ee <__aeabi_ddiv+0x4ee>
    43d0:	2301      	movs	r3, #1
    43d2:	4319      	orrs	r1, r3
    43d4:	4ba0      	ldr	r3, [pc, #640]	; (4658 <__aeabi_ddiv+0x658>)
    43d6:	18e3      	adds	r3, r4, r3
    43d8:	2b00      	cmp	r3, #0
    43da:	dc00      	bgt.n	43de <__aeabi_ddiv+0x3de>
    43dc:	e099      	b.n	4512 <__aeabi_ddiv+0x512>
    43de:	074a      	lsls	r2, r1, #29
    43e0:	d000      	beq.n	43e4 <__aeabi_ddiv+0x3e4>
    43e2:	e09e      	b.n	4522 <__aeabi_ddiv+0x522>
    43e4:	465a      	mov	r2, fp
    43e6:	01d2      	lsls	r2, r2, #7
    43e8:	d506      	bpl.n	43f8 <__aeabi_ddiv+0x3f8>
    43ea:	465a      	mov	r2, fp
    43ec:	4b9b      	ldr	r3, [pc, #620]	; (465c <__aeabi_ddiv+0x65c>)
    43ee:	401a      	ands	r2, r3
    43f0:	2380      	movs	r3, #128	; 0x80
    43f2:	4693      	mov	fp, r2
    43f4:	00db      	lsls	r3, r3, #3
    43f6:	18e3      	adds	r3, r4, r3
    43f8:	4a99      	ldr	r2, [pc, #612]	; (4660 <__aeabi_ddiv+0x660>)
    43fa:	4293      	cmp	r3, r2
    43fc:	dd68      	ble.n	44d0 <__aeabi_ddiv+0x4d0>
    43fe:	2301      	movs	r3, #1
    4400:	9a02      	ldr	r2, [sp, #8]
    4402:	4c98      	ldr	r4, [pc, #608]	; (4664 <__aeabi_ddiv+0x664>)
    4404:	401a      	ands	r2, r3
    4406:	2300      	movs	r3, #0
    4408:	4694      	mov	ip, r2
    440a:	4698      	mov	r8, r3
    440c:	2200      	movs	r2, #0
    440e:	e6c5      	b.n	419c <__aeabi_ddiv+0x19c>
    4410:	2280      	movs	r2, #128	; 0x80
    4412:	464b      	mov	r3, r9
    4414:	0312      	lsls	r2, r2, #12
    4416:	4213      	tst	r3, r2
    4418:	d00a      	beq.n	4430 <__aeabi_ddiv+0x430>
    441a:	465b      	mov	r3, fp
    441c:	4213      	tst	r3, r2
    441e:	d106      	bne.n	442e <__aeabi_ddiv+0x42e>
    4420:	431a      	orrs	r2, r3
    4422:	0312      	lsls	r2, r2, #12
    4424:	0b12      	lsrs	r2, r2, #12
    4426:	46ac      	mov	ip, r5
    4428:	4688      	mov	r8, r1
    442a:	4c8e      	ldr	r4, [pc, #568]	; (4664 <__aeabi_ddiv+0x664>)
    442c:	e6b6      	b.n	419c <__aeabi_ddiv+0x19c>
    442e:	464b      	mov	r3, r9
    4430:	431a      	orrs	r2, r3
    4432:	0312      	lsls	r2, r2, #12
    4434:	0b12      	lsrs	r2, r2, #12
    4436:	46bc      	mov	ip, r7
    4438:	4c8a      	ldr	r4, [pc, #552]	; (4664 <__aeabi_ddiv+0x664>)
    443a:	e6af      	b.n	419c <__aeabi_ddiv+0x19c>
    443c:	0003      	movs	r3, r0
    443e:	465a      	mov	r2, fp
    4440:	3b28      	subs	r3, #40	; 0x28
    4442:	409a      	lsls	r2, r3
    4444:	2300      	movs	r3, #0
    4446:	4691      	mov	r9, r2
    4448:	4698      	mov	r8, r3
    444a:	e657      	b.n	40fc <__aeabi_ddiv+0xfc>
    444c:	4658      	mov	r0, fp
    444e:	f001 f86f 	bl	5530 <__clzsi2>
    4452:	3020      	adds	r0, #32
    4454:	e640      	b.n	40d8 <__aeabi_ddiv+0xd8>
    4456:	0003      	movs	r3, r0
    4458:	4652      	mov	r2, sl
    445a:	3b28      	subs	r3, #40	; 0x28
    445c:	409a      	lsls	r2, r3
    445e:	2100      	movs	r1, #0
    4460:	4693      	mov	fp, r2
    4462:	e677      	b.n	4154 <__aeabi_ddiv+0x154>
    4464:	f001 f864 	bl	5530 <__clzsi2>
    4468:	3020      	adds	r0, #32
    446a:	e65f      	b.n	412c <__aeabi_ddiv+0x12c>
    446c:	4588      	cmp	r8, r1
    446e:	d200      	bcs.n	4472 <__aeabi_ddiv+0x472>
    4470:	e6c7      	b.n	4202 <__aeabi_ddiv+0x202>
    4472:	464b      	mov	r3, r9
    4474:	07de      	lsls	r6, r3, #31
    4476:	085d      	lsrs	r5, r3, #1
    4478:	4643      	mov	r3, r8
    447a:	085b      	lsrs	r3, r3, #1
    447c:	431e      	orrs	r6, r3
    447e:	4643      	mov	r3, r8
    4480:	07db      	lsls	r3, r3, #31
    4482:	469a      	mov	sl, r3
    4484:	e6c2      	b.n	420c <__aeabi_ddiv+0x20c>
    4486:	2500      	movs	r5, #0
    4488:	4592      	cmp	sl, r2
    448a:	d300      	bcc.n	448e <__aeabi_ddiv+0x48e>
    448c:	e733      	b.n	42f6 <__aeabi_ddiv+0x2f6>
    448e:	9e03      	ldr	r6, [sp, #12]
    4490:	4659      	mov	r1, fp
    4492:	46b4      	mov	ip, r6
    4494:	44e2      	add	sl, ip
    4496:	45b2      	cmp	sl, r6
    4498:	41ad      	sbcs	r5, r5
    449a:	426d      	negs	r5, r5
    449c:	4445      	add	r5, r8
    449e:	18eb      	adds	r3, r5, r3
    44a0:	3901      	subs	r1, #1
    44a2:	4598      	cmp	r8, r3
    44a4:	d207      	bcs.n	44b6 <__aeabi_ddiv+0x4b6>
    44a6:	4298      	cmp	r0, r3
    44a8:	d900      	bls.n	44ac <__aeabi_ddiv+0x4ac>
    44aa:	e07f      	b.n	45ac <__aeabi_ddiv+0x5ac>
    44ac:	d100      	bne.n	44b0 <__aeabi_ddiv+0x4b0>
    44ae:	e0bc      	b.n	462a <__aeabi_ddiv+0x62a>
    44b0:	1a1d      	subs	r5, r3, r0
    44b2:	468b      	mov	fp, r1
    44b4:	e71f      	b.n	42f6 <__aeabi_ddiv+0x2f6>
    44b6:	4598      	cmp	r8, r3
    44b8:	d1fa      	bne.n	44b0 <__aeabi_ddiv+0x4b0>
    44ba:	9d03      	ldr	r5, [sp, #12]
    44bc:	4555      	cmp	r5, sl
    44be:	d9f2      	bls.n	44a6 <__aeabi_ddiv+0x4a6>
    44c0:	4643      	mov	r3, r8
    44c2:	468b      	mov	fp, r1
    44c4:	1a1d      	subs	r5, r3, r0
    44c6:	e716      	b.n	42f6 <__aeabi_ddiv+0x2f6>
    44c8:	469b      	mov	fp, r3
    44ca:	e6ca      	b.n	4262 <__aeabi_ddiv+0x262>
    44cc:	0015      	movs	r5, r2
    44ce:	e6e7      	b.n	42a0 <__aeabi_ddiv+0x2a0>
    44d0:	465a      	mov	r2, fp
    44d2:	08c9      	lsrs	r1, r1, #3
    44d4:	0752      	lsls	r2, r2, #29
    44d6:	430a      	orrs	r2, r1
    44d8:	055b      	lsls	r3, r3, #21
    44da:	4690      	mov	r8, r2
    44dc:	0d5c      	lsrs	r4, r3, #21
    44de:	465a      	mov	r2, fp
    44e0:	2301      	movs	r3, #1
    44e2:	9902      	ldr	r1, [sp, #8]
    44e4:	0252      	lsls	r2, r2, #9
    44e6:	4019      	ands	r1, r3
    44e8:	0b12      	lsrs	r2, r2, #12
    44ea:	468c      	mov	ip, r1
    44ec:	e656      	b.n	419c <__aeabi_ddiv+0x19c>
    44ee:	2b00      	cmp	r3, #0
    44f0:	d100      	bne.n	44f4 <__aeabi_ddiv+0x4f4>
    44f2:	e76f      	b.n	43d4 <__aeabi_ddiv+0x3d4>
    44f4:	4446      	add	r6, r8
    44f6:	1e4a      	subs	r2, r1, #1
    44f8:	45b0      	cmp	r8, r6
    44fa:	d929      	bls.n	4550 <__aeabi_ddiv+0x550>
    44fc:	0011      	movs	r1, r2
    44fe:	4286      	cmp	r6, r0
    4500:	d000      	beq.n	4504 <__aeabi_ddiv+0x504>
    4502:	e765      	b.n	43d0 <__aeabi_ddiv+0x3d0>
    4504:	9a03      	ldr	r2, [sp, #12]
    4506:	4293      	cmp	r3, r2
    4508:	d000      	beq.n	450c <__aeabi_ddiv+0x50c>
    450a:	e761      	b.n	43d0 <__aeabi_ddiv+0x3d0>
    450c:	e762      	b.n	43d4 <__aeabi_ddiv+0x3d4>
    450e:	2101      	movs	r1, #1
    4510:	4249      	negs	r1, r1
    4512:	2001      	movs	r0, #1
    4514:	1ac2      	subs	r2, r0, r3
    4516:	2a38      	cmp	r2, #56	; 0x38
    4518:	dd21      	ble.n	455e <__aeabi_ddiv+0x55e>
    451a:	9b02      	ldr	r3, [sp, #8]
    451c:	4003      	ands	r3, r0
    451e:	469c      	mov	ip, r3
    4520:	e638      	b.n	4194 <__aeabi_ddiv+0x194>
    4522:	220f      	movs	r2, #15
    4524:	400a      	ands	r2, r1
    4526:	2a04      	cmp	r2, #4
    4528:	d100      	bne.n	452c <__aeabi_ddiv+0x52c>
    452a:	e75b      	b.n	43e4 <__aeabi_ddiv+0x3e4>
    452c:	000a      	movs	r2, r1
    452e:	1d11      	adds	r1, r2, #4
    4530:	4291      	cmp	r1, r2
    4532:	4192      	sbcs	r2, r2
    4534:	4252      	negs	r2, r2
    4536:	4493      	add	fp, r2
    4538:	e754      	b.n	43e4 <__aeabi_ddiv+0x3e4>
    453a:	4b47      	ldr	r3, [pc, #284]	; (4658 <__aeabi_ddiv+0x658>)
    453c:	18e3      	adds	r3, r4, r3
    453e:	2b00      	cmp	r3, #0
    4540:	dde5      	ble.n	450e <__aeabi_ddiv+0x50e>
    4542:	2201      	movs	r2, #1
    4544:	4252      	negs	r2, r2
    4546:	e7f2      	b.n	452e <__aeabi_ddiv+0x52e>
    4548:	001d      	movs	r5, r3
    454a:	e6fa      	b.n	4342 <__aeabi_ddiv+0x342>
    454c:	469a      	mov	sl, r3
    454e:	e71c      	b.n	438a <__aeabi_ddiv+0x38a>
    4550:	42b0      	cmp	r0, r6
    4552:	d839      	bhi.n	45c8 <__aeabi_ddiv+0x5c8>
    4554:	d06e      	beq.n	4634 <__aeabi_ddiv+0x634>
    4556:	0011      	movs	r1, r2
    4558:	e73a      	b.n	43d0 <__aeabi_ddiv+0x3d0>
    455a:	9302      	str	r3, [sp, #8]
    455c:	e73a      	b.n	43d4 <__aeabi_ddiv+0x3d4>
    455e:	2a1f      	cmp	r2, #31
    4560:	dc3c      	bgt.n	45dc <__aeabi_ddiv+0x5dc>
    4562:	2320      	movs	r3, #32
    4564:	1a9b      	subs	r3, r3, r2
    4566:	000c      	movs	r4, r1
    4568:	4658      	mov	r0, fp
    456a:	4099      	lsls	r1, r3
    456c:	4098      	lsls	r0, r3
    456e:	1e4b      	subs	r3, r1, #1
    4570:	4199      	sbcs	r1, r3
    4572:	465b      	mov	r3, fp
    4574:	40d4      	lsrs	r4, r2
    4576:	40d3      	lsrs	r3, r2
    4578:	4320      	orrs	r0, r4
    457a:	4308      	orrs	r0, r1
    457c:	001a      	movs	r2, r3
    457e:	0743      	lsls	r3, r0, #29
    4580:	d009      	beq.n	4596 <__aeabi_ddiv+0x596>
    4582:	230f      	movs	r3, #15
    4584:	4003      	ands	r3, r0
    4586:	2b04      	cmp	r3, #4
    4588:	d005      	beq.n	4596 <__aeabi_ddiv+0x596>
    458a:	0001      	movs	r1, r0
    458c:	1d08      	adds	r0, r1, #4
    458e:	4288      	cmp	r0, r1
    4590:	419b      	sbcs	r3, r3
    4592:	425b      	negs	r3, r3
    4594:	18d2      	adds	r2, r2, r3
    4596:	0213      	lsls	r3, r2, #8
    4598:	d53a      	bpl.n	4610 <__aeabi_ddiv+0x610>
    459a:	2301      	movs	r3, #1
    459c:	9a02      	ldr	r2, [sp, #8]
    459e:	2401      	movs	r4, #1
    45a0:	401a      	ands	r2, r3
    45a2:	2300      	movs	r3, #0
    45a4:	4694      	mov	ip, r2
    45a6:	4698      	mov	r8, r3
    45a8:	2200      	movs	r2, #0
    45aa:	e5f7      	b.n	419c <__aeabi_ddiv+0x19c>
    45ac:	2102      	movs	r1, #2
    45ae:	4249      	negs	r1, r1
    45b0:	468c      	mov	ip, r1
    45b2:	9d03      	ldr	r5, [sp, #12]
    45b4:	44e3      	add	fp, ip
    45b6:	46ac      	mov	ip, r5
    45b8:	44e2      	add	sl, ip
    45ba:	45aa      	cmp	sl, r5
    45bc:	41ad      	sbcs	r5, r5
    45be:	426d      	negs	r5, r5
    45c0:	4445      	add	r5, r8
    45c2:	18ed      	adds	r5, r5, r3
    45c4:	1a2d      	subs	r5, r5, r0
    45c6:	e696      	b.n	42f6 <__aeabi_ddiv+0x2f6>
    45c8:	1e8a      	subs	r2, r1, #2
    45ca:	9903      	ldr	r1, [sp, #12]
    45cc:	004d      	lsls	r5, r1, #1
    45ce:	428d      	cmp	r5, r1
    45d0:	4189      	sbcs	r1, r1
    45d2:	4249      	negs	r1, r1
    45d4:	4441      	add	r1, r8
    45d6:	1876      	adds	r6, r6, r1
    45d8:	9503      	str	r5, [sp, #12]
    45da:	e78f      	b.n	44fc <__aeabi_ddiv+0x4fc>
    45dc:	201f      	movs	r0, #31
    45de:	4240      	negs	r0, r0
    45e0:	1ac3      	subs	r3, r0, r3
    45e2:	4658      	mov	r0, fp
    45e4:	40d8      	lsrs	r0, r3
    45e6:	0003      	movs	r3, r0
    45e8:	2a20      	cmp	r2, #32
    45ea:	d028      	beq.n	463e <__aeabi_ddiv+0x63e>
    45ec:	2040      	movs	r0, #64	; 0x40
    45ee:	465d      	mov	r5, fp
    45f0:	1a82      	subs	r2, r0, r2
    45f2:	4095      	lsls	r5, r2
    45f4:	4329      	orrs	r1, r5
    45f6:	1e4a      	subs	r2, r1, #1
    45f8:	4191      	sbcs	r1, r2
    45fa:	4319      	orrs	r1, r3
    45fc:	2307      	movs	r3, #7
    45fe:	2200      	movs	r2, #0
    4600:	400b      	ands	r3, r1
    4602:	d009      	beq.n	4618 <__aeabi_ddiv+0x618>
    4604:	230f      	movs	r3, #15
    4606:	2200      	movs	r2, #0
    4608:	400b      	ands	r3, r1
    460a:	0008      	movs	r0, r1
    460c:	2b04      	cmp	r3, #4
    460e:	d1bd      	bne.n	458c <__aeabi_ddiv+0x58c>
    4610:	0001      	movs	r1, r0
    4612:	0753      	lsls	r3, r2, #29
    4614:	0252      	lsls	r2, r2, #9
    4616:	0b12      	lsrs	r2, r2, #12
    4618:	08c9      	lsrs	r1, r1, #3
    461a:	4319      	orrs	r1, r3
    461c:	2301      	movs	r3, #1
    461e:	4688      	mov	r8, r1
    4620:	9902      	ldr	r1, [sp, #8]
    4622:	2400      	movs	r4, #0
    4624:	4019      	ands	r1, r3
    4626:	468c      	mov	ip, r1
    4628:	e5b8      	b.n	419c <__aeabi_ddiv+0x19c>
    462a:	4552      	cmp	r2, sl
    462c:	d8be      	bhi.n	45ac <__aeabi_ddiv+0x5ac>
    462e:	468b      	mov	fp, r1
    4630:	2500      	movs	r5, #0
    4632:	e660      	b.n	42f6 <__aeabi_ddiv+0x2f6>
    4634:	9d03      	ldr	r5, [sp, #12]
    4636:	429d      	cmp	r5, r3
    4638:	d3c6      	bcc.n	45c8 <__aeabi_ddiv+0x5c8>
    463a:	0011      	movs	r1, r2
    463c:	e762      	b.n	4504 <__aeabi_ddiv+0x504>
    463e:	2500      	movs	r5, #0
    4640:	e7d8      	b.n	45f4 <__aeabi_ddiv+0x5f4>
    4642:	2280      	movs	r2, #128	; 0x80
    4644:	465b      	mov	r3, fp
    4646:	0312      	lsls	r2, r2, #12
    4648:	431a      	orrs	r2, r3
    464a:	9b01      	ldr	r3, [sp, #4]
    464c:	0312      	lsls	r2, r2, #12
    464e:	0b12      	lsrs	r2, r2, #12
    4650:	469c      	mov	ip, r3
    4652:	4688      	mov	r8, r1
    4654:	4c03      	ldr	r4, [pc, #12]	; (4664 <__aeabi_ddiv+0x664>)
    4656:	e5a1      	b.n	419c <__aeabi_ddiv+0x19c>
    4658:	000003ff 	.word	0x000003ff
    465c:	feffffff 	.word	0xfeffffff
    4660:	000007fe 	.word	0x000007fe
    4664:	000007ff 	.word	0x000007ff

00004668 <__eqdf2>:
    4668:	b5f0      	push	{r4, r5, r6, r7, lr}
    466a:	464f      	mov	r7, r9
    466c:	4646      	mov	r6, r8
    466e:	46d6      	mov	lr, sl
    4670:	005c      	lsls	r4, r3, #1
    4672:	b5c0      	push	{r6, r7, lr}
    4674:	031f      	lsls	r7, r3, #12
    4676:	0fdb      	lsrs	r3, r3, #31
    4678:	469a      	mov	sl, r3
    467a:	4b17      	ldr	r3, [pc, #92]	; (46d8 <__eqdf2+0x70>)
    467c:	030e      	lsls	r6, r1, #12
    467e:	004d      	lsls	r5, r1, #1
    4680:	4684      	mov	ip, r0
    4682:	4680      	mov	r8, r0
    4684:	0b36      	lsrs	r6, r6, #12
    4686:	0d6d      	lsrs	r5, r5, #21
    4688:	0fc9      	lsrs	r1, r1, #31
    468a:	4691      	mov	r9, r2
    468c:	0b3f      	lsrs	r7, r7, #12
    468e:	0d64      	lsrs	r4, r4, #21
    4690:	2001      	movs	r0, #1
    4692:	429d      	cmp	r5, r3
    4694:	d008      	beq.n	46a8 <__eqdf2+0x40>
    4696:	429c      	cmp	r4, r3
    4698:	d001      	beq.n	469e <__eqdf2+0x36>
    469a:	42a5      	cmp	r5, r4
    469c:	d00b      	beq.n	46b6 <__eqdf2+0x4e>
    469e:	bc1c      	pop	{r2, r3, r4}
    46a0:	4690      	mov	r8, r2
    46a2:	4699      	mov	r9, r3
    46a4:	46a2      	mov	sl, r4
    46a6:	bdf0      	pop	{r4, r5, r6, r7, pc}
    46a8:	4663      	mov	r3, ip
    46aa:	4333      	orrs	r3, r6
    46ac:	d1f7      	bne.n	469e <__eqdf2+0x36>
    46ae:	42ac      	cmp	r4, r5
    46b0:	d1f5      	bne.n	469e <__eqdf2+0x36>
    46b2:	433a      	orrs	r2, r7
    46b4:	d1f3      	bne.n	469e <__eqdf2+0x36>
    46b6:	2001      	movs	r0, #1
    46b8:	42be      	cmp	r6, r7
    46ba:	d1f0      	bne.n	469e <__eqdf2+0x36>
    46bc:	45c8      	cmp	r8, r9
    46be:	d1ee      	bne.n	469e <__eqdf2+0x36>
    46c0:	4551      	cmp	r1, sl
    46c2:	d007      	beq.n	46d4 <__eqdf2+0x6c>
    46c4:	2d00      	cmp	r5, #0
    46c6:	d1ea      	bne.n	469e <__eqdf2+0x36>
    46c8:	4663      	mov	r3, ip
    46ca:	431e      	orrs	r6, r3
    46cc:	0030      	movs	r0, r6
    46ce:	1e46      	subs	r6, r0, #1
    46d0:	41b0      	sbcs	r0, r6
    46d2:	e7e4      	b.n	469e <__eqdf2+0x36>
    46d4:	2000      	movs	r0, #0
    46d6:	e7e2      	b.n	469e <__eqdf2+0x36>
    46d8:	000007ff 	.word	0x000007ff

000046dc <__gedf2>:
    46dc:	b5f0      	push	{r4, r5, r6, r7, lr}
    46de:	4645      	mov	r5, r8
    46e0:	46de      	mov	lr, fp
    46e2:	4657      	mov	r7, sl
    46e4:	464e      	mov	r6, r9
    46e6:	b5e0      	push	{r5, r6, r7, lr}
    46e8:	031f      	lsls	r7, r3, #12
    46ea:	0b3d      	lsrs	r5, r7, #12
    46ec:	4f2c      	ldr	r7, [pc, #176]	; (47a0 <__gedf2+0xc4>)
    46ee:	030e      	lsls	r6, r1, #12
    46f0:	004c      	lsls	r4, r1, #1
    46f2:	46ab      	mov	fp, r5
    46f4:	005d      	lsls	r5, r3, #1
    46f6:	4684      	mov	ip, r0
    46f8:	0b36      	lsrs	r6, r6, #12
    46fa:	0d64      	lsrs	r4, r4, #21
    46fc:	0fc9      	lsrs	r1, r1, #31
    46fe:	4690      	mov	r8, r2
    4700:	0d6d      	lsrs	r5, r5, #21
    4702:	0fdb      	lsrs	r3, r3, #31
    4704:	42bc      	cmp	r4, r7
    4706:	d02a      	beq.n	475e <__gedf2+0x82>
    4708:	4f25      	ldr	r7, [pc, #148]	; (47a0 <__gedf2+0xc4>)
    470a:	42bd      	cmp	r5, r7
    470c:	d02d      	beq.n	476a <__gedf2+0x8e>
    470e:	2c00      	cmp	r4, #0
    4710:	d10f      	bne.n	4732 <__gedf2+0x56>
    4712:	4330      	orrs	r0, r6
    4714:	0007      	movs	r7, r0
    4716:	4681      	mov	r9, r0
    4718:	4278      	negs	r0, r7
    471a:	4178      	adcs	r0, r7
    471c:	b2c0      	uxtb	r0, r0
    471e:	2d00      	cmp	r5, #0
    4720:	d117      	bne.n	4752 <__gedf2+0x76>
    4722:	465f      	mov	r7, fp
    4724:	433a      	orrs	r2, r7
    4726:	d114      	bne.n	4752 <__gedf2+0x76>
    4728:	464b      	mov	r3, r9
    472a:	2000      	movs	r0, #0
    472c:	2b00      	cmp	r3, #0
    472e:	d00a      	beq.n	4746 <__gedf2+0x6a>
    4730:	e006      	b.n	4740 <__gedf2+0x64>
    4732:	2d00      	cmp	r5, #0
    4734:	d102      	bne.n	473c <__gedf2+0x60>
    4736:	4658      	mov	r0, fp
    4738:	4302      	orrs	r2, r0
    473a:	d001      	beq.n	4740 <__gedf2+0x64>
    473c:	4299      	cmp	r1, r3
    473e:	d018      	beq.n	4772 <__gedf2+0x96>
    4740:	4248      	negs	r0, r1
    4742:	2101      	movs	r1, #1
    4744:	4308      	orrs	r0, r1
    4746:	bc3c      	pop	{r2, r3, r4, r5}
    4748:	4690      	mov	r8, r2
    474a:	4699      	mov	r9, r3
    474c:	46a2      	mov	sl, r4
    474e:	46ab      	mov	fp, r5
    4750:	bdf0      	pop	{r4, r5, r6, r7, pc}
    4752:	2800      	cmp	r0, #0
    4754:	d0f2      	beq.n	473c <__gedf2+0x60>
    4756:	2001      	movs	r0, #1
    4758:	3b01      	subs	r3, #1
    475a:	4318      	orrs	r0, r3
    475c:	e7f3      	b.n	4746 <__gedf2+0x6a>
    475e:	0037      	movs	r7, r6
    4760:	4307      	orrs	r7, r0
    4762:	d0d1      	beq.n	4708 <__gedf2+0x2c>
    4764:	2002      	movs	r0, #2
    4766:	4240      	negs	r0, r0
    4768:	e7ed      	b.n	4746 <__gedf2+0x6a>
    476a:	465f      	mov	r7, fp
    476c:	4317      	orrs	r7, r2
    476e:	d0ce      	beq.n	470e <__gedf2+0x32>
    4770:	e7f8      	b.n	4764 <__gedf2+0x88>
    4772:	42ac      	cmp	r4, r5
    4774:	dce4      	bgt.n	4740 <__gedf2+0x64>
    4776:	da03      	bge.n	4780 <__gedf2+0xa4>
    4778:	1e48      	subs	r0, r1, #1
    477a:	2101      	movs	r1, #1
    477c:	4308      	orrs	r0, r1
    477e:	e7e2      	b.n	4746 <__gedf2+0x6a>
    4780:	455e      	cmp	r6, fp
    4782:	d8dd      	bhi.n	4740 <__gedf2+0x64>
    4784:	d006      	beq.n	4794 <__gedf2+0xb8>
    4786:	2000      	movs	r0, #0
    4788:	455e      	cmp	r6, fp
    478a:	d2dc      	bcs.n	4746 <__gedf2+0x6a>
    478c:	2301      	movs	r3, #1
    478e:	1e48      	subs	r0, r1, #1
    4790:	4318      	orrs	r0, r3
    4792:	e7d8      	b.n	4746 <__gedf2+0x6a>
    4794:	45c4      	cmp	ip, r8
    4796:	d8d3      	bhi.n	4740 <__gedf2+0x64>
    4798:	2000      	movs	r0, #0
    479a:	45c4      	cmp	ip, r8
    479c:	d3f6      	bcc.n	478c <__gedf2+0xb0>
    479e:	e7d2      	b.n	4746 <__gedf2+0x6a>
    47a0:	000007ff 	.word	0x000007ff

000047a4 <__ledf2>:
    47a4:	b5f0      	push	{r4, r5, r6, r7, lr}
    47a6:	464e      	mov	r6, r9
    47a8:	4645      	mov	r5, r8
    47aa:	46de      	mov	lr, fp
    47ac:	4657      	mov	r7, sl
    47ae:	005c      	lsls	r4, r3, #1
    47b0:	b5e0      	push	{r5, r6, r7, lr}
    47b2:	031f      	lsls	r7, r3, #12
    47b4:	0fdb      	lsrs	r3, r3, #31
    47b6:	4699      	mov	r9, r3
    47b8:	4b2a      	ldr	r3, [pc, #168]	; (4864 <__ledf2+0xc0>)
    47ba:	030e      	lsls	r6, r1, #12
    47bc:	004d      	lsls	r5, r1, #1
    47be:	0fc9      	lsrs	r1, r1, #31
    47c0:	4684      	mov	ip, r0
    47c2:	0b36      	lsrs	r6, r6, #12
    47c4:	0d6d      	lsrs	r5, r5, #21
    47c6:	468b      	mov	fp, r1
    47c8:	4690      	mov	r8, r2
    47ca:	0b3f      	lsrs	r7, r7, #12
    47cc:	0d64      	lsrs	r4, r4, #21
    47ce:	429d      	cmp	r5, r3
    47d0:	d020      	beq.n	4814 <__ledf2+0x70>
    47d2:	4b24      	ldr	r3, [pc, #144]	; (4864 <__ledf2+0xc0>)
    47d4:	429c      	cmp	r4, r3
    47d6:	d022      	beq.n	481e <__ledf2+0x7a>
    47d8:	2d00      	cmp	r5, #0
    47da:	d112      	bne.n	4802 <__ledf2+0x5e>
    47dc:	4330      	orrs	r0, r6
    47de:	4243      	negs	r3, r0
    47e0:	4143      	adcs	r3, r0
    47e2:	b2db      	uxtb	r3, r3
    47e4:	2c00      	cmp	r4, #0
    47e6:	d01f      	beq.n	4828 <__ledf2+0x84>
    47e8:	2b00      	cmp	r3, #0
    47ea:	d00c      	beq.n	4806 <__ledf2+0x62>
    47ec:	464b      	mov	r3, r9
    47ee:	2001      	movs	r0, #1
    47f0:	3b01      	subs	r3, #1
    47f2:	4303      	orrs	r3, r0
    47f4:	0018      	movs	r0, r3
    47f6:	bc3c      	pop	{r2, r3, r4, r5}
    47f8:	4690      	mov	r8, r2
    47fa:	4699      	mov	r9, r3
    47fc:	46a2      	mov	sl, r4
    47fe:	46ab      	mov	fp, r5
    4800:	bdf0      	pop	{r4, r5, r6, r7, pc}
    4802:	2c00      	cmp	r4, #0
    4804:	d016      	beq.n	4834 <__ledf2+0x90>
    4806:	45cb      	cmp	fp, r9
    4808:	d017      	beq.n	483a <__ledf2+0x96>
    480a:	465b      	mov	r3, fp
    480c:	4259      	negs	r1, r3
    480e:	2301      	movs	r3, #1
    4810:	430b      	orrs	r3, r1
    4812:	e7ef      	b.n	47f4 <__ledf2+0x50>
    4814:	0031      	movs	r1, r6
    4816:	2302      	movs	r3, #2
    4818:	4301      	orrs	r1, r0
    481a:	d1eb      	bne.n	47f4 <__ledf2+0x50>
    481c:	e7d9      	b.n	47d2 <__ledf2+0x2e>
    481e:	0039      	movs	r1, r7
    4820:	2302      	movs	r3, #2
    4822:	4311      	orrs	r1, r2
    4824:	d1e6      	bne.n	47f4 <__ledf2+0x50>
    4826:	e7d7      	b.n	47d8 <__ledf2+0x34>
    4828:	433a      	orrs	r2, r7
    482a:	d1dd      	bne.n	47e8 <__ledf2+0x44>
    482c:	2300      	movs	r3, #0
    482e:	2800      	cmp	r0, #0
    4830:	d0e0      	beq.n	47f4 <__ledf2+0x50>
    4832:	e7ea      	b.n	480a <__ledf2+0x66>
    4834:	433a      	orrs	r2, r7
    4836:	d1e6      	bne.n	4806 <__ledf2+0x62>
    4838:	e7e7      	b.n	480a <__ledf2+0x66>
    483a:	42a5      	cmp	r5, r4
    483c:	dce5      	bgt.n	480a <__ledf2+0x66>
    483e:	db05      	blt.n	484c <__ledf2+0xa8>
    4840:	42be      	cmp	r6, r7
    4842:	d8e2      	bhi.n	480a <__ledf2+0x66>
    4844:	d007      	beq.n	4856 <__ledf2+0xb2>
    4846:	2300      	movs	r3, #0
    4848:	42be      	cmp	r6, r7
    484a:	d2d3      	bcs.n	47f4 <__ledf2+0x50>
    484c:	4659      	mov	r1, fp
    484e:	2301      	movs	r3, #1
    4850:	3901      	subs	r1, #1
    4852:	430b      	orrs	r3, r1
    4854:	e7ce      	b.n	47f4 <__ledf2+0x50>
    4856:	45c4      	cmp	ip, r8
    4858:	d8d7      	bhi.n	480a <__ledf2+0x66>
    485a:	2300      	movs	r3, #0
    485c:	45c4      	cmp	ip, r8
    485e:	d3f5      	bcc.n	484c <__ledf2+0xa8>
    4860:	e7c8      	b.n	47f4 <__ledf2+0x50>
    4862:	46c0      	nop			; (mov r8, r8)
    4864:	000007ff 	.word	0x000007ff

00004868 <__aeabi_dmul>:
    4868:	b5f0      	push	{r4, r5, r6, r7, lr}
    486a:	4657      	mov	r7, sl
    486c:	4645      	mov	r5, r8
    486e:	46de      	mov	lr, fp
    4870:	464e      	mov	r6, r9
    4872:	b5e0      	push	{r5, r6, r7, lr}
    4874:	030c      	lsls	r4, r1, #12
    4876:	4698      	mov	r8, r3
    4878:	004e      	lsls	r6, r1, #1
    487a:	0b23      	lsrs	r3, r4, #12
    487c:	b087      	sub	sp, #28
    487e:	0007      	movs	r7, r0
    4880:	4692      	mov	sl, r2
    4882:	469b      	mov	fp, r3
    4884:	0d76      	lsrs	r6, r6, #21
    4886:	0fcd      	lsrs	r5, r1, #31
    4888:	2e00      	cmp	r6, #0
    488a:	d06b      	beq.n	4964 <__aeabi_dmul+0xfc>
    488c:	4b6d      	ldr	r3, [pc, #436]	; (4a44 <__aeabi_dmul+0x1dc>)
    488e:	429e      	cmp	r6, r3
    4890:	d035      	beq.n	48fe <__aeabi_dmul+0x96>
    4892:	2480      	movs	r4, #128	; 0x80
    4894:	465b      	mov	r3, fp
    4896:	0f42      	lsrs	r2, r0, #29
    4898:	0424      	lsls	r4, r4, #16
    489a:	00db      	lsls	r3, r3, #3
    489c:	4314      	orrs	r4, r2
    489e:	431c      	orrs	r4, r3
    48a0:	00c3      	lsls	r3, r0, #3
    48a2:	4699      	mov	r9, r3
    48a4:	4b68      	ldr	r3, [pc, #416]	; (4a48 <__aeabi_dmul+0x1e0>)
    48a6:	46a3      	mov	fp, r4
    48a8:	469c      	mov	ip, r3
    48aa:	2300      	movs	r3, #0
    48ac:	2700      	movs	r7, #0
    48ae:	4466      	add	r6, ip
    48b0:	9302      	str	r3, [sp, #8]
    48b2:	4643      	mov	r3, r8
    48b4:	031c      	lsls	r4, r3, #12
    48b6:	005a      	lsls	r2, r3, #1
    48b8:	0fdb      	lsrs	r3, r3, #31
    48ba:	4650      	mov	r0, sl
    48bc:	0b24      	lsrs	r4, r4, #12
    48be:	0d52      	lsrs	r2, r2, #21
    48c0:	4698      	mov	r8, r3
    48c2:	d100      	bne.n	48c6 <__aeabi_dmul+0x5e>
    48c4:	e076      	b.n	49b4 <__aeabi_dmul+0x14c>
    48c6:	4b5f      	ldr	r3, [pc, #380]	; (4a44 <__aeabi_dmul+0x1dc>)
    48c8:	429a      	cmp	r2, r3
    48ca:	d06d      	beq.n	49a8 <__aeabi_dmul+0x140>
    48cc:	2380      	movs	r3, #128	; 0x80
    48ce:	0f41      	lsrs	r1, r0, #29
    48d0:	041b      	lsls	r3, r3, #16
    48d2:	430b      	orrs	r3, r1
    48d4:	495c      	ldr	r1, [pc, #368]	; (4a48 <__aeabi_dmul+0x1e0>)
    48d6:	00e4      	lsls	r4, r4, #3
    48d8:	468c      	mov	ip, r1
    48da:	431c      	orrs	r4, r3
    48dc:	00c3      	lsls	r3, r0, #3
    48de:	2000      	movs	r0, #0
    48e0:	4462      	add	r2, ip
    48e2:	4641      	mov	r1, r8
    48e4:	18b6      	adds	r6, r6, r2
    48e6:	4069      	eors	r1, r5
    48e8:	1c72      	adds	r2, r6, #1
    48ea:	9101      	str	r1, [sp, #4]
    48ec:	4694      	mov	ip, r2
    48ee:	4307      	orrs	r7, r0
    48f0:	2f0f      	cmp	r7, #15
    48f2:	d900      	bls.n	48f6 <__aeabi_dmul+0x8e>
    48f4:	e0b0      	b.n	4a58 <__aeabi_dmul+0x1f0>
    48f6:	4a55      	ldr	r2, [pc, #340]	; (4a4c <__aeabi_dmul+0x1e4>)
    48f8:	00bf      	lsls	r7, r7, #2
    48fa:	59d2      	ldr	r2, [r2, r7]
    48fc:	4697      	mov	pc, r2
    48fe:	465b      	mov	r3, fp
    4900:	4303      	orrs	r3, r0
    4902:	4699      	mov	r9, r3
    4904:	d000      	beq.n	4908 <__aeabi_dmul+0xa0>
    4906:	e087      	b.n	4a18 <__aeabi_dmul+0x1b0>
    4908:	2300      	movs	r3, #0
    490a:	469b      	mov	fp, r3
    490c:	3302      	adds	r3, #2
    490e:	2708      	movs	r7, #8
    4910:	9302      	str	r3, [sp, #8]
    4912:	e7ce      	b.n	48b2 <__aeabi_dmul+0x4a>
    4914:	4642      	mov	r2, r8
    4916:	9201      	str	r2, [sp, #4]
    4918:	2802      	cmp	r0, #2
    491a:	d067      	beq.n	49ec <__aeabi_dmul+0x184>
    491c:	2803      	cmp	r0, #3
    491e:	d100      	bne.n	4922 <__aeabi_dmul+0xba>
    4920:	e20e      	b.n	4d40 <__aeabi_dmul+0x4d8>
    4922:	2801      	cmp	r0, #1
    4924:	d000      	beq.n	4928 <__aeabi_dmul+0xc0>
    4926:	e162      	b.n	4bee <__aeabi_dmul+0x386>
    4928:	2300      	movs	r3, #0
    492a:	2400      	movs	r4, #0
    492c:	2200      	movs	r2, #0
    492e:	4699      	mov	r9, r3
    4930:	9901      	ldr	r1, [sp, #4]
    4932:	4001      	ands	r1, r0
    4934:	b2cd      	uxtb	r5, r1
    4936:	2100      	movs	r1, #0
    4938:	0312      	lsls	r2, r2, #12
    493a:	0d0b      	lsrs	r3, r1, #20
    493c:	0b12      	lsrs	r2, r2, #12
    493e:	051b      	lsls	r3, r3, #20
    4940:	4313      	orrs	r3, r2
    4942:	4a43      	ldr	r2, [pc, #268]	; (4a50 <__aeabi_dmul+0x1e8>)
    4944:	0524      	lsls	r4, r4, #20
    4946:	4013      	ands	r3, r2
    4948:	431c      	orrs	r4, r3
    494a:	0064      	lsls	r4, r4, #1
    494c:	07ed      	lsls	r5, r5, #31
    494e:	0864      	lsrs	r4, r4, #1
    4950:	432c      	orrs	r4, r5
    4952:	4648      	mov	r0, r9
    4954:	0021      	movs	r1, r4
    4956:	b007      	add	sp, #28
    4958:	bc3c      	pop	{r2, r3, r4, r5}
    495a:	4690      	mov	r8, r2
    495c:	4699      	mov	r9, r3
    495e:	46a2      	mov	sl, r4
    4960:	46ab      	mov	fp, r5
    4962:	bdf0      	pop	{r4, r5, r6, r7, pc}
    4964:	4303      	orrs	r3, r0
    4966:	4699      	mov	r9, r3
    4968:	d04f      	beq.n	4a0a <__aeabi_dmul+0x1a2>
    496a:	465b      	mov	r3, fp
    496c:	2b00      	cmp	r3, #0
    496e:	d100      	bne.n	4972 <__aeabi_dmul+0x10a>
    4970:	e189      	b.n	4c86 <__aeabi_dmul+0x41e>
    4972:	4658      	mov	r0, fp
    4974:	f000 fddc 	bl	5530 <__clzsi2>
    4978:	0003      	movs	r3, r0
    497a:	3b0b      	subs	r3, #11
    497c:	2b1c      	cmp	r3, #28
    497e:	dd00      	ble.n	4982 <__aeabi_dmul+0x11a>
    4980:	e17a      	b.n	4c78 <__aeabi_dmul+0x410>
    4982:	221d      	movs	r2, #29
    4984:	1ad3      	subs	r3, r2, r3
    4986:	003a      	movs	r2, r7
    4988:	0001      	movs	r1, r0
    498a:	465c      	mov	r4, fp
    498c:	40da      	lsrs	r2, r3
    498e:	3908      	subs	r1, #8
    4990:	408c      	lsls	r4, r1
    4992:	0013      	movs	r3, r2
    4994:	408f      	lsls	r7, r1
    4996:	4323      	orrs	r3, r4
    4998:	469b      	mov	fp, r3
    499a:	46b9      	mov	r9, r7
    499c:	2300      	movs	r3, #0
    499e:	4e2d      	ldr	r6, [pc, #180]	; (4a54 <__aeabi_dmul+0x1ec>)
    49a0:	2700      	movs	r7, #0
    49a2:	1a36      	subs	r6, r6, r0
    49a4:	9302      	str	r3, [sp, #8]
    49a6:	e784      	b.n	48b2 <__aeabi_dmul+0x4a>
    49a8:	4653      	mov	r3, sl
    49aa:	4323      	orrs	r3, r4
    49ac:	d12a      	bne.n	4a04 <__aeabi_dmul+0x19c>
    49ae:	2400      	movs	r4, #0
    49b0:	2002      	movs	r0, #2
    49b2:	e796      	b.n	48e2 <__aeabi_dmul+0x7a>
    49b4:	4653      	mov	r3, sl
    49b6:	4323      	orrs	r3, r4
    49b8:	d020      	beq.n	49fc <__aeabi_dmul+0x194>
    49ba:	2c00      	cmp	r4, #0
    49bc:	d100      	bne.n	49c0 <__aeabi_dmul+0x158>
    49be:	e157      	b.n	4c70 <__aeabi_dmul+0x408>
    49c0:	0020      	movs	r0, r4
    49c2:	f000 fdb5 	bl	5530 <__clzsi2>
    49c6:	0003      	movs	r3, r0
    49c8:	3b0b      	subs	r3, #11
    49ca:	2b1c      	cmp	r3, #28
    49cc:	dd00      	ble.n	49d0 <__aeabi_dmul+0x168>
    49ce:	e149      	b.n	4c64 <__aeabi_dmul+0x3fc>
    49d0:	211d      	movs	r1, #29
    49d2:	1acb      	subs	r3, r1, r3
    49d4:	4651      	mov	r1, sl
    49d6:	0002      	movs	r2, r0
    49d8:	40d9      	lsrs	r1, r3
    49da:	4653      	mov	r3, sl
    49dc:	3a08      	subs	r2, #8
    49de:	4094      	lsls	r4, r2
    49e0:	4093      	lsls	r3, r2
    49e2:	430c      	orrs	r4, r1
    49e4:	4a1b      	ldr	r2, [pc, #108]	; (4a54 <__aeabi_dmul+0x1ec>)
    49e6:	1a12      	subs	r2, r2, r0
    49e8:	2000      	movs	r0, #0
    49ea:	e77a      	b.n	48e2 <__aeabi_dmul+0x7a>
    49ec:	2501      	movs	r5, #1
    49ee:	9b01      	ldr	r3, [sp, #4]
    49f0:	4c14      	ldr	r4, [pc, #80]	; (4a44 <__aeabi_dmul+0x1dc>)
    49f2:	401d      	ands	r5, r3
    49f4:	2300      	movs	r3, #0
    49f6:	2200      	movs	r2, #0
    49f8:	4699      	mov	r9, r3
    49fa:	e79c      	b.n	4936 <__aeabi_dmul+0xce>
    49fc:	2400      	movs	r4, #0
    49fe:	2200      	movs	r2, #0
    4a00:	2001      	movs	r0, #1
    4a02:	e76e      	b.n	48e2 <__aeabi_dmul+0x7a>
    4a04:	4653      	mov	r3, sl
    4a06:	2003      	movs	r0, #3
    4a08:	e76b      	b.n	48e2 <__aeabi_dmul+0x7a>
    4a0a:	2300      	movs	r3, #0
    4a0c:	469b      	mov	fp, r3
    4a0e:	3301      	adds	r3, #1
    4a10:	2704      	movs	r7, #4
    4a12:	2600      	movs	r6, #0
    4a14:	9302      	str	r3, [sp, #8]
    4a16:	e74c      	b.n	48b2 <__aeabi_dmul+0x4a>
    4a18:	2303      	movs	r3, #3
    4a1a:	4681      	mov	r9, r0
    4a1c:	270c      	movs	r7, #12
    4a1e:	9302      	str	r3, [sp, #8]
    4a20:	e747      	b.n	48b2 <__aeabi_dmul+0x4a>
    4a22:	2280      	movs	r2, #128	; 0x80
    4a24:	2300      	movs	r3, #0
    4a26:	2500      	movs	r5, #0
    4a28:	0312      	lsls	r2, r2, #12
    4a2a:	4699      	mov	r9, r3
    4a2c:	4c05      	ldr	r4, [pc, #20]	; (4a44 <__aeabi_dmul+0x1dc>)
    4a2e:	e782      	b.n	4936 <__aeabi_dmul+0xce>
    4a30:	465c      	mov	r4, fp
    4a32:	464b      	mov	r3, r9
    4a34:	9802      	ldr	r0, [sp, #8]
    4a36:	e76f      	b.n	4918 <__aeabi_dmul+0xb0>
    4a38:	465c      	mov	r4, fp
    4a3a:	464b      	mov	r3, r9
    4a3c:	9501      	str	r5, [sp, #4]
    4a3e:	9802      	ldr	r0, [sp, #8]
    4a40:	e76a      	b.n	4918 <__aeabi_dmul+0xb0>
    4a42:	46c0      	nop			; (mov r8, r8)
    4a44:	000007ff 	.word	0x000007ff
    4a48:	fffffc01 	.word	0xfffffc01
    4a4c:	00005980 	.word	0x00005980
    4a50:	800fffff 	.word	0x800fffff
    4a54:	fffffc0d 	.word	0xfffffc0d
    4a58:	464a      	mov	r2, r9
    4a5a:	4649      	mov	r1, r9
    4a5c:	0c17      	lsrs	r7, r2, #16
    4a5e:	0c1a      	lsrs	r2, r3, #16
    4a60:	041b      	lsls	r3, r3, #16
    4a62:	0c1b      	lsrs	r3, r3, #16
    4a64:	0408      	lsls	r0, r1, #16
    4a66:	0019      	movs	r1, r3
    4a68:	0c00      	lsrs	r0, r0, #16
    4a6a:	4341      	muls	r1, r0
    4a6c:	0015      	movs	r5, r2
    4a6e:	4688      	mov	r8, r1
    4a70:	0019      	movs	r1, r3
    4a72:	437d      	muls	r5, r7
    4a74:	4379      	muls	r1, r7
    4a76:	9503      	str	r5, [sp, #12]
    4a78:	4689      	mov	r9, r1
    4a7a:	0029      	movs	r1, r5
    4a7c:	0015      	movs	r5, r2
    4a7e:	4345      	muls	r5, r0
    4a80:	444d      	add	r5, r9
    4a82:	9502      	str	r5, [sp, #8]
    4a84:	4645      	mov	r5, r8
    4a86:	0c2d      	lsrs	r5, r5, #16
    4a88:	46aa      	mov	sl, r5
    4a8a:	9d02      	ldr	r5, [sp, #8]
    4a8c:	4455      	add	r5, sl
    4a8e:	45a9      	cmp	r9, r5
    4a90:	d906      	bls.n	4aa0 <__aeabi_dmul+0x238>
    4a92:	468a      	mov	sl, r1
    4a94:	2180      	movs	r1, #128	; 0x80
    4a96:	0249      	lsls	r1, r1, #9
    4a98:	4689      	mov	r9, r1
    4a9a:	44ca      	add	sl, r9
    4a9c:	4651      	mov	r1, sl
    4a9e:	9103      	str	r1, [sp, #12]
    4aa0:	0c29      	lsrs	r1, r5, #16
    4aa2:	9104      	str	r1, [sp, #16]
    4aa4:	4641      	mov	r1, r8
    4aa6:	0409      	lsls	r1, r1, #16
    4aa8:	042d      	lsls	r5, r5, #16
    4aaa:	0c09      	lsrs	r1, r1, #16
    4aac:	4688      	mov	r8, r1
    4aae:	0029      	movs	r1, r5
    4ab0:	0c25      	lsrs	r5, r4, #16
    4ab2:	0424      	lsls	r4, r4, #16
    4ab4:	4441      	add	r1, r8
    4ab6:	0c24      	lsrs	r4, r4, #16
    4ab8:	9105      	str	r1, [sp, #20]
    4aba:	0021      	movs	r1, r4
    4abc:	4341      	muls	r1, r0
    4abe:	4688      	mov	r8, r1
    4ac0:	0021      	movs	r1, r4
    4ac2:	4379      	muls	r1, r7
    4ac4:	468a      	mov	sl, r1
    4ac6:	4368      	muls	r0, r5
    4ac8:	4641      	mov	r1, r8
    4aca:	4450      	add	r0, sl
    4acc:	4681      	mov	r9, r0
    4ace:	0c08      	lsrs	r0, r1, #16
    4ad0:	4448      	add	r0, r9
    4ad2:	436f      	muls	r7, r5
    4ad4:	4582      	cmp	sl, r0
    4ad6:	d903      	bls.n	4ae0 <__aeabi_dmul+0x278>
    4ad8:	2180      	movs	r1, #128	; 0x80
    4ada:	0249      	lsls	r1, r1, #9
    4adc:	4689      	mov	r9, r1
    4ade:	444f      	add	r7, r9
    4ae0:	0c01      	lsrs	r1, r0, #16
    4ae2:	4689      	mov	r9, r1
    4ae4:	0039      	movs	r1, r7
    4ae6:	4449      	add	r1, r9
    4ae8:	9102      	str	r1, [sp, #8]
    4aea:	4641      	mov	r1, r8
    4aec:	040f      	lsls	r7, r1, #16
    4aee:	9904      	ldr	r1, [sp, #16]
    4af0:	0c3f      	lsrs	r7, r7, #16
    4af2:	4688      	mov	r8, r1
    4af4:	0400      	lsls	r0, r0, #16
    4af6:	19c0      	adds	r0, r0, r7
    4af8:	4480      	add	r8, r0
    4afa:	4641      	mov	r1, r8
    4afc:	9104      	str	r1, [sp, #16]
    4afe:	4659      	mov	r1, fp
    4b00:	0c0f      	lsrs	r7, r1, #16
    4b02:	0409      	lsls	r1, r1, #16
    4b04:	0c09      	lsrs	r1, r1, #16
    4b06:	4688      	mov	r8, r1
    4b08:	4359      	muls	r1, r3
    4b0a:	468a      	mov	sl, r1
    4b0c:	0039      	movs	r1, r7
    4b0e:	4351      	muls	r1, r2
    4b10:	4689      	mov	r9, r1
    4b12:	4641      	mov	r1, r8
    4b14:	434a      	muls	r2, r1
    4b16:	4651      	mov	r1, sl
    4b18:	0c09      	lsrs	r1, r1, #16
    4b1a:	468b      	mov	fp, r1
    4b1c:	437b      	muls	r3, r7
    4b1e:	18d2      	adds	r2, r2, r3
    4b20:	445a      	add	r2, fp
    4b22:	4293      	cmp	r3, r2
    4b24:	d903      	bls.n	4b2e <__aeabi_dmul+0x2c6>
    4b26:	2380      	movs	r3, #128	; 0x80
    4b28:	025b      	lsls	r3, r3, #9
    4b2a:	469b      	mov	fp, r3
    4b2c:	44d9      	add	r9, fp
    4b2e:	4651      	mov	r1, sl
    4b30:	0409      	lsls	r1, r1, #16
    4b32:	0c09      	lsrs	r1, r1, #16
    4b34:	468a      	mov	sl, r1
    4b36:	4641      	mov	r1, r8
    4b38:	4361      	muls	r1, r4
    4b3a:	437c      	muls	r4, r7
    4b3c:	0c13      	lsrs	r3, r2, #16
    4b3e:	0412      	lsls	r2, r2, #16
    4b40:	444b      	add	r3, r9
    4b42:	4452      	add	r2, sl
    4b44:	46a1      	mov	r9, r4
    4b46:	468a      	mov	sl, r1
    4b48:	003c      	movs	r4, r7
    4b4a:	4641      	mov	r1, r8
    4b4c:	436c      	muls	r4, r5
    4b4e:	434d      	muls	r5, r1
    4b50:	4651      	mov	r1, sl
    4b52:	444d      	add	r5, r9
    4b54:	0c0f      	lsrs	r7, r1, #16
    4b56:	197d      	adds	r5, r7, r5
    4b58:	45a9      	cmp	r9, r5
    4b5a:	d903      	bls.n	4b64 <__aeabi_dmul+0x2fc>
    4b5c:	2180      	movs	r1, #128	; 0x80
    4b5e:	0249      	lsls	r1, r1, #9
    4b60:	4688      	mov	r8, r1
    4b62:	4444      	add	r4, r8
    4b64:	9f04      	ldr	r7, [sp, #16]
    4b66:	9903      	ldr	r1, [sp, #12]
    4b68:	46b8      	mov	r8, r7
    4b6a:	4441      	add	r1, r8
    4b6c:	468b      	mov	fp, r1
    4b6e:	4583      	cmp	fp, r0
    4b70:	4180      	sbcs	r0, r0
    4b72:	4241      	negs	r1, r0
    4b74:	4688      	mov	r8, r1
    4b76:	4651      	mov	r1, sl
    4b78:	0408      	lsls	r0, r1, #16
    4b7a:	042f      	lsls	r7, r5, #16
    4b7c:	0c00      	lsrs	r0, r0, #16
    4b7e:	183f      	adds	r7, r7, r0
    4b80:	4658      	mov	r0, fp
    4b82:	9902      	ldr	r1, [sp, #8]
    4b84:	1810      	adds	r0, r2, r0
    4b86:	4689      	mov	r9, r1
    4b88:	4290      	cmp	r0, r2
    4b8a:	4192      	sbcs	r2, r2
    4b8c:	444f      	add	r7, r9
    4b8e:	46ba      	mov	sl, r7
    4b90:	4252      	negs	r2, r2
    4b92:	4699      	mov	r9, r3
    4b94:	4693      	mov	fp, r2
    4b96:	44c2      	add	sl, r8
    4b98:	44d1      	add	r9, sl
    4b9a:	44cb      	add	fp, r9
    4b9c:	428f      	cmp	r7, r1
    4b9e:	41bf      	sbcs	r7, r7
    4ba0:	45c2      	cmp	sl, r8
    4ba2:	4189      	sbcs	r1, r1
    4ba4:	4599      	cmp	r9, r3
    4ba6:	419b      	sbcs	r3, r3
    4ba8:	4593      	cmp	fp, r2
    4baa:	4192      	sbcs	r2, r2
    4bac:	427f      	negs	r7, r7
    4bae:	4249      	negs	r1, r1
    4bb0:	0c2d      	lsrs	r5, r5, #16
    4bb2:	4252      	negs	r2, r2
    4bb4:	430f      	orrs	r7, r1
    4bb6:	425b      	negs	r3, r3
    4bb8:	4313      	orrs	r3, r2
    4bba:	197f      	adds	r7, r7, r5
    4bbc:	18ff      	adds	r7, r7, r3
    4bbe:	465b      	mov	r3, fp
    4bc0:	193c      	adds	r4, r7, r4
    4bc2:	0ddb      	lsrs	r3, r3, #23
    4bc4:	9a05      	ldr	r2, [sp, #20]
    4bc6:	0264      	lsls	r4, r4, #9
    4bc8:	431c      	orrs	r4, r3
    4bca:	0243      	lsls	r3, r0, #9
    4bcc:	4313      	orrs	r3, r2
    4bce:	1e5d      	subs	r5, r3, #1
    4bd0:	41ab      	sbcs	r3, r5
    4bd2:	465a      	mov	r2, fp
    4bd4:	0dc0      	lsrs	r0, r0, #23
    4bd6:	4303      	orrs	r3, r0
    4bd8:	0252      	lsls	r2, r2, #9
    4bda:	4313      	orrs	r3, r2
    4bdc:	01e2      	lsls	r2, r4, #7
    4bde:	d556      	bpl.n	4c8e <__aeabi_dmul+0x426>
    4be0:	2001      	movs	r0, #1
    4be2:	085a      	lsrs	r2, r3, #1
    4be4:	4003      	ands	r3, r0
    4be6:	4313      	orrs	r3, r2
    4be8:	07e2      	lsls	r2, r4, #31
    4bea:	4313      	orrs	r3, r2
    4bec:	0864      	lsrs	r4, r4, #1
    4bee:	485a      	ldr	r0, [pc, #360]	; (4d58 <__aeabi_dmul+0x4f0>)
    4bf0:	4460      	add	r0, ip
    4bf2:	2800      	cmp	r0, #0
    4bf4:	dd4d      	ble.n	4c92 <__aeabi_dmul+0x42a>
    4bf6:	075a      	lsls	r2, r3, #29
    4bf8:	d009      	beq.n	4c0e <__aeabi_dmul+0x3a6>
    4bfa:	220f      	movs	r2, #15
    4bfc:	401a      	ands	r2, r3
    4bfe:	2a04      	cmp	r2, #4
    4c00:	d005      	beq.n	4c0e <__aeabi_dmul+0x3a6>
    4c02:	1d1a      	adds	r2, r3, #4
    4c04:	429a      	cmp	r2, r3
    4c06:	419b      	sbcs	r3, r3
    4c08:	425b      	negs	r3, r3
    4c0a:	18e4      	adds	r4, r4, r3
    4c0c:	0013      	movs	r3, r2
    4c0e:	01e2      	lsls	r2, r4, #7
    4c10:	d504      	bpl.n	4c1c <__aeabi_dmul+0x3b4>
    4c12:	2080      	movs	r0, #128	; 0x80
    4c14:	4a51      	ldr	r2, [pc, #324]	; (4d5c <__aeabi_dmul+0x4f4>)
    4c16:	00c0      	lsls	r0, r0, #3
    4c18:	4014      	ands	r4, r2
    4c1a:	4460      	add	r0, ip
    4c1c:	4a50      	ldr	r2, [pc, #320]	; (4d60 <__aeabi_dmul+0x4f8>)
    4c1e:	4290      	cmp	r0, r2
    4c20:	dd00      	ble.n	4c24 <__aeabi_dmul+0x3bc>
    4c22:	e6e3      	b.n	49ec <__aeabi_dmul+0x184>
    4c24:	2501      	movs	r5, #1
    4c26:	08db      	lsrs	r3, r3, #3
    4c28:	0762      	lsls	r2, r4, #29
    4c2a:	431a      	orrs	r2, r3
    4c2c:	0264      	lsls	r4, r4, #9
    4c2e:	9b01      	ldr	r3, [sp, #4]
    4c30:	4691      	mov	r9, r2
    4c32:	0b22      	lsrs	r2, r4, #12
    4c34:	0544      	lsls	r4, r0, #21
    4c36:	0d64      	lsrs	r4, r4, #21
    4c38:	401d      	ands	r5, r3
    4c3a:	e67c      	b.n	4936 <__aeabi_dmul+0xce>
    4c3c:	2280      	movs	r2, #128	; 0x80
    4c3e:	4659      	mov	r1, fp
    4c40:	0312      	lsls	r2, r2, #12
    4c42:	4211      	tst	r1, r2
    4c44:	d008      	beq.n	4c58 <__aeabi_dmul+0x3f0>
    4c46:	4214      	tst	r4, r2
    4c48:	d106      	bne.n	4c58 <__aeabi_dmul+0x3f0>
    4c4a:	4322      	orrs	r2, r4
    4c4c:	0312      	lsls	r2, r2, #12
    4c4e:	0b12      	lsrs	r2, r2, #12
    4c50:	4645      	mov	r5, r8
    4c52:	4699      	mov	r9, r3
    4c54:	4c43      	ldr	r4, [pc, #268]	; (4d64 <__aeabi_dmul+0x4fc>)
    4c56:	e66e      	b.n	4936 <__aeabi_dmul+0xce>
    4c58:	465b      	mov	r3, fp
    4c5a:	431a      	orrs	r2, r3
    4c5c:	0312      	lsls	r2, r2, #12
    4c5e:	0b12      	lsrs	r2, r2, #12
    4c60:	4c40      	ldr	r4, [pc, #256]	; (4d64 <__aeabi_dmul+0x4fc>)
    4c62:	e668      	b.n	4936 <__aeabi_dmul+0xce>
    4c64:	0003      	movs	r3, r0
    4c66:	4654      	mov	r4, sl
    4c68:	3b28      	subs	r3, #40	; 0x28
    4c6a:	409c      	lsls	r4, r3
    4c6c:	2300      	movs	r3, #0
    4c6e:	e6b9      	b.n	49e4 <__aeabi_dmul+0x17c>
    4c70:	f000 fc5e 	bl	5530 <__clzsi2>
    4c74:	3020      	adds	r0, #32
    4c76:	e6a6      	b.n	49c6 <__aeabi_dmul+0x15e>
    4c78:	0003      	movs	r3, r0
    4c7a:	3b28      	subs	r3, #40	; 0x28
    4c7c:	409f      	lsls	r7, r3
    4c7e:	2300      	movs	r3, #0
    4c80:	46bb      	mov	fp, r7
    4c82:	4699      	mov	r9, r3
    4c84:	e68a      	b.n	499c <__aeabi_dmul+0x134>
    4c86:	f000 fc53 	bl	5530 <__clzsi2>
    4c8a:	3020      	adds	r0, #32
    4c8c:	e674      	b.n	4978 <__aeabi_dmul+0x110>
    4c8e:	46b4      	mov	ip, r6
    4c90:	e7ad      	b.n	4bee <__aeabi_dmul+0x386>
    4c92:	2501      	movs	r5, #1
    4c94:	1a2a      	subs	r2, r5, r0
    4c96:	2a38      	cmp	r2, #56	; 0x38
    4c98:	dd06      	ble.n	4ca8 <__aeabi_dmul+0x440>
    4c9a:	9b01      	ldr	r3, [sp, #4]
    4c9c:	2400      	movs	r4, #0
    4c9e:	401d      	ands	r5, r3
    4ca0:	2300      	movs	r3, #0
    4ca2:	2200      	movs	r2, #0
    4ca4:	4699      	mov	r9, r3
    4ca6:	e646      	b.n	4936 <__aeabi_dmul+0xce>
    4ca8:	2a1f      	cmp	r2, #31
    4caa:	dc21      	bgt.n	4cf0 <__aeabi_dmul+0x488>
    4cac:	2520      	movs	r5, #32
    4cae:	0020      	movs	r0, r4
    4cb0:	1aad      	subs	r5, r5, r2
    4cb2:	001e      	movs	r6, r3
    4cb4:	40ab      	lsls	r3, r5
    4cb6:	40a8      	lsls	r0, r5
    4cb8:	40d6      	lsrs	r6, r2
    4cba:	1e5d      	subs	r5, r3, #1
    4cbc:	41ab      	sbcs	r3, r5
    4cbe:	4330      	orrs	r0, r6
    4cc0:	4318      	orrs	r0, r3
    4cc2:	40d4      	lsrs	r4, r2
    4cc4:	0743      	lsls	r3, r0, #29
    4cc6:	d009      	beq.n	4cdc <__aeabi_dmul+0x474>
    4cc8:	230f      	movs	r3, #15
    4cca:	4003      	ands	r3, r0
    4ccc:	2b04      	cmp	r3, #4
    4cce:	d005      	beq.n	4cdc <__aeabi_dmul+0x474>
    4cd0:	0003      	movs	r3, r0
    4cd2:	1d18      	adds	r0, r3, #4
    4cd4:	4298      	cmp	r0, r3
    4cd6:	419b      	sbcs	r3, r3
    4cd8:	425b      	negs	r3, r3
    4cda:	18e4      	adds	r4, r4, r3
    4cdc:	0223      	lsls	r3, r4, #8
    4cde:	d521      	bpl.n	4d24 <__aeabi_dmul+0x4bc>
    4ce0:	2501      	movs	r5, #1
    4ce2:	9b01      	ldr	r3, [sp, #4]
    4ce4:	2401      	movs	r4, #1
    4ce6:	401d      	ands	r5, r3
    4ce8:	2300      	movs	r3, #0
    4cea:	2200      	movs	r2, #0
    4cec:	4699      	mov	r9, r3
    4cee:	e622      	b.n	4936 <__aeabi_dmul+0xce>
    4cf0:	251f      	movs	r5, #31
    4cf2:	0021      	movs	r1, r4
    4cf4:	426d      	negs	r5, r5
    4cf6:	1a28      	subs	r0, r5, r0
    4cf8:	40c1      	lsrs	r1, r0
    4cfa:	0008      	movs	r0, r1
    4cfc:	2a20      	cmp	r2, #32
    4cfe:	d01d      	beq.n	4d3c <__aeabi_dmul+0x4d4>
    4d00:	355f      	adds	r5, #95	; 0x5f
    4d02:	1aaa      	subs	r2, r5, r2
    4d04:	4094      	lsls	r4, r2
    4d06:	4323      	orrs	r3, r4
    4d08:	1e5c      	subs	r4, r3, #1
    4d0a:	41a3      	sbcs	r3, r4
    4d0c:	2507      	movs	r5, #7
    4d0e:	4303      	orrs	r3, r0
    4d10:	401d      	ands	r5, r3
    4d12:	2200      	movs	r2, #0
    4d14:	2d00      	cmp	r5, #0
    4d16:	d009      	beq.n	4d2c <__aeabi_dmul+0x4c4>
    4d18:	220f      	movs	r2, #15
    4d1a:	2400      	movs	r4, #0
    4d1c:	401a      	ands	r2, r3
    4d1e:	0018      	movs	r0, r3
    4d20:	2a04      	cmp	r2, #4
    4d22:	d1d6      	bne.n	4cd2 <__aeabi_dmul+0x46a>
    4d24:	0003      	movs	r3, r0
    4d26:	0765      	lsls	r5, r4, #29
    4d28:	0264      	lsls	r4, r4, #9
    4d2a:	0b22      	lsrs	r2, r4, #12
    4d2c:	08db      	lsrs	r3, r3, #3
    4d2e:	432b      	orrs	r3, r5
    4d30:	2501      	movs	r5, #1
    4d32:	4699      	mov	r9, r3
    4d34:	9b01      	ldr	r3, [sp, #4]
    4d36:	2400      	movs	r4, #0
    4d38:	401d      	ands	r5, r3
    4d3a:	e5fc      	b.n	4936 <__aeabi_dmul+0xce>
    4d3c:	2400      	movs	r4, #0
    4d3e:	e7e2      	b.n	4d06 <__aeabi_dmul+0x49e>
    4d40:	2280      	movs	r2, #128	; 0x80
    4d42:	2501      	movs	r5, #1
    4d44:	0312      	lsls	r2, r2, #12
    4d46:	4322      	orrs	r2, r4
    4d48:	9901      	ldr	r1, [sp, #4]
    4d4a:	0312      	lsls	r2, r2, #12
    4d4c:	0b12      	lsrs	r2, r2, #12
    4d4e:	400d      	ands	r5, r1
    4d50:	4699      	mov	r9, r3
    4d52:	4c04      	ldr	r4, [pc, #16]	; (4d64 <__aeabi_dmul+0x4fc>)
    4d54:	e5ef      	b.n	4936 <__aeabi_dmul+0xce>
    4d56:	46c0      	nop			; (mov r8, r8)
    4d58:	000003ff 	.word	0x000003ff
    4d5c:	feffffff 	.word	0xfeffffff
    4d60:	000007fe 	.word	0x000007fe
    4d64:	000007ff 	.word	0x000007ff

00004d68 <__aeabi_dsub>:
    4d68:	b5f0      	push	{r4, r5, r6, r7, lr}
    4d6a:	4646      	mov	r6, r8
    4d6c:	46d6      	mov	lr, sl
    4d6e:	464f      	mov	r7, r9
    4d70:	030c      	lsls	r4, r1, #12
    4d72:	b5c0      	push	{r6, r7, lr}
    4d74:	0fcd      	lsrs	r5, r1, #31
    4d76:	004e      	lsls	r6, r1, #1
    4d78:	0a61      	lsrs	r1, r4, #9
    4d7a:	0f44      	lsrs	r4, r0, #29
    4d7c:	430c      	orrs	r4, r1
    4d7e:	00c1      	lsls	r1, r0, #3
    4d80:	0058      	lsls	r0, r3, #1
    4d82:	0d40      	lsrs	r0, r0, #21
    4d84:	4684      	mov	ip, r0
    4d86:	468a      	mov	sl, r1
    4d88:	000f      	movs	r7, r1
    4d8a:	0319      	lsls	r1, r3, #12
    4d8c:	0f50      	lsrs	r0, r2, #29
    4d8e:	0a49      	lsrs	r1, r1, #9
    4d90:	4301      	orrs	r1, r0
    4d92:	48c6      	ldr	r0, [pc, #792]	; (50ac <__aeabi_dsub+0x344>)
    4d94:	0d76      	lsrs	r6, r6, #21
    4d96:	46a8      	mov	r8, r5
    4d98:	0fdb      	lsrs	r3, r3, #31
    4d9a:	00d2      	lsls	r2, r2, #3
    4d9c:	4584      	cmp	ip, r0
    4d9e:	d100      	bne.n	4da2 <__aeabi_dsub+0x3a>
    4da0:	e0d8      	b.n	4f54 <__aeabi_dsub+0x1ec>
    4da2:	2001      	movs	r0, #1
    4da4:	4043      	eors	r3, r0
    4da6:	42ab      	cmp	r3, r5
    4da8:	d100      	bne.n	4dac <__aeabi_dsub+0x44>
    4daa:	e0a6      	b.n	4efa <__aeabi_dsub+0x192>
    4dac:	4660      	mov	r0, ip
    4dae:	1a35      	subs	r5, r6, r0
    4db0:	2d00      	cmp	r5, #0
    4db2:	dc00      	bgt.n	4db6 <__aeabi_dsub+0x4e>
    4db4:	e105      	b.n	4fc2 <__aeabi_dsub+0x25a>
    4db6:	2800      	cmp	r0, #0
    4db8:	d110      	bne.n	4ddc <__aeabi_dsub+0x74>
    4dba:	000b      	movs	r3, r1
    4dbc:	4313      	orrs	r3, r2
    4dbe:	d100      	bne.n	4dc2 <__aeabi_dsub+0x5a>
    4dc0:	e0d7      	b.n	4f72 <__aeabi_dsub+0x20a>
    4dc2:	1e6b      	subs	r3, r5, #1
    4dc4:	2b00      	cmp	r3, #0
    4dc6:	d000      	beq.n	4dca <__aeabi_dsub+0x62>
    4dc8:	e14b      	b.n	5062 <__aeabi_dsub+0x2fa>
    4dca:	4653      	mov	r3, sl
    4dcc:	1a9f      	subs	r7, r3, r2
    4dce:	45ba      	cmp	sl, r7
    4dd0:	4180      	sbcs	r0, r0
    4dd2:	1a64      	subs	r4, r4, r1
    4dd4:	4240      	negs	r0, r0
    4dd6:	1a24      	subs	r4, r4, r0
    4dd8:	2601      	movs	r6, #1
    4dda:	e01e      	b.n	4e1a <__aeabi_dsub+0xb2>
    4ddc:	4bb3      	ldr	r3, [pc, #716]	; (50ac <__aeabi_dsub+0x344>)
    4dde:	429e      	cmp	r6, r3
    4de0:	d048      	beq.n	4e74 <__aeabi_dsub+0x10c>
    4de2:	2380      	movs	r3, #128	; 0x80
    4de4:	041b      	lsls	r3, r3, #16
    4de6:	4319      	orrs	r1, r3
    4de8:	2d38      	cmp	r5, #56	; 0x38
    4dea:	dd00      	ble.n	4dee <__aeabi_dsub+0x86>
    4dec:	e119      	b.n	5022 <__aeabi_dsub+0x2ba>
    4dee:	2d1f      	cmp	r5, #31
    4df0:	dd00      	ble.n	4df4 <__aeabi_dsub+0x8c>
    4df2:	e14c      	b.n	508e <__aeabi_dsub+0x326>
    4df4:	2320      	movs	r3, #32
    4df6:	000f      	movs	r7, r1
    4df8:	1b5b      	subs	r3, r3, r5
    4dfa:	0010      	movs	r0, r2
    4dfc:	409a      	lsls	r2, r3
    4dfe:	409f      	lsls	r7, r3
    4e00:	40e8      	lsrs	r0, r5
    4e02:	1e53      	subs	r3, r2, #1
    4e04:	419a      	sbcs	r2, r3
    4e06:	40e9      	lsrs	r1, r5
    4e08:	4307      	orrs	r7, r0
    4e0a:	4317      	orrs	r7, r2
    4e0c:	4653      	mov	r3, sl
    4e0e:	1bdf      	subs	r7, r3, r7
    4e10:	1a61      	subs	r1, r4, r1
    4e12:	45ba      	cmp	sl, r7
    4e14:	41a4      	sbcs	r4, r4
    4e16:	4264      	negs	r4, r4
    4e18:	1b0c      	subs	r4, r1, r4
    4e1a:	0223      	lsls	r3, r4, #8
    4e1c:	d400      	bmi.n	4e20 <__aeabi_dsub+0xb8>
    4e1e:	e0c5      	b.n	4fac <__aeabi_dsub+0x244>
    4e20:	0264      	lsls	r4, r4, #9
    4e22:	0a65      	lsrs	r5, r4, #9
    4e24:	2d00      	cmp	r5, #0
    4e26:	d100      	bne.n	4e2a <__aeabi_dsub+0xc2>
    4e28:	e0f6      	b.n	5018 <__aeabi_dsub+0x2b0>
    4e2a:	0028      	movs	r0, r5
    4e2c:	f000 fb80 	bl	5530 <__clzsi2>
    4e30:	0003      	movs	r3, r0
    4e32:	3b08      	subs	r3, #8
    4e34:	2b1f      	cmp	r3, #31
    4e36:	dd00      	ble.n	4e3a <__aeabi_dsub+0xd2>
    4e38:	e0e9      	b.n	500e <__aeabi_dsub+0x2a6>
    4e3a:	2220      	movs	r2, #32
    4e3c:	003c      	movs	r4, r7
    4e3e:	1ad2      	subs	r2, r2, r3
    4e40:	409d      	lsls	r5, r3
    4e42:	40d4      	lsrs	r4, r2
    4e44:	409f      	lsls	r7, r3
    4e46:	4325      	orrs	r5, r4
    4e48:	429e      	cmp	r6, r3
    4e4a:	dd00      	ble.n	4e4e <__aeabi_dsub+0xe6>
    4e4c:	e0db      	b.n	5006 <__aeabi_dsub+0x29e>
    4e4e:	1b9e      	subs	r6, r3, r6
    4e50:	1c73      	adds	r3, r6, #1
    4e52:	2b1f      	cmp	r3, #31
    4e54:	dd00      	ble.n	4e58 <__aeabi_dsub+0xf0>
    4e56:	e10a      	b.n	506e <__aeabi_dsub+0x306>
    4e58:	2220      	movs	r2, #32
    4e5a:	0038      	movs	r0, r7
    4e5c:	1ad2      	subs	r2, r2, r3
    4e5e:	0029      	movs	r1, r5
    4e60:	4097      	lsls	r7, r2
    4e62:	002c      	movs	r4, r5
    4e64:	4091      	lsls	r1, r2
    4e66:	40d8      	lsrs	r0, r3
    4e68:	1e7a      	subs	r2, r7, #1
    4e6a:	4197      	sbcs	r7, r2
    4e6c:	40dc      	lsrs	r4, r3
    4e6e:	2600      	movs	r6, #0
    4e70:	4301      	orrs	r1, r0
    4e72:	430f      	orrs	r7, r1
    4e74:	077b      	lsls	r3, r7, #29
    4e76:	d009      	beq.n	4e8c <__aeabi_dsub+0x124>
    4e78:	230f      	movs	r3, #15
    4e7a:	403b      	ands	r3, r7
    4e7c:	2b04      	cmp	r3, #4
    4e7e:	d005      	beq.n	4e8c <__aeabi_dsub+0x124>
    4e80:	1d3b      	adds	r3, r7, #4
    4e82:	42bb      	cmp	r3, r7
    4e84:	41bf      	sbcs	r7, r7
    4e86:	427f      	negs	r7, r7
    4e88:	19e4      	adds	r4, r4, r7
    4e8a:	001f      	movs	r7, r3
    4e8c:	0223      	lsls	r3, r4, #8
    4e8e:	d525      	bpl.n	4edc <__aeabi_dsub+0x174>
    4e90:	4b86      	ldr	r3, [pc, #536]	; (50ac <__aeabi_dsub+0x344>)
    4e92:	3601      	adds	r6, #1
    4e94:	429e      	cmp	r6, r3
    4e96:	d100      	bne.n	4e9a <__aeabi_dsub+0x132>
    4e98:	e0af      	b.n	4ffa <__aeabi_dsub+0x292>
    4e9a:	4b85      	ldr	r3, [pc, #532]	; (50b0 <__aeabi_dsub+0x348>)
    4e9c:	2501      	movs	r5, #1
    4e9e:	401c      	ands	r4, r3
    4ea0:	4643      	mov	r3, r8
    4ea2:	0762      	lsls	r2, r4, #29
    4ea4:	08ff      	lsrs	r7, r7, #3
    4ea6:	0264      	lsls	r4, r4, #9
    4ea8:	0576      	lsls	r6, r6, #21
    4eaa:	4317      	orrs	r7, r2
    4eac:	0b24      	lsrs	r4, r4, #12
    4eae:	0d76      	lsrs	r6, r6, #21
    4eb0:	401d      	ands	r5, r3
    4eb2:	2100      	movs	r1, #0
    4eb4:	0324      	lsls	r4, r4, #12
    4eb6:	0b23      	lsrs	r3, r4, #12
    4eb8:	0d0c      	lsrs	r4, r1, #20
    4eba:	4a7e      	ldr	r2, [pc, #504]	; (50b4 <__aeabi_dsub+0x34c>)
    4ebc:	0524      	lsls	r4, r4, #20
    4ebe:	431c      	orrs	r4, r3
    4ec0:	4014      	ands	r4, r2
    4ec2:	0533      	lsls	r3, r6, #20
    4ec4:	4323      	orrs	r3, r4
    4ec6:	005b      	lsls	r3, r3, #1
    4ec8:	07ed      	lsls	r5, r5, #31
    4eca:	085b      	lsrs	r3, r3, #1
    4ecc:	432b      	orrs	r3, r5
    4ece:	0038      	movs	r0, r7
    4ed0:	0019      	movs	r1, r3
    4ed2:	bc1c      	pop	{r2, r3, r4}
    4ed4:	4690      	mov	r8, r2
    4ed6:	4699      	mov	r9, r3
    4ed8:	46a2      	mov	sl, r4
    4eda:	bdf0      	pop	{r4, r5, r6, r7, pc}
    4edc:	2501      	movs	r5, #1
    4ede:	4643      	mov	r3, r8
    4ee0:	0762      	lsls	r2, r4, #29
    4ee2:	08ff      	lsrs	r7, r7, #3
    4ee4:	4317      	orrs	r7, r2
    4ee6:	08e4      	lsrs	r4, r4, #3
    4ee8:	401d      	ands	r5, r3
    4eea:	4b70      	ldr	r3, [pc, #448]	; (50ac <__aeabi_dsub+0x344>)
    4eec:	429e      	cmp	r6, r3
    4eee:	d036      	beq.n	4f5e <__aeabi_dsub+0x1f6>
    4ef0:	0324      	lsls	r4, r4, #12
    4ef2:	0576      	lsls	r6, r6, #21
    4ef4:	0b24      	lsrs	r4, r4, #12
    4ef6:	0d76      	lsrs	r6, r6, #21
    4ef8:	e7db      	b.n	4eb2 <__aeabi_dsub+0x14a>
    4efa:	4663      	mov	r3, ip
    4efc:	1af3      	subs	r3, r6, r3
    4efe:	2b00      	cmp	r3, #0
    4f00:	dc00      	bgt.n	4f04 <__aeabi_dsub+0x19c>
    4f02:	e094      	b.n	502e <__aeabi_dsub+0x2c6>
    4f04:	4660      	mov	r0, ip
    4f06:	2800      	cmp	r0, #0
    4f08:	d035      	beq.n	4f76 <__aeabi_dsub+0x20e>
    4f0a:	4868      	ldr	r0, [pc, #416]	; (50ac <__aeabi_dsub+0x344>)
    4f0c:	4286      	cmp	r6, r0
    4f0e:	d0b1      	beq.n	4e74 <__aeabi_dsub+0x10c>
    4f10:	2780      	movs	r7, #128	; 0x80
    4f12:	043f      	lsls	r7, r7, #16
    4f14:	4339      	orrs	r1, r7
    4f16:	2b38      	cmp	r3, #56	; 0x38
    4f18:	dc00      	bgt.n	4f1c <__aeabi_dsub+0x1b4>
    4f1a:	e0fd      	b.n	5118 <__aeabi_dsub+0x3b0>
    4f1c:	430a      	orrs	r2, r1
    4f1e:	0017      	movs	r7, r2
    4f20:	2100      	movs	r1, #0
    4f22:	1e7a      	subs	r2, r7, #1
    4f24:	4197      	sbcs	r7, r2
    4f26:	4457      	add	r7, sl
    4f28:	4557      	cmp	r7, sl
    4f2a:	4180      	sbcs	r0, r0
    4f2c:	1909      	adds	r1, r1, r4
    4f2e:	4244      	negs	r4, r0
    4f30:	190c      	adds	r4, r1, r4
    4f32:	0223      	lsls	r3, r4, #8
    4f34:	d53a      	bpl.n	4fac <__aeabi_dsub+0x244>
    4f36:	4b5d      	ldr	r3, [pc, #372]	; (50ac <__aeabi_dsub+0x344>)
    4f38:	3601      	adds	r6, #1
    4f3a:	429e      	cmp	r6, r3
    4f3c:	d100      	bne.n	4f40 <__aeabi_dsub+0x1d8>
    4f3e:	e14b      	b.n	51d8 <__aeabi_dsub+0x470>
    4f40:	2201      	movs	r2, #1
    4f42:	4b5b      	ldr	r3, [pc, #364]	; (50b0 <__aeabi_dsub+0x348>)
    4f44:	401c      	ands	r4, r3
    4f46:	087b      	lsrs	r3, r7, #1
    4f48:	4017      	ands	r7, r2
    4f4a:	431f      	orrs	r7, r3
    4f4c:	07e2      	lsls	r2, r4, #31
    4f4e:	4317      	orrs	r7, r2
    4f50:	0864      	lsrs	r4, r4, #1
    4f52:	e78f      	b.n	4e74 <__aeabi_dsub+0x10c>
    4f54:	0008      	movs	r0, r1
    4f56:	4310      	orrs	r0, r2
    4f58:	d000      	beq.n	4f5c <__aeabi_dsub+0x1f4>
    4f5a:	e724      	b.n	4da6 <__aeabi_dsub+0x3e>
    4f5c:	e721      	b.n	4da2 <__aeabi_dsub+0x3a>
    4f5e:	0023      	movs	r3, r4
    4f60:	433b      	orrs	r3, r7
    4f62:	d100      	bne.n	4f66 <__aeabi_dsub+0x1fe>
    4f64:	e1b9      	b.n	52da <__aeabi_dsub+0x572>
    4f66:	2280      	movs	r2, #128	; 0x80
    4f68:	0312      	lsls	r2, r2, #12
    4f6a:	4314      	orrs	r4, r2
    4f6c:	0324      	lsls	r4, r4, #12
    4f6e:	0b24      	lsrs	r4, r4, #12
    4f70:	e79f      	b.n	4eb2 <__aeabi_dsub+0x14a>
    4f72:	002e      	movs	r6, r5
    4f74:	e77e      	b.n	4e74 <__aeabi_dsub+0x10c>
    4f76:	0008      	movs	r0, r1
    4f78:	4310      	orrs	r0, r2
    4f7a:	d100      	bne.n	4f7e <__aeabi_dsub+0x216>
    4f7c:	e0ca      	b.n	5114 <__aeabi_dsub+0x3ac>
    4f7e:	1e58      	subs	r0, r3, #1
    4f80:	4684      	mov	ip, r0
    4f82:	2800      	cmp	r0, #0
    4f84:	d000      	beq.n	4f88 <__aeabi_dsub+0x220>
    4f86:	e0e7      	b.n	5158 <__aeabi_dsub+0x3f0>
    4f88:	4452      	add	r2, sl
    4f8a:	4552      	cmp	r2, sl
    4f8c:	4180      	sbcs	r0, r0
    4f8e:	1864      	adds	r4, r4, r1
    4f90:	4240      	negs	r0, r0
    4f92:	1824      	adds	r4, r4, r0
    4f94:	0017      	movs	r7, r2
    4f96:	2601      	movs	r6, #1
    4f98:	0223      	lsls	r3, r4, #8
    4f9a:	d507      	bpl.n	4fac <__aeabi_dsub+0x244>
    4f9c:	2602      	movs	r6, #2
    4f9e:	e7cf      	b.n	4f40 <__aeabi_dsub+0x1d8>
    4fa0:	4664      	mov	r4, ip
    4fa2:	432c      	orrs	r4, r5
    4fa4:	d100      	bne.n	4fa8 <__aeabi_dsub+0x240>
    4fa6:	e1b3      	b.n	5310 <__aeabi_dsub+0x5a8>
    4fa8:	002c      	movs	r4, r5
    4faa:	4667      	mov	r7, ip
    4fac:	077b      	lsls	r3, r7, #29
    4fae:	d000      	beq.n	4fb2 <__aeabi_dsub+0x24a>
    4fb0:	e762      	b.n	4e78 <__aeabi_dsub+0x110>
    4fb2:	0763      	lsls	r3, r4, #29
    4fb4:	08ff      	lsrs	r7, r7, #3
    4fb6:	431f      	orrs	r7, r3
    4fb8:	2501      	movs	r5, #1
    4fba:	4643      	mov	r3, r8
    4fbc:	08e4      	lsrs	r4, r4, #3
    4fbe:	401d      	ands	r5, r3
    4fc0:	e793      	b.n	4eea <__aeabi_dsub+0x182>
    4fc2:	2d00      	cmp	r5, #0
    4fc4:	d178      	bne.n	50b8 <__aeabi_dsub+0x350>
    4fc6:	1c75      	adds	r5, r6, #1
    4fc8:	056d      	lsls	r5, r5, #21
    4fca:	0d6d      	lsrs	r5, r5, #21
    4fcc:	2d01      	cmp	r5, #1
    4fce:	dc00      	bgt.n	4fd2 <__aeabi_dsub+0x26a>
    4fd0:	e0f2      	b.n	51b8 <__aeabi_dsub+0x450>
    4fd2:	4650      	mov	r0, sl
    4fd4:	1a80      	subs	r0, r0, r2
    4fd6:	4582      	cmp	sl, r0
    4fd8:	41bf      	sbcs	r7, r7
    4fda:	1a65      	subs	r5, r4, r1
    4fdc:	427f      	negs	r7, r7
    4fde:	1bed      	subs	r5, r5, r7
    4fe0:	4684      	mov	ip, r0
    4fe2:	0228      	lsls	r0, r5, #8
    4fe4:	d400      	bmi.n	4fe8 <__aeabi_dsub+0x280>
    4fe6:	e08c      	b.n	5102 <__aeabi_dsub+0x39a>
    4fe8:	4650      	mov	r0, sl
    4fea:	1a17      	subs	r7, r2, r0
    4fec:	42ba      	cmp	r2, r7
    4fee:	4192      	sbcs	r2, r2
    4ff0:	1b0c      	subs	r4, r1, r4
    4ff2:	4255      	negs	r5, r2
    4ff4:	1b65      	subs	r5, r4, r5
    4ff6:	4698      	mov	r8, r3
    4ff8:	e714      	b.n	4e24 <__aeabi_dsub+0xbc>
    4ffa:	2501      	movs	r5, #1
    4ffc:	4643      	mov	r3, r8
    4ffe:	2400      	movs	r4, #0
    5000:	401d      	ands	r5, r3
    5002:	2700      	movs	r7, #0
    5004:	e755      	b.n	4eb2 <__aeabi_dsub+0x14a>
    5006:	4c2a      	ldr	r4, [pc, #168]	; (50b0 <__aeabi_dsub+0x348>)
    5008:	1af6      	subs	r6, r6, r3
    500a:	402c      	ands	r4, r5
    500c:	e732      	b.n	4e74 <__aeabi_dsub+0x10c>
    500e:	003d      	movs	r5, r7
    5010:	3828      	subs	r0, #40	; 0x28
    5012:	4085      	lsls	r5, r0
    5014:	2700      	movs	r7, #0
    5016:	e717      	b.n	4e48 <__aeabi_dsub+0xe0>
    5018:	0038      	movs	r0, r7
    501a:	f000 fa89 	bl	5530 <__clzsi2>
    501e:	3020      	adds	r0, #32
    5020:	e706      	b.n	4e30 <__aeabi_dsub+0xc8>
    5022:	430a      	orrs	r2, r1
    5024:	0017      	movs	r7, r2
    5026:	2100      	movs	r1, #0
    5028:	1e7a      	subs	r2, r7, #1
    502a:	4197      	sbcs	r7, r2
    502c:	e6ee      	b.n	4e0c <__aeabi_dsub+0xa4>
    502e:	2b00      	cmp	r3, #0
    5030:	d000      	beq.n	5034 <__aeabi_dsub+0x2cc>
    5032:	e0e5      	b.n	5200 <__aeabi_dsub+0x498>
    5034:	1c73      	adds	r3, r6, #1
    5036:	469c      	mov	ip, r3
    5038:	055b      	lsls	r3, r3, #21
    503a:	0d5b      	lsrs	r3, r3, #21
    503c:	2b01      	cmp	r3, #1
    503e:	dc00      	bgt.n	5042 <__aeabi_dsub+0x2da>
    5040:	e09f      	b.n	5182 <__aeabi_dsub+0x41a>
    5042:	4b1a      	ldr	r3, [pc, #104]	; (50ac <__aeabi_dsub+0x344>)
    5044:	459c      	cmp	ip, r3
    5046:	d100      	bne.n	504a <__aeabi_dsub+0x2e2>
    5048:	e0c5      	b.n	51d6 <__aeabi_dsub+0x46e>
    504a:	4452      	add	r2, sl
    504c:	4552      	cmp	r2, sl
    504e:	4180      	sbcs	r0, r0
    5050:	1864      	adds	r4, r4, r1
    5052:	4240      	negs	r0, r0
    5054:	1824      	adds	r4, r4, r0
    5056:	07e7      	lsls	r7, r4, #31
    5058:	0852      	lsrs	r2, r2, #1
    505a:	4317      	orrs	r7, r2
    505c:	0864      	lsrs	r4, r4, #1
    505e:	4666      	mov	r6, ip
    5060:	e708      	b.n	4e74 <__aeabi_dsub+0x10c>
    5062:	4812      	ldr	r0, [pc, #72]	; (50ac <__aeabi_dsub+0x344>)
    5064:	4285      	cmp	r5, r0
    5066:	d100      	bne.n	506a <__aeabi_dsub+0x302>
    5068:	e085      	b.n	5176 <__aeabi_dsub+0x40e>
    506a:	001d      	movs	r5, r3
    506c:	e6bc      	b.n	4de8 <__aeabi_dsub+0x80>
    506e:	0029      	movs	r1, r5
    5070:	3e1f      	subs	r6, #31
    5072:	40f1      	lsrs	r1, r6
    5074:	2b20      	cmp	r3, #32
    5076:	d100      	bne.n	507a <__aeabi_dsub+0x312>
    5078:	e07f      	b.n	517a <__aeabi_dsub+0x412>
    507a:	2240      	movs	r2, #64	; 0x40
    507c:	1ad3      	subs	r3, r2, r3
    507e:	409d      	lsls	r5, r3
    5080:	432f      	orrs	r7, r5
    5082:	1e7d      	subs	r5, r7, #1
    5084:	41af      	sbcs	r7, r5
    5086:	2400      	movs	r4, #0
    5088:	430f      	orrs	r7, r1
    508a:	2600      	movs	r6, #0
    508c:	e78e      	b.n	4fac <__aeabi_dsub+0x244>
    508e:	002b      	movs	r3, r5
    5090:	000f      	movs	r7, r1
    5092:	3b20      	subs	r3, #32
    5094:	40df      	lsrs	r7, r3
    5096:	2d20      	cmp	r5, #32
    5098:	d071      	beq.n	517e <__aeabi_dsub+0x416>
    509a:	2340      	movs	r3, #64	; 0x40
    509c:	1b5d      	subs	r5, r3, r5
    509e:	40a9      	lsls	r1, r5
    50a0:	430a      	orrs	r2, r1
    50a2:	1e51      	subs	r1, r2, #1
    50a4:	418a      	sbcs	r2, r1
    50a6:	2100      	movs	r1, #0
    50a8:	4317      	orrs	r7, r2
    50aa:	e6af      	b.n	4e0c <__aeabi_dsub+0xa4>
    50ac:	000007ff 	.word	0x000007ff
    50b0:	ff7fffff 	.word	0xff7fffff
    50b4:	800fffff 	.word	0x800fffff
    50b8:	2e00      	cmp	r6, #0
    50ba:	d03e      	beq.n	513a <__aeabi_dsub+0x3d2>
    50bc:	4eb3      	ldr	r6, [pc, #716]	; (538c <__aeabi_dsub+0x624>)
    50be:	45b4      	cmp	ip, r6
    50c0:	d045      	beq.n	514e <__aeabi_dsub+0x3e6>
    50c2:	2680      	movs	r6, #128	; 0x80
    50c4:	0436      	lsls	r6, r6, #16
    50c6:	426d      	negs	r5, r5
    50c8:	4334      	orrs	r4, r6
    50ca:	2d38      	cmp	r5, #56	; 0x38
    50cc:	dd00      	ble.n	50d0 <__aeabi_dsub+0x368>
    50ce:	e0a8      	b.n	5222 <__aeabi_dsub+0x4ba>
    50d0:	2d1f      	cmp	r5, #31
    50d2:	dd00      	ble.n	50d6 <__aeabi_dsub+0x36e>
    50d4:	e11f      	b.n	5316 <__aeabi_dsub+0x5ae>
    50d6:	2620      	movs	r6, #32
    50d8:	0027      	movs	r7, r4
    50da:	4650      	mov	r0, sl
    50dc:	1b76      	subs	r6, r6, r5
    50de:	40b7      	lsls	r7, r6
    50e0:	40e8      	lsrs	r0, r5
    50e2:	4307      	orrs	r7, r0
    50e4:	4650      	mov	r0, sl
    50e6:	40b0      	lsls	r0, r6
    50e8:	1e46      	subs	r6, r0, #1
    50ea:	41b0      	sbcs	r0, r6
    50ec:	40ec      	lsrs	r4, r5
    50ee:	4338      	orrs	r0, r7
    50f0:	1a17      	subs	r7, r2, r0
    50f2:	42ba      	cmp	r2, r7
    50f4:	4192      	sbcs	r2, r2
    50f6:	1b0c      	subs	r4, r1, r4
    50f8:	4252      	negs	r2, r2
    50fa:	1aa4      	subs	r4, r4, r2
    50fc:	4666      	mov	r6, ip
    50fe:	4698      	mov	r8, r3
    5100:	e68b      	b.n	4e1a <__aeabi_dsub+0xb2>
    5102:	4664      	mov	r4, ip
    5104:	4667      	mov	r7, ip
    5106:	432c      	orrs	r4, r5
    5108:	d000      	beq.n	510c <__aeabi_dsub+0x3a4>
    510a:	e68b      	b.n	4e24 <__aeabi_dsub+0xbc>
    510c:	2500      	movs	r5, #0
    510e:	2600      	movs	r6, #0
    5110:	2700      	movs	r7, #0
    5112:	e6ea      	b.n	4eea <__aeabi_dsub+0x182>
    5114:	001e      	movs	r6, r3
    5116:	e6ad      	b.n	4e74 <__aeabi_dsub+0x10c>
    5118:	2b1f      	cmp	r3, #31
    511a:	dc60      	bgt.n	51de <__aeabi_dsub+0x476>
    511c:	2720      	movs	r7, #32
    511e:	1af8      	subs	r0, r7, r3
    5120:	000f      	movs	r7, r1
    5122:	4684      	mov	ip, r0
    5124:	4087      	lsls	r7, r0
    5126:	0010      	movs	r0, r2
    5128:	40d8      	lsrs	r0, r3
    512a:	4307      	orrs	r7, r0
    512c:	4660      	mov	r0, ip
    512e:	4082      	lsls	r2, r0
    5130:	1e50      	subs	r0, r2, #1
    5132:	4182      	sbcs	r2, r0
    5134:	40d9      	lsrs	r1, r3
    5136:	4317      	orrs	r7, r2
    5138:	e6f5      	b.n	4f26 <__aeabi_dsub+0x1be>
    513a:	0026      	movs	r6, r4
    513c:	4650      	mov	r0, sl
    513e:	4306      	orrs	r6, r0
    5140:	d005      	beq.n	514e <__aeabi_dsub+0x3e6>
    5142:	43ed      	mvns	r5, r5
    5144:	2d00      	cmp	r5, #0
    5146:	d0d3      	beq.n	50f0 <__aeabi_dsub+0x388>
    5148:	4e90      	ldr	r6, [pc, #576]	; (538c <__aeabi_dsub+0x624>)
    514a:	45b4      	cmp	ip, r6
    514c:	d1bd      	bne.n	50ca <__aeabi_dsub+0x362>
    514e:	000c      	movs	r4, r1
    5150:	0017      	movs	r7, r2
    5152:	4666      	mov	r6, ip
    5154:	4698      	mov	r8, r3
    5156:	e68d      	b.n	4e74 <__aeabi_dsub+0x10c>
    5158:	488c      	ldr	r0, [pc, #560]	; (538c <__aeabi_dsub+0x624>)
    515a:	4283      	cmp	r3, r0
    515c:	d00b      	beq.n	5176 <__aeabi_dsub+0x40e>
    515e:	4663      	mov	r3, ip
    5160:	e6d9      	b.n	4f16 <__aeabi_dsub+0x1ae>
    5162:	2d00      	cmp	r5, #0
    5164:	d000      	beq.n	5168 <__aeabi_dsub+0x400>
    5166:	e096      	b.n	5296 <__aeabi_dsub+0x52e>
    5168:	0008      	movs	r0, r1
    516a:	4310      	orrs	r0, r2
    516c:	d100      	bne.n	5170 <__aeabi_dsub+0x408>
    516e:	e0e2      	b.n	5336 <__aeabi_dsub+0x5ce>
    5170:	000c      	movs	r4, r1
    5172:	0017      	movs	r7, r2
    5174:	4698      	mov	r8, r3
    5176:	4e85      	ldr	r6, [pc, #532]	; (538c <__aeabi_dsub+0x624>)
    5178:	e67c      	b.n	4e74 <__aeabi_dsub+0x10c>
    517a:	2500      	movs	r5, #0
    517c:	e780      	b.n	5080 <__aeabi_dsub+0x318>
    517e:	2100      	movs	r1, #0
    5180:	e78e      	b.n	50a0 <__aeabi_dsub+0x338>
    5182:	0023      	movs	r3, r4
    5184:	4650      	mov	r0, sl
    5186:	4303      	orrs	r3, r0
    5188:	2e00      	cmp	r6, #0
    518a:	d000      	beq.n	518e <__aeabi_dsub+0x426>
    518c:	e0a8      	b.n	52e0 <__aeabi_dsub+0x578>
    518e:	2b00      	cmp	r3, #0
    5190:	d100      	bne.n	5194 <__aeabi_dsub+0x42c>
    5192:	e0de      	b.n	5352 <__aeabi_dsub+0x5ea>
    5194:	000b      	movs	r3, r1
    5196:	4313      	orrs	r3, r2
    5198:	d100      	bne.n	519c <__aeabi_dsub+0x434>
    519a:	e66b      	b.n	4e74 <__aeabi_dsub+0x10c>
    519c:	4452      	add	r2, sl
    519e:	4552      	cmp	r2, sl
    51a0:	4180      	sbcs	r0, r0
    51a2:	1864      	adds	r4, r4, r1
    51a4:	4240      	negs	r0, r0
    51a6:	1824      	adds	r4, r4, r0
    51a8:	0017      	movs	r7, r2
    51aa:	0223      	lsls	r3, r4, #8
    51ac:	d400      	bmi.n	51b0 <__aeabi_dsub+0x448>
    51ae:	e6fd      	b.n	4fac <__aeabi_dsub+0x244>
    51b0:	4b77      	ldr	r3, [pc, #476]	; (5390 <__aeabi_dsub+0x628>)
    51b2:	4666      	mov	r6, ip
    51b4:	401c      	ands	r4, r3
    51b6:	e65d      	b.n	4e74 <__aeabi_dsub+0x10c>
    51b8:	0025      	movs	r5, r4
    51ba:	4650      	mov	r0, sl
    51bc:	4305      	orrs	r5, r0
    51be:	2e00      	cmp	r6, #0
    51c0:	d1cf      	bne.n	5162 <__aeabi_dsub+0x3fa>
    51c2:	2d00      	cmp	r5, #0
    51c4:	d14f      	bne.n	5266 <__aeabi_dsub+0x4fe>
    51c6:	000c      	movs	r4, r1
    51c8:	4314      	orrs	r4, r2
    51ca:	d100      	bne.n	51ce <__aeabi_dsub+0x466>
    51cc:	e0a0      	b.n	5310 <__aeabi_dsub+0x5a8>
    51ce:	000c      	movs	r4, r1
    51d0:	0017      	movs	r7, r2
    51d2:	4698      	mov	r8, r3
    51d4:	e64e      	b.n	4e74 <__aeabi_dsub+0x10c>
    51d6:	4666      	mov	r6, ip
    51d8:	2400      	movs	r4, #0
    51da:	2700      	movs	r7, #0
    51dc:	e685      	b.n	4eea <__aeabi_dsub+0x182>
    51de:	001f      	movs	r7, r3
    51e0:	0008      	movs	r0, r1
    51e2:	3f20      	subs	r7, #32
    51e4:	40f8      	lsrs	r0, r7
    51e6:	0007      	movs	r7, r0
    51e8:	2b20      	cmp	r3, #32
    51ea:	d100      	bne.n	51ee <__aeabi_dsub+0x486>
    51ec:	e08e      	b.n	530c <__aeabi_dsub+0x5a4>
    51ee:	2040      	movs	r0, #64	; 0x40
    51f0:	1ac3      	subs	r3, r0, r3
    51f2:	4099      	lsls	r1, r3
    51f4:	430a      	orrs	r2, r1
    51f6:	1e51      	subs	r1, r2, #1
    51f8:	418a      	sbcs	r2, r1
    51fa:	2100      	movs	r1, #0
    51fc:	4317      	orrs	r7, r2
    51fe:	e692      	b.n	4f26 <__aeabi_dsub+0x1be>
    5200:	2e00      	cmp	r6, #0
    5202:	d114      	bne.n	522e <__aeabi_dsub+0x4c6>
    5204:	0026      	movs	r6, r4
    5206:	4650      	mov	r0, sl
    5208:	4306      	orrs	r6, r0
    520a:	d062      	beq.n	52d2 <__aeabi_dsub+0x56a>
    520c:	43db      	mvns	r3, r3
    520e:	2b00      	cmp	r3, #0
    5210:	d15c      	bne.n	52cc <__aeabi_dsub+0x564>
    5212:	1887      	adds	r7, r0, r2
    5214:	4297      	cmp	r7, r2
    5216:	4192      	sbcs	r2, r2
    5218:	1864      	adds	r4, r4, r1
    521a:	4252      	negs	r2, r2
    521c:	18a4      	adds	r4, r4, r2
    521e:	4666      	mov	r6, ip
    5220:	e687      	b.n	4f32 <__aeabi_dsub+0x1ca>
    5222:	4650      	mov	r0, sl
    5224:	4320      	orrs	r0, r4
    5226:	1e44      	subs	r4, r0, #1
    5228:	41a0      	sbcs	r0, r4
    522a:	2400      	movs	r4, #0
    522c:	e760      	b.n	50f0 <__aeabi_dsub+0x388>
    522e:	4e57      	ldr	r6, [pc, #348]	; (538c <__aeabi_dsub+0x624>)
    5230:	45b4      	cmp	ip, r6
    5232:	d04e      	beq.n	52d2 <__aeabi_dsub+0x56a>
    5234:	2680      	movs	r6, #128	; 0x80
    5236:	0436      	lsls	r6, r6, #16
    5238:	425b      	negs	r3, r3
    523a:	4334      	orrs	r4, r6
    523c:	2b38      	cmp	r3, #56	; 0x38
    523e:	dd00      	ble.n	5242 <__aeabi_dsub+0x4da>
    5240:	e07f      	b.n	5342 <__aeabi_dsub+0x5da>
    5242:	2b1f      	cmp	r3, #31
    5244:	dd00      	ble.n	5248 <__aeabi_dsub+0x4e0>
    5246:	e08b      	b.n	5360 <__aeabi_dsub+0x5f8>
    5248:	2620      	movs	r6, #32
    524a:	0027      	movs	r7, r4
    524c:	4650      	mov	r0, sl
    524e:	1af6      	subs	r6, r6, r3
    5250:	40b7      	lsls	r7, r6
    5252:	40d8      	lsrs	r0, r3
    5254:	4307      	orrs	r7, r0
    5256:	4650      	mov	r0, sl
    5258:	40b0      	lsls	r0, r6
    525a:	1e46      	subs	r6, r0, #1
    525c:	41b0      	sbcs	r0, r6
    525e:	4307      	orrs	r7, r0
    5260:	40dc      	lsrs	r4, r3
    5262:	18bf      	adds	r7, r7, r2
    5264:	e7d6      	b.n	5214 <__aeabi_dsub+0x4ac>
    5266:	000d      	movs	r5, r1
    5268:	4315      	orrs	r5, r2
    526a:	d100      	bne.n	526e <__aeabi_dsub+0x506>
    526c:	e602      	b.n	4e74 <__aeabi_dsub+0x10c>
    526e:	4650      	mov	r0, sl
    5270:	1a80      	subs	r0, r0, r2
    5272:	4582      	cmp	sl, r0
    5274:	41bf      	sbcs	r7, r7
    5276:	1a65      	subs	r5, r4, r1
    5278:	427f      	negs	r7, r7
    527a:	1bed      	subs	r5, r5, r7
    527c:	4684      	mov	ip, r0
    527e:	0228      	lsls	r0, r5, #8
    5280:	d400      	bmi.n	5284 <__aeabi_dsub+0x51c>
    5282:	e68d      	b.n	4fa0 <__aeabi_dsub+0x238>
    5284:	4650      	mov	r0, sl
    5286:	1a17      	subs	r7, r2, r0
    5288:	42ba      	cmp	r2, r7
    528a:	4192      	sbcs	r2, r2
    528c:	1b0c      	subs	r4, r1, r4
    528e:	4252      	negs	r2, r2
    5290:	1aa4      	subs	r4, r4, r2
    5292:	4698      	mov	r8, r3
    5294:	e5ee      	b.n	4e74 <__aeabi_dsub+0x10c>
    5296:	000d      	movs	r5, r1
    5298:	4315      	orrs	r5, r2
    529a:	d100      	bne.n	529e <__aeabi_dsub+0x536>
    529c:	e76b      	b.n	5176 <__aeabi_dsub+0x40e>
    529e:	4650      	mov	r0, sl
    52a0:	0767      	lsls	r7, r4, #29
    52a2:	08c0      	lsrs	r0, r0, #3
    52a4:	4307      	orrs	r7, r0
    52a6:	2080      	movs	r0, #128	; 0x80
    52a8:	08e4      	lsrs	r4, r4, #3
    52aa:	0300      	lsls	r0, r0, #12
    52ac:	4204      	tst	r4, r0
    52ae:	d007      	beq.n	52c0 <__aeabi_dsub+0x558>
    52b0:	08cd      	lsrs	r5, r1, #3
    52b2:	4205      	tst	r5, r0
    52b4:	d104      	bne.n	52c0 <__aeabi_dsub+0x558>
    52b6:	002c      	movs	r4, r5
    52b8:	4698      	mov	r8, r3
    52ba:	08d7      	lsrs	r7, r2, #3
    52bc:	0749      	lsls	r1, r1, #29
    52be:	430f      	orrs	r7, r1
    52c0:	0f7b      	lsrs	r3, r7, #29
    52c2:	00e4      	lsls	r4, r4, #3
    52c4:	431c      	orrs	r4, r3
    52c6:	00ff      	lsls	r7, r7, #3
    52c8:	4e30      	ldr	r6, [pc, #192]	; (538c <__aeabi_dsub+0x624>)
    52ca:	e5d3      	b.n	4e74 <__aeabi_dsub+0x10c>
    52cc:	4e2f      	ldr	r6, [pc, #188]	; (538c <__aeabi_dsub+0x624>)
    52ce:	45b4      	cmp	ip, r6
    52d0:	d1b4      	bne.n	523c <__aeabi_dsub+0x4d4>
    52d2:	000c      	movs	r4, r1
    52d4:	0017      	movs	r7, r2
    52d6:	4666      	mov	r6, ip
    52d8:	e5cc      	b.n	4e74 <__aeabi_dsub+0x10c>
    52da:	2700      	movs	r7, #0
    52dc:	2400      	movs	r4, #0
    52de:	e5e8      	b.n	4eb2 <__aeabi_dsub+0x14a>
    52e0:	2b00      	cmp	r3, #0
    52e2:	d039      	beq.n	5358 <__aeabi_dsub+0x5f0>
    52e4:	000b      	movs	r3, r1
    52e6:	4313      	orrs	r3, r2
    52e8:	d100      	bne.n	52ec <__aeabi_dsub+0x584>
    52ea:	e744      	b.n	5176 <__aeabi_dsub+0x40e>
    52ec:	08c0      	lsrs	r0, r0, #3
    52ee:	0767      	lsls	r7, r4, #29
    52f0:	4307      	orrs	r7, r0
    52f2:	2080      	movs	r0, #128	; 0x80
    52f4:	08e4      	lsrs	r4, r4, #3
    52f6:	0300      	lsls	r0, r0, #12
    52f8:	4204      	tst	r4, r0
    52fa:	d0e1      	beq.n	52c0 <__aeabi_dsub+0x558>
    52fc:	08cb      	lsrs	r3, r1, #3
    52fe:	4203      	tst	r3, r0
    5300:	d1de      	bne.n	52c0 <__aeabi_dsub+0x558>
    5302:	08d7      	lsrs	r7, r2, #3
    5304:	0749      	lsls	r1, r1, #29
    5306:	430f      	orrs	r7, r1
    5308:	001c      	movs	r4, r3
    530a:	e7d9      	b.n	52c0 <__aeabi_dsub+0x558>
    530c:	2100      	movs	r1, #0
    530e:	e771      	b.n	51f4 <__aeabi_dsub+0x48c>
    5310:	2500      	movs	r5, #0
    5312:	2700      	movs	r7, #0
    5314:	e5e9      	b.n	4eea <__aeabi_dsub+0x182>
    5316:	002e      	movs	r6, r5
    5318:	0027      	movs	r7, r4
    531a:	3e20      	subs	r6, #32
    531c:	40f7      	lsrs	r7, r6
    531e:	2d20      	cmp	r5, #32
    5320:	d02f      	beq.n	5382 <__aeabi_dsub+0x61a>
    5322:	2640      	movs	r6, #64	; 0x40
    5324:	1b75      	subs	r5, r6, r5
    5326:	40ac      	lsls	r4, r5
    5328:	4650      	mov	r0, sl
    532a:	4320      	orrs	r0, r4
    532c:	1e44      	subs	r4, r0, #1
    532e:	41a0      	sbcs	r0, r4
    5330:	2400      	movs	r4, #0
    5332:	4338      	orrs	r0, r7
    5334:	e6dc      	b.n	50f0 <__aeabi_dsub+0x388>
    5336:	2480      	movs	r4, #128	; 0x80
    5338:	2500      	movs	r5, #0
    533a:	0324      	lsls	r4, r4, #12
    533c:	4e13      	ldr	r6, [pc, #76]	; (538c <__aeabi_dsub+0x624>)
    533e:	2700      	movs	r7, #0
    5340:	e5d3      	b.n	4eea <__aeabi_dsub+0x182>
    5342:	4650      	mov	r0, sl
    5344:	4320      	orrs	r0, r4
    5346:	0007      	movs	r7, r0
    5348:	1e78      	subs	r0, r7, #1
    534a:	4187      	sbcs	r7, r0
    534c:	2400      	movs	r4, #0
    534e:	18bf      	adds	r7, r7, r2
    5350:	e760      	b.n	5214 <__aeabi_dsub+0x4ac>
    5352:	000c      	movs	r4, r1
    5354:	0017      	movs	r7, r2
    5356:	e58d      	b.n	4e74 <__aeabi_dsub+0x10c>
    5358:	000c      	movs	r4, r1
    535a:	0017      	movs	r7, r2
    535c:	4e0b      	ldr	r6, [pc, #44]	; (538c <__aeabi_dsub+0x624>)
    535e:	e589      	b.n	4e74 <__aeabi_dsub+0x10c>
    5360:	001e      	movs	r6, r3
    5362:	0027      	movs	r7, r4
    5364:	3e20      	subs	r6, #32
    5366:	40f7      	lsrs	r7, r6
    5368:	2b20      	cmp	r3, #32
    536a:	d00c      	beq.n	5386 <__aeabi_dsub+0x61e>
    536c:	2640      	movs	r6, #64	; 0x40
    536e:	1af3      	subs	r3, r6, r3
    5370:	409c      	lsls	r4, r3
    5372:	4650      	mov	r0, sl
    5374:	4320      	orrs	r0, r4
    5376:	1e44      	subs	r4, r0, #1
    5378:	41a0      	sbcs	r0, r4
    537a:	4307      	orrs	r7, r0
    537c:	2400      	movs	r4, #0
    537e:	18bf      	adds	r7, r7, r2
    5380:	e748      	b.n	5214 <__aeabi_dsub+0x4ac>
    5382:	2400      	movs	r4, #0
    5384:	e7d0      	b.n	5328 <__aeabi_dsub+0x5c0>
    5386:	2400      	movs	r4, #0
    5388:	e7f3      	b.n	5372 <__aeabi_dsub+0x60a>
    538a:	46c0      	nop			; (mov r8, r8)
    538c:	000007ff 	.word	0x000007ff
    5390:	ff7fffff 	.word	0xff7fffff

00005394 <__aeabi_dcmpun>:
    5394:	b570      	push	{r4, r5, r6, lr}
    5396:	4e0e      	ldr	r6, [pc, #56]	; (53d0 <__aeabi_dcmpun+0x3c>)
    5398:	030d      	lsls	r5, r1, #12
    539a:	031c      	lsls	r4, r3, #12
    539c:	0049      	lsls	r1, r1, #1
    539e:	005b      	lsls	r3, r3, #1
    53a0:	0b2d      	lsrs	r5, r5, #12
    53a2:	0d49      	lsrs	r1, r1, #21
    53a4:	0b24      	lsrs	r4, r4, #12
    53a6:	0d5b      	lsrs	r3, r3, #21
    53a8:	42b1      	cmp	r1, r6
    53aa:	d004      	beq.n	53b6 <__aeabi_dcmpun+0x22>
    53ac:	4908      	ldr	r1, [pc, #32]	; (53d0 <__aeabi_dcmpun+0x3c>)
    53ae:	2000      	movs	r0, #0
    53b0:	428b      	cmp	r3, r1
    53b2:	d008      	beq.n	53c6 <__aeabi_dcmpun+0x32>
    53b4:	bd70      	pop	{r4, r5, r6, pc}
    53b6:	4305      	orrs	r5, r0
    53b8:	2001      	movs	r0, #1
    53ba:	2d00      	cmp	r5, #0
    53bc:	d1fa      	bne.n	53b4 <__aeabi_dcmpun+0x20>
    53be:	4904      	ldr	r1, [pc, #16]	; (53d0 <__aeabi_dcmpun+0x3c>)
    53c0:	2000      	movs	r0, #0
    53c2:	428b      	cmp	r3, r1
    53c4:	d1f6      	bne.n	53b4 <__aeabi_dcmpun+0x20>
    53c6:	4314      	orrs	r4, r2
    53c8:	0020      	movs	r0, r4
    53ca:	1e44      	subs	r4, r0, #1
    53cc:	41a0      	sbcs	r0, r4
    53ce:	e7f1      	b.n	53b4 <__aeabi_dcmpun+0x20>
    53d0:	000007ff 	.word	0x000007ff

000053d4 <__aeabi_d2iz>:
    53d4:	b530      	push	{r4, r5, lr}
    53d6:	4d13      	ldr	r5, [pc, #76]	; (5424 <__aeabi_d2iz+0x50>)
    53d8:	030a      	lsls	r2, r1, #12
    53da:	004b      	lsls	r3, r1, #1
    53dc:	0b12      	lsrs	r2, r2, #12
    53de:	0d5b      	lsrs	r3, r3, #21
    53e0:	0fc9      	lsrs	r1, r1, #31
    53e2:	2400      	movs	r4, #0
    53e4:	42ab      	cmp	r3, r5
    53e6:	dd10      	ble.n	540a <__aeabi_d2iz+0x36>
    53e8:	4c0f      	ldr	r4, [pc, #60]	; (5428 <__aeabi_d2iz+0x54>)
    53ea:	42a3      	cmp	r3, r4
    53ec:	dc0f      	bgt.n	540e <__aeabi_d2iz+0x3a>
    53ee:	2480      	movs	r4, #128	; 0x80
    53f0:	4d0e      	ldr	r5, [pc, #56]	; (542c <__aeabi_d2iz+0x58>)
    53f2:	0364      	lsls	r4, r4, #13
    53f4:	4322      	orrs	r2, r4
    53f6:	1aed      	subs	r5, r5, r3
    53f8:	2d1f      	cmp	r5, #31
    53fa:	dd0b      	ble.n	5414 <__aeabi_d2iz+0x40>
    53fc:	480c      	ldr	r0, [pc, #48]	; (5430 <__aeabi_d2iz+0x5c>)
    53fe:	1ac3      	subs	r3, r0, r3
    5400:	40da      	lsrs	r2, r3
    5402:	4254      	negs	r4, r2
    5404:	2900      	cmp	r1, #0
    5406:	d100      	bne.n	540a <__aeabi_d2iz+0x36>
    5408:	0014      	movs	r4, r2
    540a:	0020      	movs	r0, r4
    540c:	bd30      	pop	{r4, r5, pc}
    540e:	4b09      	ldr	r3, [pc, #36]	; (5434 <__aeabi_d2iz+0x60>)
    5410:	18cc      	adds	r4, r1, r3
    5412:	e7fa      	b.n	540a <__aeabi_d2iz+0x36>
    5414:	4c08      	ldr	r4, [pc, #32]	; (5438 <__aeabi_d2iz+0x64>)
    5416:	40e8      	lsrs	r0, r5
    5418:	46a4      	mov	ip, r4
    541a:	4463      	add	r3, ip
    541c:	409a      	lsls	r2, r3
    541e:	4302      	orrs	r2, r0
    5420:	e7ef      	b.n	5402 <__aeabi_d2iz+0x2e>
    5422:	46c0      	nop			; (mov r8, r8)
    5424:	000003fe 	.word	0x000003fe
    5428:	0000041d 	.word	0x0000041d
    542c:	00000433 	.word	0x00000433
    5430:	00000413 	.word	0x00000413
    5434:	7fffffff 	.word	0x7fffffff
    5438:	fffffbed 	.word	0xfffffbed

0000543c <__aeabi_i2d>:
    543c:	b570      	push	{r4, r5, r6, lr}
    543e:	2800      	cmp	r0, #0
    5440:	d030      	beq.n	54a4 <__aeabi_i2d+0x68>
    5442:	17c3      	asrs	r3, r0, #31
    5444:	18c4      	adds	r4, r0, r3
    5446:	405c      	eors	r4, r3
    5448:	0fc5      	lsrs	r5, r0, #31
    544a:	0020      	movs	r0, r4
    544c:	f000 f870 	bl	5530 <__clzsi2>
    5450:	4b17      	ldr	r3, [pc, #92]	; (54b0 <__aeabi_i2d+0x74>)
    5452:	4a18      	ldr	r2, [pc, #96]	; (54b4 <__aeabi_i2d+0x78>)
    5454:	1a1b      	subs	r3, r3, r0
    5456:	1ad2      	subs	r2, r2, r3
    5458:	2a1f      	cmp	r2, #31
    545a:	dd18      	ble.n	548e <__aeabi_i2d+0x52>
    545c:	4a16      	ldr	r2, [pc, #88]	; (54b8 <__aeabi_i2d+0x7c>)
    545e:	1ad2      	subs	r2, r2, r3
    5460:	4094      	lsls	r4, r2
    5462:	2200      	movs	r2, #0
    5464:	0324      	lsls	r4, r4, #12
    5466:	055b      	lsls	r3, r3, #21
    5468:	0b24      	lsrs	r4, r4, #12
    546a:	0d5b      	lsrs	r3, r3, #21
    546c:	2100      	movs	r1, #0
    546e:	0010      	movs	r0, r2
    5470:	0324      	lsls	r4, r4, #12
    5472:	0d0a      	lsrs	r2, r1, #20
    5474:	0b24      	lsrs	r4, r4, #12
    5476:	0512      	lsls	r2, r2, #20
    5478:	4322      	orrs	r2, r4
    547a:	4c10      	ldr	r4, [pc, #64]	; (54bc <__aeabi_i2d+0x80>)
    547c:	051b      	lsls	r3, r3, #20
    547e:	4022      	ands	r2, r4
    5480:	4313      	orrs	r3, r2
    5482:	005b      	lsls	r3, r3, #1
    5484:	07ed      	lsls	r5, r5, #31
    5486:	085b      	lsrs	r3, r3, #1
    5488:	432b      	orrs	r3, r5
    548a:	0019      	movs	r1, r3
    548c:	bd70      	pop	{r4, r5, r6, pc}
    548e:	0021      	movs	r1, r4
    5490:	4091      	lsls	r1, r2
    5492:	000a      	movs	r2, r1
    5494:	210b      	movs	r1, #11
    5496:	1a08      	subs	r0, r1, r0
    5498:	40c4      	lsrs	r4, r0
    549a:	055b      	lsls	r3, r3, #21
    549c:	0324      	lsls	r4, r4, #12
    549e:	0b24      	lsrs	r4, r4, #12
    54a0:	0d5b      	lsrs	r3, r3, #21
    54a2:	e7e3      	b.n	546c <__aeabi_i2d+0x30>
    54a4:	2500      	movs	r5, #0
    54a6:	2300      	movs	r3, #0
    54a8:	2400      	movs	r4, #0
    54aa:	2200      	movs	r2, #0
    54ac:	e7de      	b.n	546c <__aeabi_i2d+0x30>
    54ae:	46c0      	nop			; (mov r8, r8)
    54b0:	0000041e 	.word	0x0000041e
    54b4:	00000433 	.word	0x00000433
    54b8:	00000413 	.word	0x00000413
    54bc:	800fffff 	.word	0x800fffff

000054c0 <__aeabi_ui2d>:
    54c0:	b510      	push	{r4, lr}
    54c2:	1e04      	subs	r4, r0, #0
    54c4:	d028      	beq.n	5518 <__aeabi_ui2d+0x58>
    54c6:	f000 f833 	bl	5530 <__clzsi2>
    54ca:	4b15      	ldr	r3, [pc, #84]	; (5520 <__aeabi_ui2d+0x60>)
    54cc:	4a15      	ldr	r2, [pc, #84]	; (5524 <__aeabi_ui2d+0x64>)
    54ce:	1a1b      	subs	r3, r3, r0
    54d0:	1ad2      	subs	r2, r2, r3
    54d2:	2a1f      	cmp	r2, #31
    54d4:	dd15      	ble.n	5502 <__aeabi_ui2d+0x42>
    54d6:	4a14      	ldr	r2, [pc, #80]	; (5528 <__aeabi_ui2d+0x68>)
    54d8:	1ad2      	subs	r2, r2, r3
    54da:	4094      	lsls	r4, r2
    54dc:	2200      	movs	r2, #0
    54de:	0324      	lsls	r4, r4, #12
    54e0:	055b      	lsls	r3, r3, #21
    54e2:	0b24      	lsrs	r4, r4, #12
    54e4:	0d5b      	lsrs	r3, r3, #21
    54e6:	2100      	movs	r1, #0
    54e8:	0010      	movs	r0, r2
    54ea:	0324      	lsls	r4, r4, #12
    54ec:	0d0a      	lsrs	r2, r1, #20
    54ee:	0b24      	lsrs	r4, r4, #12
    54f0:	0512      	lsls	r2, r2, #20
    54f2:	4322      	orrs	r2, r4
    54f4:	4c0d      	ldr	r4, [pc, #52]	; (552c <__aeabi_ui2d+0x6c>)
    54f6:	051b      	lsls	r3, r3, #20
    54f8:	4022      	ands	r2, r4
    54fa:	4313      	orrs	r3, r2
    54fc:	005b      	lsls	r3, r3, #1
    54fe:	0859      	lsrs	r1, r3, #1
    5500:	bd10      	pop	{r4, pc}
    5502:	0021      	movs	r1, r4
    5504:	4091      	lsls	r1, r2
    5506:	000a      	movs	r2, r1
    5508:	210b      	movs	r1, #11
    550a:	1a08      	subs	r0, r1, r0
    550c:	40c4      	lsrs	r4, r0
    550e:	055b      	lsls	r3, r3, #21
    5510:	0324      	lsls	r4, r4, #12
    5512:	0b24      	lsrs	r4, r4, #12
    5514:	0d5b      	lsrs	r3, r3, #21
    5516:	e7e6      	b.n	54e6 <__aeabi_ui2d+0x26>
    5518:	2300      	movs	r3, #0
    551a:	2400      	movs	r4, #0
    551c:	2200      	movs	r2, #0
    551e:	e7e2      	b.n	54e6 <__aeabi_ui2d+0x26>
    5520:	0000041e 	.word	0x0000041e
    5524:	00000433 	.word	0x00000433
    5528:	00000413 	.word	0x00000413
    552c:	800fffff 	.word	0x800fffff

00005530 <__clzsi2>:
    5530:	211c      	movs	r1, #28
    5532:	2301      	movs	r3, #1
    5534:	041b      	lsls	r3, r3, #16
    5536:	4298      	cmp	r0, r3
    5538:	d301      	bcc.n	553e <__clzsi2+0xe>
    553a:	0c00      	lsrs	r0, r0, #16
    553c:	3910      	subs	r1, #16
    553e:	0a1b      	lsrs	r3, r3, #8
    5540:	4298      	cmp	r0, r3
    5542:	d301      	bcc.n	5548 <__clzsi2+0x18>
    5544:	0a00      	lsrs	r0, r0, #8
    5546:	3908      	subs	r1, #8
    5548:	091b      	lsrs	r3, r3, #4
    554a:	4298      	cmp	r0, r3
    554c:	d301      	bcc.n	5552 <__clzsi2+0x22>
    554e:	0900      	lsrs	r0, r0, #4
    5550:	3904      	subs	r1, #4
    5552:	a202      	add	r2, pc, #8	; (adr r2, 555c <__clzsi2+0x2c>)
    5554:	5c10      	ldrb	r0, [r2, r0]
    5556:	1840      	adds	r0, r0, r1
    5558:	4770      	bx	lr
    555a:	46c0      	nop			; (mov r8, r8)
    555c:	02020304 	.word	0x02020304
    5560:	01010101 	.word	0x01010101
	...
    556c:	682f2e2e 	.word	0x682f2e2e
    5570:	732f6c61 	.word	0x732f6c61
    5574:	682f6372 	.word	0x682f6372
    5578:	615f6c61 	.word	0x615f6c61
    557c:	735f6364 	.word	0x735f6364
    5580:	2e636e79 	.word	0x2e636e79
    5584:	00000063 	.word	0x00000063
    5588:	682f2e2e 	.word	0x682f2e2e
    558c:	732f6c61 	.word	0x732f6c61
    5590:	682f6372 	.word	0x682f6372
    5594:	695f6c61 	.word	0x695f6c61
    5598:	00632e6f 	.word	0x00632e6f
    559c:	682f2e2e 	.word	0x682f2e2e
    55a0:	732f6c61 	.word	0x732f6c61
    55a4:	682f6372 	.word	0x682f6372
    55a8:	755f6c61 	.word	0x755f6c61
    55ac:	74726173 	.word	0x74726173
    55b0:	6e79735f 	.word	0x6e79735f
    55b4:	00632e63 	.word	0x00632e63

000055b8 <_adcs>:
    55b8:	00020200 01000000 00000000 00011806     ................
	...
    55d4:	682f2e2e 612f6c70 682f6364 615f6c70     ../hpl/adc/hpl_a
    55e4:	632e6364 00000000                       dc.c....

000055ec <_usarts>:
    55ec:	00000003 40100004 00030000 0000e282     .......@........
    55fc:	00000000                                ....

00005600 <_i2cms>:
	...

00005618 <_i2css>:
	...

00005628 <sercomspi_regs>:
	...
    563c:	682f2e2e 732f6c70 6f637265 70682f6d     ../hpl/sercom/hp
    564c:	65735f6c 6d6f6372 0000632e 36304150     l_sercom.c..PA06
    565c:	3330253d 000a0d64 37304150 3330253d     =%03d...PA07=%03
    566c:	000a0d64 6d756b4f 61422061 69726173     d...Okuma Basari
    567c:	007a6973                                siz.

00005680 <_global_impure_ptr>:
    5680:	20000004 00464e49 00666e69 004e414e     ... INF.inf.NAN.
    5690:	006e616e 31300030 35343332 39383736     nan.0.0123456789
    56a0:	44434241 30004645 34333231 38373635     ABCDEF.012345678
    56b0:	63626139 00666564 69666e49 7974696e     9abcdef.Infinity
    56c0:	4e614e00 00000000                       .NaN....

000056c8 <__sf_fake_stderr>:
	...

000056e8 <__sf_fake_stdin>:
	...

00005708 <__sf_fake_stdout>:
	...

00005728 <__mprec_bigtens>:
    5728:	37e08000 4341c379 b5056e17 4693b8b5     ...7y.AC.n.....F
    5738:	e93ff9f5 4d384f03 f9301d32 5a827748     ..?..O8M2.0.Hw.Z
    5748:	7f73bf3c 75154fdd                       <.s..O.u

00005750 <__mprec_tens>:
    5750:	00000000 3ff00000 00000000 40240000     .......?......$@
    5760:	00000000 40590000 00000000 408f4000     ......Y@.....@.@
    5770:	00000000 40c38800 00000000 40f86a00     .......@.....j.@
    5780:	00000000 412e8480 00000000 416312d0     .......A......cA
    5790:	00000000 4197d784 00000000 41cdcd65     .......A....e..A
    57a0:	20000000 4202a05f e8000000 42374876     ... _..B....vH7B
    57b0:	a2000000 426d1a94 e5400000 42a2309c     ......mB..@..0.B
    57c0:	1e900000 42d6bcc4 26340000 430c6bf5     .......B..4&.k.C
    57d0:	37e08000 4341c379 85d8a000 43763457     ...7y.AC....W4vC
    57e0:	674ec800 43abc16d 60913d00 43e158e4     ..Ngm..C.=.`.X.C
    57f0:	78b58c40 4415af1d d6e2ef50 444b1ae4     @..x...DP.....KD
    5800:	064dd592 4480f0cf c7e14af6 44b52d02     ..M....D.J...-.D
    5810:	79d99db4 44ea7843                       ...yCx.D

00005818 <p05.6047>:
    5818:	00000005 00000019 0000007d 2b302d23     ........}...#-0+
    5828:	6c680020 6665004c 47464567 50004300      .hlL.efgEFG.C.P
    5838:	5849534f 00002e00                                OSIX...

0000583f <_ctype_>:
    583f:	20202000 20202020 28282020 20282828     .         ((((( 
    584f:	20202020 20202020 20202020 20202020                     
    585f:	10108820 10101010 10101010 10101010      ...............
    586f:	04040410 04040404 10040404 10101010     ................
    587f:	41411010 41414141 01010101 01010101     ..AAAAAA........
    588f:	01010101 01010101 01010101 10101010     ................
    589f:	42421010 42424242 02020202 02020202     ..BBBBBB........
    58af:	02020202 02020202 02020202 10101010     ................
    58bf:	00000020 00000000 00000000 00000000      ...............
	...
    593f:	0041f800 0041da00 00419400 0040b200     ..A...A...A...@.
    594f:	00419400 0041cc00 00419400 0040b200     ..A...A...A...@.
    595f:	0041da00 0041da00 0041cc00 0040b200     ..A...A...A...@.
    596f:	0040aa00 0040aa00 0040aa00 00441000     ..@...@...@...D.
    597f:	004a5800 00491800 00491800 00491400     .XJ...I...I...I.
    598f:	004a3000 004a3000 004a2200 00491400     .0J..0J.."J...I.
    599f:	004a3000 004a2200 004a3000 00491400     .0J.."J..0J...I.
    59af:	004a3800 004a3800 004a3800 004c3c00     .8J..8J..8J..<L.
	...

000059c0 <_init>:
    59c0:	b5f8      	push	{r3, r4, r5, r6, r7, lr}
    59c2:	46c0      	nop			; (mov r8, r8)
    59c4:	bcf8      	pop	{r3, r4, r5, r6, r7}
    59c6:	bc08      	pop	{r3}
    59c8:	469e      	mov	lr, r3
    59ca:	4770      	bx	lr

000059cc <__init_array_start>:
    59cc:	000000dd 	.word	0x000000dd

000059d0 <_fini>:
    59d0:	b5f8      	push	{r3, r4, r5, r6, r7, lr}
    59d2:	46c0      	nop			; (mov r8, r8)
    59d4:	bcf8      	pop	{r3, r4, r5, r6, r7}
    59d6:	bc08      	pop	{r3}
    59d8:	469e      	mov	lr, r3
    59da:	4770      	bx	lr

000059dc <__fini_array_start>:
    59dc:	000000b5 	.word	0x000000b5
